
test_DFT:     file format elf32-littleriscv


Disassembly of section .text:

00000054 <main>:
void DFT(int point, int k);



int main()
{
      54:	1101                	addi	sp,sp,-32
      56:	ce06                	sw	ra,28(sp)
      58:	cc22                	sw	s0,24(sp)
      5a:	ca26                	sw	s1,20(sp)
      5c:	c84a                	sw	s2,16(sp)
      5e:	c64e                	sw	s3,12(sp)
      60:	c452                	sw	s4,8(sp)
      62:	c256                	sw	s5,4(sp)
      64:	23c18793          	addi	a5,gp,572 # 15af4 <x>
	for (int j = 0; j < 64; j++)
      68:	4701                	li	a4,0
	{
		x[0][j] = j;
		x[1][j] = 63 - j;
      6a:	03f00513          	li	a0,63
	for (int j = 0; j < 64; j++)
      6e:	04000593          	li	a1,64
		x[0][j] = j;
      72:	0ff77693          	andi	a3,a4,255
		x[1][j] = 63 - j;
      76:	40d50633          	sub	a2,a0,a3
		x[0][j] = j;
      7a:	00d78023          	sb	a3,0(a5)
		x[1][j] = 63 - j;
      7e:	04c78023          	sb	a2,64(a5)
	for (int j = 0; j < 64; j++)
      82:	0705                	addi	a4,a4,1
      84:	0785                	addi	a5,a5,1
      86:	feb716e3          	bne	a4,a1,72 <main+0x1e>
      8a:	4bc18913          	addi	s2,gp,1212 # 15d74 <DFT_data_real>
      8e:	2bc18493          	addi	s1,gp,700 # 15b74 <DFT_data_imag>
	}
	for (int k = 0; k < 64; k++)
      92:	4401                	li	s0,0
      94:	6ad1                	lui	s5,0x14
      96:	6a51                	lui	s4,0x14
      98:	04000993          	li	s3,64
{
	int p, Butterflycos, Butterflysin, tmp, tmp2, tmp3, tmp4;
	int Butterflycos2, Butterflysin2;
	int Butterflycos3, Butterflysin3;
	int Butterflycos4, Butterflysin4;
	if (point == 64)
      9c:	8522                	mv	a0,s0
      9e:	22e9                	jal	268 <DFT.part.0>
		printf("first: X1[%d] = %d + %d j		;", k, DFT_data_real[0][k], DFT_data_imag[0][k]);
      a0:	4094                	lw	a3,0(s1)
      a2:	00092603          	lw	a2,0(s2)
      a6:	85a2                	mv	a1,s0
      a8:	268a8513          	addi	a0,s5,616 # 14268 <__clzsi2+0x50>
      ac:	2391                	jal	5f0 <printf>
		printf("second: X2[%d] = %d + %d j\n", k, DFT_data_real[1][k], DFT_data_imag[1][k]);
      ae:	1004a683          	lw	a3,256(s1)
      b2:	10092603          	lw	a2,256(s2)
      b6:	85a2                	mv	a1,s0
      b8:	288a0513          	addi	a0,s4,648 # 14288 <__clzsi2+0x70>
	for (int k = 0; k < 64; k++)
      bc:	0405                	addi	s0,s0,1
		printf("second: X2[%d] = %d + %d j\n", k, DFT_data_real[1][k], DFT_data_imag[1][k]);
      be:	2b0d                	jal	5f0 <printf>
	for (int k = 0; k < 64; k++)
      c0:	0911                	addi	s2,s2,4
      c2:	0491                	addi	s1,s1,4
      c4:	fd341ce3          	bne	s0,s3,9c <main+0x48>
}
      c8:	40f2                	lw	ra,28(sp)
      ca:	4462                	lw	s0,24(sp)
      cc:	44d2                	lw	s1,20(sp)
      ce:	4942                	lw	s2,16(sp)
      d0:	49b2                	lw	s3,12(sp)
      d2:	4a22                	lw	s4,8(sp)
      d4:	4a92                	lw	s5,4(sp)
      d6:	4501                	li	a0,0
      d8:	6105                	addi	sp,sp,32
      da:	8082                	ret

000000dc <register_fini>:
      dc:	000007b7          	lui	a5,0x0
      e0:	00078793          	mv	a5,a5
      e4:	00078863          	beqz	a5,f4 <register_fini+0x18>
      e8:	00004537          	lui	a0,0x4
      ec:	9a050513          	addi	a0,a0,-1632 # 39a0 <__libc_fini_array>
      f0:	3f50c06f          	j	cce4 <atexit>
      f4:	00008067          	ret

000000f8 <_start>:
      f8:	00015197          	auipc	gp,0x15
      fc:	7c018193          	addi	gp,gp,1984 # 158b8 <__global_pointer$>
     100:	1e418513          	addi	a0,gp,484 # 15a9c <_edata>
     104:	6c018613          	addi	a2,gp,1728 # 15f78 <//.>
     108:	40a60633          	sub	a2,a2,a0
     10c:	00000593          	li	a1,0
     110:	3c4000ef          	jal	ra,4d4 <memset>
     114:	0000d517          	auipc	a0,0xd
     118:	bd050513          	addi	a0,a0,-1072 # cce4 <atexit>
     11c:	00050863          	beqz	a0,12c <_start+0x34>
     120:	00004517          	auipc	a0,0x4
     124:	88050513          	addi	a0,a0,-1920 # 39a0 <__libc_fini_array>
     128:	3bd0c0ef          	jal	ra,cce4 <atexit>
     12c:	30c000ef          	jal	ra,438 <__libc_init_array>
     130:	00012503          	lw	a0,0(sp)
     134:	00410593          	addi	a1,sp,4
     138:	00000613          	li	a2,0
     13c:	f19ff0ef          	jal	ra,54 <main>
     140:	2c80006f          	j	408 <exit>

00000144 <__do_global_dtors_aux>:
     144:	1f81c703          	lbu	a4,504(gp) # 15ab0 <completed.5518>
     148:	04071463          	bnez	a4,190 <__do_global_dtors_aux+0x4c>
     14c:	ff010113          	addi	sp,sp,-16
     150:	00812423          	sw	s0,8(sp)
     154:	00078413          	mv	s0,a5
     158:	000007b7          	lui	a5,0x0
     15c:	00112623          	sw	ra,12(sp)
     160:	00078793          	mv	a5,a5
     164:	00078a63          	beqz	a5,178 <__do_global_dtors_aux+0x34>
     168:	00015537          	lui	a0,0x15
     16c:	06c50513          	addi	a0,a0,108 # 1506c <__EH_FRAME_BEGIN__>
     170:	00000097          	auipc	ra,0x0
     174:	000000e7          	jalr	zero # 0 <main-0x54>
     178:	00100793          	li	a5,1
     17c:	00c12083          	lw	ra,12(sp)
     180:	1ef18c23          	sb	a5,504(gp) # 15ab0 <completed.5518>
     184:	00812403          	lw	s0,8(sp)
     188:	01010113          	addi	sp,sp,16
     18c:	00008067          	ret
     190:	00008067          	ret

00000194 <frame_dummy>:
     194:	000007b7          	lui	a5,0x0
     198:	00078793          	mv	a5,a5
     19c:	00078c63          	beqz	a5,1b4 <frame_dummy+0x20>
     1a0:	00015537          	lui	a0,0x15
     1a4:	1fc18593          	addi	a1,gp,508 # 15ab4 <object.5523>
     1a8:	06c50513          	addi	a0,a0,108 # 1506c <__EH_FRAME_BEGIN__>
     1ac:	00000317          	auipc	t1,0x0
     1b0:	00000067          	jr	zero # 0 <main-0x54>
     1b4:	00008067          	ret

000001b8 <ButterflyCos>:
	if (tmp < 16)
     1b8:	47bd                	li	a5,15
     1ba:	02a7dc63          	bge	a5,a0,1f2 <ButterflyCos+0x3a>
	else if (tmp < 32)
     1be:	47fd                	li	a5,31
     1c0:	00a7df63          	bge	a5,a0,1de <ButterflyCos+0x26>
	else if (tmp < 48)
     1c4:	02f00793          	li	a5,47
     1c8:	02a7cc63          	blt	a5,a0,200 <ButterflyCos+0x48>
		return -FFT64BUTTERFLY[tmp - 32];
     1cc:	67d5                	lui	a5,0x15
     1ce:	0b878793          	addi	a5,a5,184 # 150b8 <__fini_array_end>
     1d2:	953e                	add	a0,a0,a5
     1d4:	fe054503          	lbu	a0,-32(a0)
     1d8:	40a00533          	neg	a0,a0
     1dc:	8082                	ret
		return -FFT64BUTTERFLY[32 - tmp];
     1de:	67d5                	lui	a5,0x15
     1e0:	0b878793          	addi	a5,a5,184 # 150b8 <__fini_array_end>
     1e4:	40a78533          	sub	a0,a5,a0
     1e8:	02054503          	lbu	a0,32(a0)
     1ec:	40a00533          	neg	a0,a0
     1f0:	8082                	ret
		return FFT64BUTTERFLY[tmp];
     1f2:	67d5                	lui	a5,0x15
     1f4:	0b878793          	addi	a5,a5,184 # 150b8 <__fini_array_end>
     1f8:	953e                	add	a0,a0,a5
     1fa:	00054503          	lbu	a0,0(a0)
     1fe:	8082                	ret
		return FFT64BUTTERFLY[64 - tmp];
     200:	67d5                	lui	a5,0x15
     202:	0b878793          	addi	a5,a5,184 # 150b8 <__fini_array_end>
     206:	40a78533          	sub	a0,a5,a0
     20a:	04054503          	lbu	a0,64(a0)
}
     20e:	8082                	ret

00000210 <ButterflySin>:
	if (tmp < 16)
     210:	47bd                	li	a5,15
     212:	02a7da63          	bge	a5,a0,246 <ButterflySin+0x36>
	else if (tmp < 32)
     216:	47fd                	li	a5,31
     218:	02a7d063          	bge	a5,a0,238 <ButterflySin+0x28>
	else if (tmp < 48)
     21c:	02f00793          	li	a5,47
     220:	02a7cb63          	blt	a5,a0,256 <ButterflySin+0x46>
		return -FFT64BUTTERFLY[48 - tmp];
     224:	67d5                	lui	a5,0x15
     226:	0b878793          	addi	a5,a5,184 # 150b8 <__fini_array_end>
     22a:	40a78533          	sub	a0,a5,a0
     22e:	03054503          	lbu	a0,48(a0)
     232:	40a00533          	neg	a0,a0
     236:	8082                	ret
		return FFT64BUTTERFLY[tmp - 16];
     238:	67d5                	lui	a5,0x15
     23a:	0b878793          	addi	a5,a5,184 # 150b8 <__fini_array_end>
     23e:	953e                	add	a0,a0,a5
     240:	ff054503          	lbu	a0,-16(a0)
     244:	8082                	ret
		return FFT64BUTTERFLY[16 - tmp];
     246:	67d5                	lui	a5,0x15
     248:	0b878793          	addi	a5,a5,184 # 150b8 <__fini_array_end>
     24c:	40a78533          	sub	a0,a5,a0
     250:	01054503          	lbu	a0,16(a0)
     254:	8082                	ret
		return -FFT64BUTTERFLY[tmp - 48];
     256:	67d5                	lui	a5,0x15
     258:	0b878793          	addi	a5,a5,184 # 150b8 <__fini_array_end>
     25c:	953e                	add	a0,a0,a5
     25e:	fd054503          	lbu	a0,-48(a0)
     262:	40a00533          	neg	a0,a0
}
     266:	8082                	ret

00000268 <DFT.part.0>:
	{
		for (p = 0; p < 16; p++)
     268:	00251693          	slli	a3,a0,0x2
     26c:	4bc18793          	addi	a5,gp,1212 # 15d74 <DFT_data_real>
void DFT(int point, int k)                                       //point = 64,k表示DFT频谱的第k个离散点，不可以超过point-1
     270:	711d                	addi	sp,sp,-96
     272:	97b6                	add	a5,a5,a3
     274:	00151713          	slli	a4,a0,0x1
		for (p = 0; p < 16; p++)
     278:	972a                	add	a4,a4,a0
     27a:	cc3e                	sw	a5,24(sp)
     27c:	0712                	slli	a4,a4,0x4
     27e:	2bc18793          	addi	a5,gp,700 # 15b74 <DFT_data_imag>
     282:	97b6                	add	a5,a5,a3
void DFT(int point, int k)                                       //point = 64,k表示DFT频谱的第k个离散点，不可以超过point-1
     284:	c8ca                	sw	s2,80(sp)
		for (p = 0; p < 16; p++)
     286:	8f09                	sub	a4,a4,a0
void DFT(int point, int k)                                       //point = 64,k表示DFT频谱的第k个离散点，不可以超过point-1
     288:	caa6                	sw	s1,84(sp)
     28a:	d86a                	sw	s10,48(sp)
     28c:	d66e                	sw	s11,44(sp)
     28e:	ca3e                	sw	a5,20(sp)
     290:	ce86                	sw	ra,92(sp)
     292:	cca2                	sw	s0,88(sp)
     294:	c6ce                	sw	s3,76(sp)
     296:	c4d2                	sw	s4,72(sp)
     298:	c2d6                	sw	s5,68(sp)
     29a:	c0da                	sw	s6,64(sp)
     29c:	de5e                	sw	s7,60(sp)
     29e:	dc62                	sw	s8,56(sp)
     2a0:	da66                	sw	s9,52(sp)
     2a2:	2bc18913          	addi	s2,gp,700 # 15b74 <DFT_data_imag>
     2a6:	00451293          	slli	t0,a0,0x4
     2aa:	02000d93          	li	s11,32
     2ae:	4d41                	li	s10,16
     2b0:	4781                	li	a5,0
		for (p = 0; p < 16; p++)
     2b2:	4481                	li	s1,0
     2b4:	ce3a                	sw	a4,28(sp)
		{
			tmp = (p * k) % 64;
     2b6:	00f286b3          	add	a3,t0,a5
     2ba:	00568733          	add	a4,a3,t0
     2be:	41f7da93          	srai	s5,a5,0x1f
     2c2:	00570fb3          	add	t6,a4,t0
     2c6:	01aad513          	srli	a0,s5,0x1a
			tmp2 = ((p + 16) * k) % 64;
     2ca:	41f6da13          	srai	s4,a3,0x1f
			tmp3 = ((p + 32) * k) % 64;
     2ce:	41f75993          	srai	s3,a4,0x1f
			tmp = (p * k) % 64;
     2d2:	00a78ab3          	add	s5,a5,a0
			tmp4 = ((p + 48) * k) % 64;
     2d6:	41ffd793          	srai	a5,t6,0x1f
     2da:	01a7d613          	srli	a2,a5,0x1a
			tmp2 = ((p + 16) * k) % 64;
     2de:	01aa5813          	srli	a6,s4,0x1a
			tmp3 = ((p + 32) * k) % 64;
     2e2:	01a9d593          	srli	a1,s3,0x1a
			tmp = (p * k) % 64;
     2e6:	03fafa93          	andi	s5,s5,63
			tmp4 = ((p + 48) * k) % 64;
     2ea:	00cf87b3          	add	a5,t6,a2
			tmp2 = ((p + 16) * k) % 64;
     2ee:	01068a33          	add	s4,a3,a6
			tmp3 = ((p + 32) * k) % 64;
     2f2:	00b709b3          	add	s3,a4,a1
			tmp = (p * k) % 64;
     2f6:	40aa8ab3          	sub	s5,s5,a0
			tmp4 = ((p + 48) * k) % 64;
     2fa:	03f7f793          	andi	a5,a5,63
			Butterflycos = ButterflyCos(tmp);
     2fe:	8556                	mv	a0,s5
			tmp2 = ((p + 16) * k) % 64;
     300:	03fa7a13          	andi	s4,s4,63
			tmp3 = ((p + 32) * k) % 64;
     304:	03f9f993          	andi	s3,s3,63
			tmp2 = ((p + 16) * k) % 64;
     308:	410a0a33          	sub	s4,s4,a6
			tmp3 = ((p + 32) * k) % 64;
     30c:	40b989b3          	sub	s3,s3,a1
			tmp4 = ((p + 48) * k) % 64;
     310:	40c78433          	sub	s0,a5,a2
			Butterflycos = ButterflyCos(tmp);
     314:	c816                	sw	t0,16(sp)
			tmp4 = ((p + 48) * k) % 64;
     316:	c67e                	sw	t6,12(sp)
			Butterflycos = ButterflyCos(tmp);
     318:	3545                	jal	1b8 <ButterflyCos>
     31a:	8caa                	mv	s9,a0
			Butterflysin = ButterflySin(tmp);
     31c:	8556                	mv	a0,s5
     31e:	3dcd                	jal	210 <ButterflySin>
     320:	8c2a                	mv	s8,a0
			Butterflycos2 = ButterflyCos(tmp2);
     322:	8552                	mv	a0,s4
     324:	3d51                	jal	1b8 <ButterflyCos>
     326:	8baa                	mv	s7,a0
			Butterflysin2 = ButterflySin(tmp2);
     328:	8552                	mv	a0,s4
     32a:	35dd                	jal	210 <ButterflySin>
     32c:	8b2a                	mv	s6,a0
			Butterflycos3 = ButterflyCos(tmp3);
     32e:	854e                	mv	a0,s3
     330:	3561                	jal	1b8 <ButterflyCos>
     332:	8aaa                	mv	s5,a0
			Butterflysin3 = ButterflySin(tmp3);
     334:	854e                	mv	a0,s3
     336:	3de9                	jal	210 <ButterflySin>
     338:	8a2a                	mv	s4,a0
			Butterflycos4 = ButterflyCos(tmp4);
     33a:	8522                	mv	a0,s0
     33c:	3db5                	jal	1b8 <ButterflyCos>
     33e:	89aa                	mv	s3,a0
			Butterflysin4 = ButterflySin(tmp4);
     340:	8522                	mv	a0,s0
     342:	35f9                	jal	210 <ButterflySin>
     344:	4352                	lw	t1,20(sp)
     346:	48e2                	lw	a7,24(sp)
     348:	4fb2                	lw	t6,12(sp)
     34a:	42c2                	lw	t0,16(sp)
     34c:	8f2a                	mv	t5,a0


			for (int i = 0; i < total_X; i++)
     34e:	f8090613          	addi	a2,s2,-128
     352:	03048513          	addi	a0,s1,48
			{
				DFT_data_real[i][k] += x[i][p] * Butterflycos + x[i][p+16]* Butterflycos2 + x[i][p + 32] * Butterflycos3 + x[i][p + 48] * Butterflycos4;
     356:	40960733          	sub	a4,a2,s1
     35a:	01a707b3          	add	a5,a4,s10
     35e:	00064e83          	lbu	t4,0(a2)
     362:	0007c403          	lbu	s0,0(a5)
     366:	01b707b3          	add	a5,a4,s11
     36a:	972a                	add	a4,a4,a0
     36c:	03dc8833          	mul	a6,s9,t4
     370:	00074683          	lbu	a3,0(a4)
     374:	0007c583          	lbu	a1,0(a5)
     378:	0008a383          	lw	t2,0(a7)
				DFT_data_imag[i][k] += x[i][p] * Butterflysin + x[i][p + 16] * Butterflysin2 + x[i][p + 32] * Butterflysin3 + x[i][p + 48] * Butterflysin4;
     37c:	00032e03          	lw	t3,0(t1) # 1ac <frame_dummy+0x18>
			for (int i = 0; i < total_X; i++)
     380:	10088893          	addi	a7,a7,256
     384:	10030313          	addi	t1,t1,256
     388:	04060613          	addi	a2,a2,64
				DFT_data_real[i][k] += x[i][p] * Butterflycos + x[i][p+16]* Butterflycos2 + x[i][p + 32] * Butterflycos3 + x[i][p + 48] * Butterflycos4;
     38c:	028b8733          	mul	a4,s7,s0
				DFT_data_imag[i][k] += x[i][p] * Butterflysin + x[i][p + 16] * Butterflysin2 + x[i][p + 32] * Butterflysin3 + x[i][p + 48] * Butterflysin4;
     390:	03dc07b3          	mul	a5,s8,t4
				DFT_data_real[i][k] += x[i][p] * Butterflycos + x[i][p+16]* Butterflycos2 + x[i][p + 32] * Butterflycos3 + x[i][p + 48] * Butterflycos4;
     394:	9742                	add	a4,a4,a6
				DFT_data_imag[i][k] += x[i][p] * Butterflysin + x[i][p + 16] * Butterflysin2 + x[i][p + 32] * Butterflysin3 + x[i][p + 48] * Butterflysin4;
     396:	028b0833          	mul	a6,s6,s0
				DFT_data_real[i][k] += x[i][p] * Butterflycos + x[i][p+16]* Butterflycos2 + x[i][p + 32] * Butterflycos3 + x[i][p + 48] * Butterflycos4;
     39a:	02ba8433          	mul	s0,s5,a1
				DFT_data_imag[i][k] += x[i][p] * Butterflysin + x[i][p + 16] * Butterflysin2 + x[i][p + 32] * Butterflysin3 + x[i][p + 48] * Butterflysin4;
     39e:	983e                	add	a6,a6,a5
     3a0:	02ba05b3          	mul	a1,s4,a1
				DFT_data_real[i][k] += x[i][p] * Butterflycos + x[i][p+16]* Butterflycos2 + x[i][p + 32] * Butterflycos3 + x[i][p + 48] * Butterflycos4;
     3a4:	9722                	add	a4,a4,s0
     3a6:	02d98eb3          	mul	t4,s3,a3
				DFT_data_imag[i][k] += x[i][p] * Butterflysin + x[i][p + 16] * Butterflysin2 + x[i][p + 32] * Butterflysin3 + x[i][p + 48] * Butterflysin4;
     3aa:	00b807b3          	add	a5,a6,a1
     3ae:	02df06b3          	mul	a3,t5,a3
				DFT_data_real[i][k] += x[i][p] * Butterflycos + x[i][p+16]* Butterflycos2 + x[i][p + 32] * Butterflycos3 + x[i][p + 48] * Butterflycos4;
     3b2:	9776                	add	a4,a4,t4
     3b4:	971e                	add	a4,a4,t2
     3b6:	f0e8a023          	sw	a4,-256(a7)
				DFT_data_imag[i][k] += x[i][p] * Butterflysin + x[i][p + 16] * Butterflysin2 + x[i][p + 32] * Butterflysin3 + x[i][p + 48] * Butterflysin4;
     3ba:	97b6                	add	a5,a5,a3
     3bc:	97f2                	add	a5,a5,t3
     3be:	f0f32023          	sw	a5,-256(t1)
			for (int i = 0; i < total_X; i++)
     3c2:	f8c91ae3          	bne	s2,a2,356 <DFT.part.0+0xee>
		for (p = 0; p < 16; p++)
     3c6:	47f2                	lw	a5,28(sp)
     3c8:	0485                	addi	s1,s1,1
     3ca:	4741                	li	a4,16
     3cc:	40ff87b3          	sub	a5,t6,a5
     3d0:	0d05                	addi	s10,s10,1
     3d2:	0d85                	addi	s11,s11,1
     3d4:	0905                	addi	s2,s2,1
     3d6:	eee490e3          	bne	s1,a4,2b6 <DFT.part.0+0x4e>
			}

		}
	}
}
     3da:	40f6                	lw	ra,92(sp)
     3dc:	4466                	lw	s0,88(sp)
     3de:	44d6                	lw	s1,84(sp)
     3e0:	4946                	lw	s2,80(sp)
     3e2:	49b6                	lw	s3,76(sp)
     3e4:	4a26                	lw	s4,72(sp)
     3e6:	4a96                	lw	s5,68(sp)
     3e8:	4b06                	lw	s6,64(sp)
     3ea:	5bf2                	lw	s7,60(sp)
     3ec:	5c62                	lw	s8,56(sp)
     3ee:	5cd2                	lw	s9,52(sp)
     3f0:	5d42                	lw	s10,48(sp)
     3f2:	5db2                	lw	s11,44(sp)
     3f4:	6125                	addi	sp,sp,96
     3f6:	8082                	ret

000003f8 <DFT>:
	if (point == 64)
     3f8:	04000793          	li	a5,64
     3fc:	00f50363          	beq	a0,a5,402 <DFT+0xa>
}
     400:	8082                	ret
     402:	852e                	mv	a0,a1
     404:	b595                	j	268 <DFT.part.0>
	...

00000408 <exit>:
     408:	ff010113          	addi	sp,sp,-16
     40c:	00000593          	li	a1,0
     410:	00812423          	sw	s0,8(sp)
     414:	00112623          	sw	ra,12(sp)
     418:	00050413          	mv	s0,a0
     41c:	62d020ef          	jal	ra,3248 <__call_exitprocs>
     420:	1d01a503          	lw	a0,464(gp) # 15a88 <_global_impure_ptr>
     424:	03c52783          	lw	a5,60(a0)
     428:	00078463          	beqz	a5,430 <exit+0x28>
     42c:	000780e7          	jalr	a5
     430:	00040513          	mv	a0,s0
     434:	5ac0f0ef          	jal	ra,f9e0 <_exit>

00000438 <__libc_init_array>:
     438:	ff010113          	addi	sp,sp,-16
     43c:	00812423          	sw	s0,8(sp)
     440:	01212023          	sw	s2,0(sp)
     444:	00015437          	lui	s0,0x15
     448:	00015937          	lui	s2,0x15
     44c:	0ac40793          	addi	a5,s0,172 # 150ac <__init_array_start>
     450:	0ac90913          	addi	s2,s2,172 # 150ac <__init_array_start>
     454:	40f90933          	sub	s2,s2,a5
     458:	00112623          	sw	ra,12(sp)
     45c:	00912223          	sw	s1,4(sp)
     460:	40295913          	srai	s2,s2,0x2
     464:	02090063          	beqz	s2,484 <__libc_init_array+0x4c>
     468:	0ac40413          	addi	s0,s0,172
     46c:	00000493          	li	s1,0
     470:	00042783          	lw	a5,0(s0)
     474:	00148493          	addi	s1,s1,1
     478:	00440413          	addi	s0,s0,4
     47c:	000780e7          	jalr	a5
     480:	fe9918e3          	bne	s2,s1,470 <__libc_init_array+0x38>
     484:	00015437          	lui	s0,0x15
     488:	00015937          	lui	s2,0x15
     48c:	0ac40793          	addi	a5,s0,172 # 150ac <__init_array_start>
     490:	0b490913          	addi	s2,s2,180 # 150b4 <__init_array_end>
     494:	40f90933          	sub	s2,s2,a5
     498:	40295913          	srai	s2,s2,0x2
     49c:	02090063          	beqz	s2,4bc <__libc_init_array+0x84>
     4a0:	0ac40413          	addi	s0,s0,172
     4a4:	00000493          	li	s1,0
     4a8:	00042783          	lw	a5,0(s0)
     4ac:	00148493          	addi	s1,s1,1
     4b0:	00440413          	addi	s0,s0,4
     4b4:	000780e7          	jalr	a5
     4b8:	fe9918e3          	bne	s2,s1,4a8 <__libc_init_array+0x70>
     4bc:	00c12083          	lw	ra,12(sp)
     4c0:	00812403          	lw	s0,8(sp)
     4c4:	00412483          	lw	s1,4(sp)
     4c8:	00012903          	lw	s2,0(sp)
     4cc:	01010113          	addi	sp,sp,16
     4d0:	00008067          	ret

000004d4 <memset>:
     4d4:	00f00313          	li	t1,15
     4d8:	00050713          	mv	a4,a0
     4dc:	02c37e63          	bgeu	t1,a2,518 <memset+0x44>
     4e0:	00f77793          	andi	a5,a4,15
     4e4:	0a079063          	bnez	a5,584 <memset+0xb0>
     4e8:	08059263          	bnez	a1,56c <memset+0x98>
     4ec:	ff067693          	andi	a3,a2,-16
     4f0:	00f67613          	andi	a2,a2,15
     4f4:	00e686b3          	add	a3,a3,a4
     4f8:	00b72023          	sw	a1,0(a4)
     4fc:	00b72223          	sw	a1,4(a4)
     500:	00b72423          	sw	a1,8(a4)
     504:	00b72623          	sw	a1,12(a4)
     508:	01070713          	addi	a4,a4,16
     50c:	fed766e3          	bltu	a4,a3,4f8 <memset+0x24>
     510:	00061463          	bnez	a2,518 <memset+0x44>
     514:	00008067          	ret
     518:	40c306b3          	sub	a3,t1,a2
     51c:	00269693          	slli	a3,a3,0x2
     520:	00000297          	auipc	t0,0x0
     524:	005686b3          	add	a3,a3,t0
     528:	00c68067          	jr	12(a3)
     52c:	00b70723          	sb	a1,14(a4)
     530:	00b706a3          	sb	a1,13(a4)
     534:	00b70623          	sb	a1,12(a4)
     538:	00b705a3          	sb	a1,11(a4)
     53c:	00b70523          	sb	a1,10(a4)
     540:	00b704a3          	sb	a1,9(a4)
     544:	00b70423          	sb	a1,8(a4)
     548:	00b703a3          	sb	a1,7(a4)
     54c:	00b70323          	sb	a1,6(a4)
     550:	00b702a3          	sb	a1,5(a4)
     554:	00b70223          	sb	a1,4(a4)
     558:	00b701a3          	sb	a1,3(a4)
     55c:	00b70123          	sb	a1,2(a4)
     560:	00b700a3          	sb	a1,1(a4)
     564:	00b70023          	sb	a1,0(a4)
     568:	00008067          	ret
     56c:	0ff5f593          	andi	a1,a1,255
     570:	00859693          	slli	a3,a1,0x8
     574:	00d5e5b3          	or	a1,a1,a3
     578:	01059693          	slli	a3,a1,0x10
     57c:	00d5e5b3          	or	a1,a1,a3
     580:	f6dff06f          	j	4ec <memset+0x18>
     584:	00279693          	slli	a3,a5,0x2
     588:	00000297          	auipc	t0,0x0
     58c:	005686b3          	add	a3,a3,t0
     590:	00008293          	mv	t0,ra
     594:	fa0680e7          	jalr	-96(a3)
     598:	00028093          	mv	ra,t0
     59c:	ff078793          	addi	a5,a5,-16
     5a0:	40f70733          	sub	a4,a4,a5
     5a4:	00f60633          	add	a2,a2,a5
     5a8:	f6c378e3          	bgeu	t1,a2,518 <memset+0x44>
     5ac:	f3dff06f          	j	4e8 <memset+0x14>

000005b0 <_printf_r>:
     5b0:	fc010113          	addi	sp,sp,-64
     5b4:	02c12423          	sw	a2,40(sp)
     5b8:	02d12623          	sw	a3,44(sp)
     5bc:	02e12823          	sw	a4,48(sp)
     5c0:	02f12a23          	sw	a5,52(sp)
     5c4:	03012c23          	sw	a6,56(sp)
     5c8:	03112e23          	sw	a7,60(sp)
     5cc:	00058613          	mv	a2,a1
     5d0:	00852583          	lw	a1,8(a0)
     5d4:	02810693          	addi	a3,sp,40
     5d8:	00112e23          	sw	ra,28(sp)
     5dc:	00d12623          	sw	a3,12(sp)
     5e0:	05c000ef          	jal	ra,63c <_vfprintf_r>
     5e4:	01c12083          	lw	ra,28(sp)
     5e8:	04010113          	addi	sp,sp,64
     5ec:	00008067          	ret

000005f0 <printf>:
     5f0:	1d81a303          	lw	t1,472(gp) # 15a90 <_impure_ptr>
     5f4:	fc010113          	addi	sp,sp,-64
     5f8:	02c12423          	sw	a2,40(sp)
     5fc:	02d12623          	sw	a3,44(sp)
     600:	02b12223          	sw	a1,36(sp)
     604:	02e12823          	sw	a4,48(sp)
     608:	02f12a23          	sw	a5,52(sp)
     60c:	03012c23          	sw	a6,56(sp)
     610:	03112e23          	sw	a7,60(sp)
     614:	00832583          	lw	a1,8(t1)
     618:	02410693          	addi	a3,sp,36
     61c:	00050613          	mv	a2,a0
     620:	00030513          	mv	a0,t1
     624:	00112e23          	sw	ra,28(sp)
     628:	00d12623          	sw	a3,12(sp)
     62c:	010000ef          	jal	ra,63c <_vfprintf_r>
     630:	01c12083          	lw	ra,28(sp)
     634:	04010113          	addi	sp,sp,64
     638:	00008067          	ret

0000063c <_vfprintf_r>:
     63c:	e1010113          	addi	sp,sp,-496
     640:	1e112623          	sw	ra,492(sp)
     644:	1f212023          	sw	s2,480(sp)
     648:	1d812423          	sw	s8,456(sp)
     64c:	1da12023          	sw	s10,448(sp)
     650:	00058c13          	mv	s8,a1
     654:	00060913          	mv	s2,a2
     658:	00d12a23          	sw	a3,20(sp)
     65c:	1e812423          	sw	s0,488(sp)
     660:	1e912223          	sw	s1,484(sp)
     664:	1d312e23          	sw	s3,476(sp)
     668:	1d412c23          	sw	s4,472(sp)
     66c:	1d512a23          	sw	s5,468(sp)
     670:	1d612823          	sw	s6,464(sp)
     674:	1d712623          	sw	s7,460(sp)
     678:	1d912223          	sw	s9,452(sp)
     67c:	1bb12e23          	sw	s11,444(sp)
     680:	00050d13          	mv	s10,a0
     684:	408060ef          	jal	ra,6a8c <_localeconv_r>
     688:	00052783          	lw	a5,0(a0)
     68c:	00078513          	mv	a0,a5
     690:	02f12823          	sw	a5,48(sp)
     694:	65c080ef          	jal	ra,8cf0 <strlen>
     698:	02a12623          	sw	a0,44(sp)
     69c:	0e012823          	sw	zero,240(sp)
     6a0:	0e012a23          	sw	zero,244(sp)
     6a4:	0e012c23          	sw	zero,248(sp)
     6a8:	0e012e23          	sw	zero,252(sp)
     6ac:	000d0663          	beqz	s10,6b8 <_vfprintf_r+0x7c>
     6b0:	038d2783          	lw	a5,56(s10)
     6b4:	0e0788e3          	beqz	a5,fa4 <_vfprintf_r+0x968>
     6b8:	00cc1683          	lh	a3,12(s8)
     6bc:	01069793          	slli	a5,a3,0x10
     6c0:	01269713          	slli	a4,a3,0x12
     6c4:	0107d793          	srli	a5,a5,0x10
     6c8:	02074663          	bltz	a4,6f4 <_vfprintf_r+0xb8>
     6cc:	064c2603          	lw	a2,100(s8)
     6d0:	000027b7          	lui	a5,0x2
     6d4:	00f6e7b3          	or	a5,a3,a5
     6d8:	ffffe6b7          	lui	a3,0xffffe
     6dc:	fff68693          	addi	a3,a3,-1 # ffffdfff <//.+0xfffe8087>
     6e0:	00d676b3          	and	a3,a2,a3
     6e4:	00fc1623          	sh	a5,12(s8)
     6e8:	01079793          	slli	a5,a5,0x10
     6ec:	06dc2223          	sw	a3,100(s8)
     6f0:	0107d793          	srli	a5,a5,0x10
     6f4:	0087f693          	andi	a3,a5,8
     6f8:	2e068663          	beqz	a3,9e4 <_vfprintf_r+0x3a8>
     6fc:	010c2683          	lw	a3,16(s8)
     700:	2e068263          	beqz	a3,9e4 <_vfprintf_r+0x3a8>
     704:	01a7f793          	andi	a5,a5,26
     708:	00a00693          	li	a3,10
     70c:	2ed78e63          	beq	a5,a3,a08 <_vfprintf_r+0x3cc>
     710:	10c10793          	addi	a5,sp,268
     714:	0ef12223          	sw	a5,228(sp)
     718:	00078893          	mv	a7,a5
     71c:	000147b7          	lui	a5,0x14
     720:	2e878793          	addi	a5,a5,744 # 142e8 <__clzsi2+0xd0>
     724:	00f12c23          	sw	a5,24(sp)
     728:	000147b7          	lui	a5,0x14
     72c:	46478793          	addi	a5,a5,1124 # 14464 <zeroes.4486>
     730:	00090b13          	mv	s6,s2
     734:	00f12423          	sw	a5,8(sp)
     738:	000b4783          	lbu	a5,0(s6)
     73c:	0e012623          	sw	zero,236(sp)
     740:	0e012423          	sw	zero,232(sp)
     744:	02012023          	sw	zero,32(sp)
     748:	02012a23          	sw	zero,52(sp)
     74c:	02012c23          	sw	zero,56(sp)
     750:	02012e23          	sw	zero,60(sp)
     754:	04012423          	sw	zero,72(sp)
     758:	04012623          	sw	zero,76(sp)
     75c:	00012623          	sw	zero,12(sp)
     760:	22078463          	beqz	a5,988 <_vfprintf_r+0x34c>
     764:	000b0413          	mv	s0,s6
     768:	02500713          	li	a4,37
     76c:	30e78863          	beq	a5,a4,a7c <_vfprintf_r+0x440>
     770:	00144783          	lbu	a5,1(s0)
     774:	00140413          	addi	s0,s0,1
     778:	fe079ae3          	bnez	a5,76c <_vfprintf_r+0x130>
     77c:	416404b3          	sub	s1,s0,s6
     780:	21640463          	beq	s0,s6,988 <_vfprintf_r+0x34c>
     784:	0ec12703          	lw	a4,236(sp)
     788:	0e812783          	lw	a5,232(sp)
     78c:	0168a023          	sw	s6,0(a7)
     790:	00970733          	add	a4,a4,s1
     794:	00178793          	addi	a5,a5,1
     798:	0098a223          	sw	s1,4(a7)
     79c:	0ee12623          	sw	a4,236(sp)
     7a0:	0ef12423          	sw	a5,232(sp)
     7a4:	00700713          	li	a4,7
     7a8:	00888893          	addi	a7,a7,8
     7ac:	2ef74063          	blt	a4,a5,a8c <_vfprintf_r+0x450>
     7b0:	00c12703          	lw	a4,12(sp)
     7b4:	00044783          	lbu	a5,0(s0)
     7b8:	00970733          	add	a4,a4,s1
     7bc:	00e12623          	sw	a4,12(sp)
     7c0:	1c078463          	beqz	a5,988 <_vfprintf_r+0x34c>
     7c4:	00144483          	lbu	s1,1(s0)
     7c8:	0c0103a3          	sb	zero,199(sp)
     7cc:	00140413          	addi	s0,s0,1
     7d0:	fff00d93          	li	s11,-1
     7d4:	00000993          	li	s3,0
     7d8:	00000a13          	li	s4,0
     7dc:	05a00913          	li	s2,90
     7e0:	00900a93          	li	s5,9
     7e4:	02a00b93          	li	s7,42
     7e8:	00088c93          	mv	s9,a7
     7ec:	00140413          	addi	s0,s0,1
     7f0:	fe048793          	addi	a5,s1,-32
     7f4:	04f96463          	bltu	s2,a5,83c <_vfprintf_r+0x200>
     7f8:	01812703          	lw	a4,24(sp)
     7fc:	00279793          	slli	a5,a5,0x2
     800:	00e787b3          	add	a5,a5,a4
     804:	0007a783          	lw	a5,0(a5)
     808:	00078067          	jr	a5
     80c:	00000993          	li	s3,0
     810:	fd048693          	addi	a3,s1,-48
     814:	00044483          	lbu	s1,0(s0)
     818:	00299793          	slli	a5,s3,0x2
     81c:	013787b3          	add	a5,a5,s3
     820:	00179793          	slli	a5,a5,0x1
     824:	00f689b3          	add	s3,a3,a5
     828:	fd048693          	addi	a3,s1,-48
     82c:	00140413          	addi	s0,s0,1
     830:	fedaf2e3          	bgeu	s5,a3,814 <_vfprintf_r+0x1d8>
     834:	fe048793          	addi	a5,s1,-32
     838:	fcf970e3          	bgeu	s2,a5,7f8 <_vfprintf_r+0x1bc>
     83c:	000c8893          	mv	a7,s9
     840:	14048463          	beqz	s1,988 <_vfprintf_r+0x34c>
     844:	14910623          	sb	s1,332(sp)
     848:	0c0103a3          	sb	zero,199(sp)
     84c:	00100a93          	li	s5,1
     850:	00100c93          	li	s9,1
     854:	14c10b13          	addi	s6,sp,332
     858:	00012823          	sw	zero,16(sp)
     85c:	00000d93          	li	s11,0
     860:	02012423          	sw	zero,40(sp)
     864:	02012223          	sw	zero,36(sp)
     868:	00012e23          	sw	zero,28(sp)
     86c:	002a7b93          	andi	s7,s4,2
     870:	000b8463          	beqz	s7,878 <_vfprintf_r+0x23c>
     874:	002a8a93          	addi	s5,s5,2
     878:	084a7913          	andi	s2,s4,132
     87c:	0ec12783          	lw	a5,236(sp)
     880:	00091663          	bnez	s2,88c <_vfprintf_r+0x250>
     884:	415986b3          	sub	a3,s3,s5
     888:	62d04ce3          	bgtz	a3,16c0 <_vfprintf_r+0x1084>
     88c:	0c714703          	lbu	a4,199(sp)
     890:	02070a63          	beqz	a4,8c4 <_vfprintf_r+0x288>
     894:	0e812703          	lw	a4,232(sp)
     898:	0c710693          	addi	a3,sp,199
     89c:	00d8a023          	sw	a3,0(a7)
     8a0:	00178793          	addi	a5,a5,1
     8a4:	00100693          	li	a3,1
     8a8:	00170713          	addi	a4,a4,1
     8ac:	00d8a223          	sw	a3,4(a7)
     8b0:	0ef12623          	sw	a5,236(sp)
     8b4:	0ee12423          	sw	a4,232(sp)
     8b8:	00700693          	li	a3,7
     8bc:	00888893          	addi	a7,a7,8
     8c0:	4ce6cc63          	blt	a3,a4,d98 <_vfprintf_r+0x75c>
     8c4:	020b8a63          	beqz	s7,8f8 <_vfprintf_r+0x2bc>
     8c8:	0e812703          	lw	a4,232(sp)
     8cc:	0c810693          	addi	a3,sp,200
     8d0:	00d8a023          	sw	a3,0(a7)
     8d4:	00278793          	addi	a5,a5,2
     8d8:	00200693          	li	a3,2
     8dc:	00170713          	addi	a4,a4,1
     8e0:	00d8a223          	sw	a3,4(a7)
     8e4:	0ef12623          	sw	a5,236(sp)
     8e8:	0ee12423          	sw	a4,232(sp)
     8ec:	00700693          	li	a3,7
     8f0:	00888893          	addi	a7,a7,8
     8f4:	6ae6cee3          	blt	a3,a4,17b0 <_vfprintf_r+0x1174>
     8f8:	08000713          	li	a4,128
     8fc:	42e902e3          	beq	s2,a4,1520 <_vfprintf_r+0xee4>
     900:	419d8db3          	sub	s11,s11,s9
     904:	4db04ee3          	bgtz	s11,15e0 <_vfprintf_r+0xfa4>
     908:	100a7713          	andi	a4,s4,256
     90c:	2c071ce3          	bnez	a4,13e4 <_vfprintf_r+0xda8>
     910:	0e812703          	lw	a4,232(sp)
     914:	019787b3          	add	a5,a5,s9
     918:	0168a023          	sw	s6,0(a7)
     91c:	00170713          	addi	a4,a4,1
     920:	0198a223          	sw	s9,4(a7)
     924:	0ef12623          	sw	a5,236(sp)
     928:	0ee12423          	sw	a4,232(sp)
     92c:	00700693          	li	a3,7
     930:	58e6ce63          	blt	a3,a4,ecc <_vfprintf_r+0x890>
     934:	00888893          	addi	a7,a7,8
     938:	004a7a13          	andi	s4,s4,4
     93c:	000a0663          	beqz	s4,948 <_vfprintf_r+0x30c>
     940:	415984b3          	sub	s1,s3,s5
     944:	5a904463          	bgtz	s1,eec <_vfprintf_r+0x8b0>
     948:	0159d463          	bge	s3,s5,950 <_vfprintf_r+0x314>
     94c:	000a8993          	mv	s3,s5
     950:	00c12703          	lw	a4,12(sp)
     954:	01370733          	add	a4,a4,s3
     958:	00e12623          	sw	a4,12(sp)
     95c:	52079ce3          	bnez	a5,1694 <_vfprintf_r+0x1058>
     960:	01012783          	lw	a5,16(sp)
     964:	0e012423          	sw	zero,232(sp)
     968:	00078863          	beqz	a5,978 <_vfprintf_r+0x33c>
     96c:	01012583          	lw	a1,16(sp)
     970:	000d0513          	mv	a0,s10
     974:	1b8030ef          	jal	ra,3b2c <_free_r>
     978:	10c10893          	addi	a7,sp,268
     97c:	00040b13          	mv	s6,s0
     980:	000b4783          	lbu	a5,0(s6)
     984:	de0790e3          	bnez	a5,764 <_vfprintf_r+0x128>
     988:	0ec12783          	lw	a5,236(sp)
     98c:	00078463          	beqz	a5,994 <_vfprintf_r+0x358>
     990:	2ad0106f          	j	243c <_vfprintf_r+0x1e00>
     994:	00cc5783          	lhu	a5,12(s8)
     998:	0407f793          	andi	a5,a5,64
     99c:	00078463          	beqz	a5,9a4 <_vfprintf_r+0x368>
     9a0:	2140206f          	j	2bb4 <_vfprintf_r+0x2578>
     9a4:	1ec12083          	lw	ra,492(sp)
     9a8:	1e812403          	lw	s0,488(sp)
     9ac:	00c12503          	lw	a0,12(sp)
     9b0:	1e412483          	lw	s1,484(sp)
     9b4:	1e012903          	lw	s2,480(sp)
     9b8:	1dc12983          	lw	s3,476(sp)
     9bc:	1d812a03          	lw	s4,472(sp)
     9c0:	1d412a83          	lw	s5,468(sp)
     9c4:	1d012b03          	lw	s6,464(sp)
     9c8:	1cc12b83          	lw	s7,460(sp)
     9cc:	1c812c03          	lw	s8,456(sp)
     9d0:	1c412c83          	lw	s9,452(sp)
     9d4:	1c012d03          	lw	s10,448(sp)
     9d8:	1bc12d83          	lw	s11,444(sp)
     9dc:	1f010113          	addi	sp,sp,496
     9e0:	00008067          	ret
     9e4:	000c0593          	mv	a1,s8
     9e8:	000d0513          	mv	a0,s10
     9ec:	700020ef          	jal	ra,30ec <__swsetup_r>
     9f0:	00050463          	beqz	a0,9f8 <_vfprintf_r+0x3bc>
     9f4:	1c00206f          	j	2bb4 <_vfprintf_r+0x2578>
     9f8:	00cc5783          	lhu	a5,12(s8)
     9fc:	00a00693          	li	a3,10
     a00:	01a7f793          	andi	a5,a5,26
     a04:	d0d796e3          	bne	a5,a3,710 <_vfprintf_r+0xd4>
     a08:	00ec1783          	lh	a5,14(s8)
     a0c:	d007c2e3          	bltz	a5,710 <_vfprintf_r+0xd4>
     a10:	01412683          	lw	a3,20(sp)
     a14:	00090613          	mv	a2,s2
     a18:	000c0593          	mv	a1,s8
     a1c:	000d0513          	mv	a0,s10
     a20:	60c020ef          	jal	ra,302c <__sbprintf>
     a24:	00a12623          	sw	a0,12(sp)
     a28:	f7dff06f          	j	9a4 <_vfprintf_r+0x368>
     a2c:	000d0513          	mv	a0,s10
     a30:	05c060ef          	jal	ra,6a8c <_localeconv_r>
     a34:	00452783          	lw	a5,4(a0)
     a38:	00078513          	mv	a0,a5
     a3c:	04f12623          	sw	a5,76(sp)
     a40:	2b0080ef          	jal	ra,8cf0 <strlen>
     a44:	00050793          	mv	a5,a0
     a48:	000d0513          	mv	a0,s10
     a4c:	00078493          	mv	s1,a5
     a50:	04f12423          	sw	a5,72(sp)
     a54:	038060ef          	jal	ra,6a8c <_localeconv_r>
     a58:	00852783          	lw	a5,8(a0)
     a5c:	02f12e23          	sw	a5,60(sp)
     a60:	00048463          	beqz	s1,a68 <_vfprintf_r+0x42c>
     a64:	0780106f          	j	1adc <_vfprintf_r+0x14a0>
     a68:	00044483          	lbu	s1,0(s0)
     a6c:	d81ff06f          	j	7ec <_vfprintf_r+0x1b0>
     a70:	00044483          	lbu	s1,0(s0)
     a74:	020a6a13          	ori	s4,s4,32
     a78:	d75ff06f          	j	7ec <_vfprintf_r+0x1b0>
     a7c:	416404b3          	sub	s1,s0,s6
     a80:	d16412e3          	bne	s0,s6,784 <_vfprintf_r+0x148>
     a84:	00044783          	lbu	a5,0(s0)
     a88:	d39ff06f          	j	7c0 <_vfprintf_r+0x184>
     a8c:	0e410613          	addi	a2,sp,228
     a90:	000c0593          	mv	a1,s8
     a94:	000d0513          	mv	a0,s10
     a98:	5f90a0ef          	jal	ra,b890 <__sprint_r>
     a9c:	ee051ce3          	bnez	a0,994 <_vfprintf_r+0x358>
     aa0:	10c10893          	addi	a7,sp,268
     aa4:	d0dff06f          	j	7b0 <_vfprintf_r+0x174>
     aa8:	008a7793          	andi	a5,s4,8
     aac:	000c8893          	mv	a7,s9
     ab0:	00078463          	beqz	a5,ab8 <_vfprintf_r+0x47c>
     ab4:	0600106f          	j	1b14 <_vfprintf_r+0x14d8>
     ab8:	01412783          	lw	a5,20(sp)
     abc:	0b010513          	addi	a0,sp,176
     ac0:	01912823          	sw	s9,16(sp)
     ac4:	00778793          	addi	a5,a5,7
     ac8:	ff87f793          	andi	a5,a5,-8
     acc:	0007a583          	lw	a1,0(a5)
     ad0:	0047a603          	lw	a2,4(a5)
     ad4:	00878793          	addi	a5,a5,8
     ad8:	00f12a23          	sw	a5,20(sp)
     adc:	1e8130ef          	jal	ra,13cc4 <__extenddftf2>
     ae0:	0b012783          	lw	a5,176(sp)
     ae4:	01012883          	lw	a7,16(sp)
     ae8:	0ef12823          	sw	a5,240(sp)
     aec:	0b412783          	lw	a5,180(sp)
     af0:	0ef12a23          	sw	a5,244(sp)
     af4:	0b812783          	lw	a5,184(sp)
     af8:	0ef12c23          	sw	a5,248(sp)
     afc:	0bc12783          	lw	a5,188(sp)
     b00:	0ef12e23          	sw	a5,252(sp)
     b04:	0f010513          	addi	a0,sp,240
     b08:	01112823          	sw	a7,16(sp)
     b0c:	715050ef          	jal	ra,6a20 <_ldcheck>
     b10:	0ca12623          	sw	a0,204(sp)
     b14:	00200793          	li	a5,2
     b18:	01012883          	lw	a7,16(sp)
     b1c:	00f51463          	bne	a0,a5,b24 <_vfprintf_r+0x4e8>
     b20:	4280106f          	j	1f48 <_vfprintf_r+0x190c>
     b24:	00100793          	li	a5,1
     b28:	00f51463          	bne	a0,a5,b30 <_vfprintf_r+0x4f4>
     b2c:	5cc0106f          	j	20f8 <_vfprintf_r+0x1abc>
     b30:	06100793          	li	a5,97
     b34:	00f49463          	bne	s1,a5,b3c <_vfprintf_r+0x500>
     b38:	1dc0206f          	j	2d14 <_vfprintf_r+0x26d8>
     b3c:	04100793          	li	a5,65
     b40:	00f49463          	bne	s1,a5,b48 <_vfprintf_r+0x50c>
     b44:	1410106f          	j	2484 <_vfprintf_r+0x1e48>
     b48:	fdf4f713          	andi	a4,s1,-33
     b4c:	fff00793          	li	a5,-1
     b50:	02e12423          	sw	a4,40(sp)
     b54:	00fd9463          	bne	s11,a5,b5c <_vfprintf_r+0x520>
     b58:	2480206f          	j	2da0 <_vfprintf_r+0x2764>
     b5c:	04700793          	li	a5,71
     b60:	00f71463          	bne	a4,a5,b68 <_vfprintf_r+0x52c>
     b64:	22c0206f          	j	2d90 <_vfprintf_r+0x2754>
     b68:	0fc12b83          	lw	s7,252(sp)
     b6c:	05412823          	sw	s4,80(sp)
     b70:	0f012e03          	lw	t3,240(sp)
     b74:	0f412e83          	lw	t4,244(sp)
     b78:	0f812f03          	lw	t5,248(sp)
     b7c:	100a6793          	ori	a5,s4,256
     b80:	000bd463          	bgez	s7,b88 <_vfprintf_r+0x54c>
     b84:	5990106f          	j	291c <_vfprintf_r+0x22e0>
     b88:	04012c23          	sw	zero,88(sp)
     b8c:	00078a13          	mv	s4,a5
     b90:	00012823          	sw	zero,16(sp)
     b94:	02812703          	lw	a4,40(sp)
     b98:	04600793          	li	a5,70
     b9c:	00f71463          	bne	a4,a5,ba4 <_vfprintf_r+0x568>
     ba0:	5c10106f          	j	2960 <_vfprintf_r+0x2324>
     ba4:	04500793          	li	a5,69
     ba8:	05112023          	sw	a7,64(sp)
     bac:	00f71463          	bne	a4,a5,bb4 <_vfprintf_r+0x578>
     bb0:	0f80206f          	j	2ca8 <_vfprintf_r+0x266c>
     bb4:	0b010a93          	addi	s5,sp,176
     bb8:	0d010793          	addi	a5,sp,208
     bbc:	0cc10713          	addi	a4,sp,204
     bc0:	0dc10813          	addi	a6,sp,220
     bc4:	000d8693          	mv	a3,s11
     bc8:	00200613          	li	a2,2
     bcc:	000a8593          	mv	a1,s5
     bd0:	000d0513          	mv	a0,s10
     bd4:	0bc12823          	sw	t3,176(sp)
     bd8:	03c12223          	sw	t3,36(sp)
     bdc:	0bd12a23          	sw	t4,180(sp)
     be0:	03d12023          	sw	t4,32(sp)
     be4:	0be12c23          	sw	t5,184(sp)
     be8:	01e12e23          	sw	t5,28(sp)
     bec:	0b712e23          	sw	s7,188(sp)
     bf0:	431040ef          	jal	ra,5820 <_ldtoa_r>
     bf4:	02812703          	lw	a4,40(sp)
     bf8:	04700793          	li	a5,71
     bfc:	01c12f03          	lw	t5,28(sp)
     c00:	02012e83          	lw	t4,32(sp)
     c04:	02412e03          	lw	t3,36(sp)
     c08:	04012883          	lw	a7,64(sp)
     c0c:	00050b13          	mv	s6,a0
     c10:	00f70463          	beq	a4,a5,c18 <_vfprintf_r+0x5dc>
     c14:	3f80206f          	j	300c <_vfprintf_r+0x29d0>
     c18:	05012783          	lw	a5,80(sp)
     c1c:	0017f793          	andi	a5,a5,1
     c20:	00078463          	beqz	a5,c28 <_vfprintf_r+0x5ec>
     c24:	1600206f          	j	2d84 <_vfprintf_r+0x2748>
     c28:	0dc12683          	lw	a3,220(sp)
     c2c:	416687b3          	sub	a5,a3,s6
     c30:	02f12023          	sw	a5,32(sp)
     c34:	0cc12703          	lw	a4,204(sp)
     c38:	04700793          	li	a5,71
     c3c:	00e12e23          	sw	a4,28(sp)
     c40:	02812703          	lw	a4,40(sp)
     c44:	00f71463          	bne	a4,a5,c4c <_vfprintf_r+0x610>
     c48:	4350106f          	j	287c <_vfprintf_r+0x2240>
     c4c:	02812703          	lw	a4,40(sp)
     c50:	04600793          	li	a5,70
     c54:	00f71463          	bne	a4,a5,c5c <_vfprintf_r+0x620>
     c58:	6b50106f          	j	2b0c <_vfprintf_r+0x24d0>
     c5c:	01c12783          	lw	a5,28(sp)
     c60:	02812583          	lw	a1,40(sp)
     c64:	04100613          	li	a2,65
     c68:	fff78793          	addi	a5,a5,-1
     c6c:	0cf12623          	sw	a5,204(sp)
     c70:	0ff4f713          	andi	a4,s1,255
     c74:	00000693          	li	a3,0
     c78:	00c59863          	bne	a1,a2,c88 <_vfprintf_r+0x64c>
     c7c:	00f70713          	addi	a4,a4,15
     c80:	0ff77713          	andi	a4,a4,255
     c84:	00100693          	li	a3,1
     c88:	0ce10a23          	sb	a4,212(sp)
     c8c:	02b00713          	li	a4,43
     c90:	0007da63          	bgez	a5,ca4 <_vfprintf_r+0x668>
     c94:	01c12703          	lw	a4,28(sp)
     c98:	00100793          	li	a5,1
     c9c:	40e787b3          	sub	a5,a5,a4
     ca0:	02d00713          	li	a4,45
     ca4:	0ce10aa3          	sb	a4,213(sp)
     ca8:	00900713          	li	a4,9
     cac:	00f74463          	blt	a4,a5,cb4 <_vfprintf_r+0x678>
     cb0:	1fc0206f          	j	2eac <_vfprintf_r+0x2870>
     cb4:	0e310513          	addi	a0,sp,227
     cb8:	00050593          	mv	a1,a0
     cbc:	00a00693          	li	a3,10
     cc0:	06300e13          	li	t3,99
     cc4:	02d7e733          	rem	a4,a5,a3
     cc8:	00058613          	mv	a2,a1
     ccc:	00078813          	mv	a6,a5
     cd0:	fff58593          	addi	a1,a1,-1
     cd4:	03070713          	addi	a4,a4,48
     cd8:	fee60fa3          	sb	a4,-1(a2)
     cdc:	02d7c7b3          	div	a5,a5,a3
     ce0:	ff0e42e3          	blt	t3,a6,cc4 <_vfprintf_r+0x688>
     ce4:	03078793          	addi	a5,a5,48
     ce8:	0ff7f693          	andi	a3,a5,255
     cec:	fed58fa3          	sb	a3,-1(a1)
     cf0:	ffe60793          	addi	a5,a2,-2
     cf4:	00a7e463          	bltu	a5,a0,cfc <_vfprintf_r+0x6c0>
     cf8:	2ec0206f          	j	2fe4 <_vfprintf_r+0x29a8>
     cfc:	0d610713          	addi	a4,sp,214
     d00:	0080006f          	j	d08 <_vfprintf_r+0x6cc>
     d04:	0007c683          	lbu	a3,0(a5)
     d08:	00d70023          	sb	a3,0(a4)
     d0c:	00178793          	addi	a5,a5,1
     d10:	00170713          	addi	a4,a4,1
     d14:	fea798e3          	bne	a5,a0,d04 <_vfprintf_r+0x6c8>
     d18:	0e510793          	addi	a5,sp,229
     d1c:	0d610713          	addi	a4,sp,214
     d20:	40c787b3          	sub	a5,a5,a2
     d24:	00f707b3          	add	a5,a4,a5
     d28:	0d410713          	addi	a4,sp,212
     d2c:	40e787b3          	sub	a5,a5,a4
     d30:	02f12c23          	sw	a5,56(sp)
     d34:	02012703          	lw	a4,32(sp)
     d38:	03812683          	lw	a3,56(sp)
     d3c:	00100793          	li	a5,1
     d40:	00d70cb3          	add	s9,a4,a3
     d44:	00e7c463          	blt	a5,a4,d4c <_vfprintf_r+0x710>
     d48:	2280206f          	j	2f70 <_vfprintf_r+0x2934>
     d4c:	02c12783          	lw	a5,44(sp)
     d50:	00fc8cb3          	add	s9,s9,a5
     d54:	05012783          	lw	a5,80(sp)
     d58:	fffcca93          	not	s5,s9
     d5c:	41fada93          	srai	s5,s5,0x1f
     d60:	bff7fa13          	andi	s4,a5,-1025
     d64:	100a6a13          	ori	s4,s4,256
     d68:	015cfab3          	and	s5,s9,s5
     d6c:	02012423          	sw	zero,40(sp)
     d70:	02012223          	sw	zero,36(sp)
     d74:	00012e23          	sw	zero,28(sp)
     d78:	05812783          	lw	a5,88(sp)
     d7c:	00079463          	bnez	a5,d84 <_vfprintf_r+0x748>
     d80:	3710106f          	j	28f0 <_vfprintf_r+0x22b4>
     d84:	02d00793          	li	a5,45
     d88:	0cf103a3          	sb	a5,199(sp)
     d8c:	00000d93          	li	s11,0
     d90:	001a8a93          	addi	s5,s5,1
     d94:	ad9ff06f          	j	86c <_vfprintf_r+0x230>
     d98:	0e410613          	addi	a2,sp,228
     d9c:	000c0593          	mv	a1,s8
     da0:	000d0513          	mv	a0,s10
     da4:	2ed0a0ef          	jal	ra,b890 <__sprint_r>
     da8:	100510e3          	bnez	a0,16a8 <_vfprintf_r+0x106c>
     dac:	0ec12783          	lw	a5,236(sp)
     db0:	10c10893          	addi	a7,sp,268
     db4:	b11ff06f          	j	8c4 <_vfprintf_r+0x288>
     db8:	0e812703          	lw	a4,232(sp)
     dbc:	00178c93          	addi	s9,a5,1
     dc0:	02012783          	lw	a5,32(sp)
     dc4:	00100693          	li	a3,1
     dc8:	0168a023          	sw	s6,0(a7)
     dcc:	00170493          	addi	s1,a4,1
     dd0:	00888913          	addi	s2,a7,8
     dd4:	36f6dee3          	bge	a3,a5,1950 <_vfprintf_r+0x1314>
     dd8:	00100793          	li	a5,1
     ddc:	00f8a223          	sw	a5,4(a7)
     de0:	0f912623          	sw	s9,236(sp)
     de4:	0e912423          	sw	s1,232(sp)
     de8:	00700793          	li	a5,7
     dec:	7497c8e3          	blt	a5,s1,1d3c <_vfprintf_r+0x1700>
     df0:	02c12783          	lw	a5,44(sp)
     df4:	03012703          	lw	a4,48(sp)
     df8:	00148493          	addi	s1,s1,1
     dfc:	00fc8cb3          	add	s9,s9,a5
     e00:	00f92223          	sw	a5,4(s2)
     e04:	00e92023          	sw	a4,0(s2)
     e08:	0f912623          	sw	s9,236(sp)
     e0c:	0e912423          	sw	s1,232(sp)
     e10:	00700793          	li	a5,7
     e14:	00890913          	addi	s2,s2,8
     e18:	7497c4e3          	blt	a5,s1,1d60 <_vfprintf_r+0x1724>
     e1c:	0f012783          	lw	a5,240(sp)
     e20:	00148693          	addi	a3,s1,1
     e24:	0a010593          	addi	a1,sp,160
     e28:	0af12823          	sw	a5,176(sp)
     e2c:	0f412783          	lw	a5,244(sp)
     e30:	0b010513          	addi	a0,sp,176
     e34:	00d12e23          	sw	a3,28(sp)
     e38:	0af12a23          	sw	a5,180(sp)
     e3c:	0f812783          	lw	a5,248(sp)
     e40:	0a012023          	sw	zero,160(sp)
     e44:	0a012223          	sw	zero,164(sp)
     e48:	0af12c23          	sw	a5,184(sp)
     e4c:	0fc12783          	lw	a5,252(sp)
     e50:	0a012423          	sw	zero,168(sp)
     e54:	0a012623          	sw	zero,172(sp)
     e58:	0af12e23          	sw	a5,188(sp)
     e5c:	3c4100ef          	jal	ra,11220 <__eqtf2>
     e60:	01c12683          	lw	a3,28(sp)
     e64:	02012783          	lw	a5,32(sp)
     e68:	00890893          	addi	a7,s2,8
     e6c:	00068713          	mv	a4,a3
     e70:	fff78d93          	addi	s11,a5,-1
     e74:	300502e3          	beqz	a0,1978 <_vfprintf_r+0x133c>
     e78:	001b0813          	addi	a6,s6,1
     e7c:	01bc8cb3          	add	s9,s9,s11
     e80:	01092023          	sw	a6,0(s2)
     e84:	01b92223          	sw	s11,4(s2)
     e88:	0f912623          	sw	s9,236(sp)
     e8c:	0ed12423          	sw	a3,232(sp)
     e90:	00700793          	li	a5,7
     e94:	50d7c6e3          	blt	a5,a3,1ba0 <_vfprintf_r+0x1564>
     e98:	01090793          	addi	a5,s2,16
     e9c:	00248713          	addi	a4,s1,2
     ea0:	00088913          	mv	s2,a7
     ea4:	00078893          	mv	a7,a5
     ea8:	03812603          	lw	a2,56(sp)
     eac:	0d410693          	addi	a3,sp,212
     eb0:	00d92023          	sw	a3,0(s2)
     eb4:	019607b3          	add	a5,a2,s9
     eb8:	00c92223          	sw	a2,4(s2)
     ebc:	0ef12623          	sw	a5,236(sp)
     ec0:	0ee12423          	sw	a4,232(sp)
     ec4:	00700693          	li	a3,7
     ec8:	a6e6d8e3          	bge	a3,a4,938 <_vfprintf_r+0x2fc>
     ecc:	0e410613          	addi	a2,sp,228
     ed0:	000c0593          	mv	a1,s8
     ed4:	000d0513          	mv	a0,s10
     ed8:	1b90a0ef          	jal	ra,b890 <__sprint_r>
     edc:	7c051663          	bnez	a0,16a8 <_vfprintf_r+0x106c>
     ee0:	0ec12783          	lw	a5,236(sp)
     ee4:	10c10893          	addi	a7,sp,268
     ee8:	a51ff06f          	j	938 <_vfprintf_r+0x2fc>
     eec:	01000693          	li	a3,16
     ef0:	0e812703          	lw	a4,232(sp)
     ef4:	0096c463          	blt	a3,s1,efc <_vfprintf_r+0x8c0>
     ef8:	5350106f          	j	2c2c <_vfprintf_r+0x25f0>
     efc:	000146b7          	lui	a3,0x14
     f00:	45468e93          	addi	t4,a3,1108 # 14454 <blanks.4485>
     f04:	01000913          	li	s2,16
     f08:	00700a13          	li	s4,7
     f0c:	000e8b13          	mv	s6,t4
     f10:	00c0006f          	j	f1c <_vfprintf_r+0x8e0>
     f14:	ff048493          	addi	s1,s1,-16
     f18:	04995663          	bge	s2,s1,f64 <_vfprintf_r+0x928>
     f1c:	01078793          	addi	a5,a5,16
     f20:	00170713          	addi	a4,a4,1
     f24:	0168a023          	sw	s6,0(a7)
     f28:	0128a223          	sw	s2,4(a7)
     f2c:	0ef12623          	sw	a5,236(sp)
     f30:	0ee12423          	sw	a4,232(sp)
     f34:	00888893          	addi	a7,a7,8
     f38:	fcea5ee3          	bge	s4,a4,f14 <_vfprintf_r+0x8d8>
     f3c:	0e410613          	addi	a2,sp,228
     f40:	000c0593          	mv	a1,s8
     f44:	000d0513          	mv	a0,s10
     f48:	1490a0ef          	jal	ra,b890 <__sprint_r>
     f4c:	74051e63          	bnez	a0,16a8 <_vfprintf_r+0x106c>
     f50:	ff048493          	addi	s1,s1,-16
     f54:	0ec12783          	lw	a5,236(sp)
     f58:	0e812703          	lw	a4,232(sp)
     f5c:	10c10893          	addi	a7,sp,268
     f60:	fa994ee3          	blt	s2,s1,f1c <_vfprintf_r+0x8e0>
     f64:	000b0e93          	mv	t4,s6
     f68:	009787b3          	add	a5,a5,s1
     f6c:	00170713          	addi	a4,a4,1
     f70:	01d8a023          	sw	t4,0(a7)
     f74:	0098a223          	sw	s1,4(a7)
     f78:	0ef12623          	sw	a5,236(sp)
     f7c:	0ee12423          	sw	a4,232(sp)
     f80:	00700693          	li	a3,7
     f84:	9ce6d2e3          	bge	a3,a4,948 <_vfprintf_r+0x30c>
     f88:	0e410613          	addi	a2,sp,228
     f8c:	000c0593          	mv	a1,s8
     f90:	000d0513          	mv	a0,s10
     f94:	0fd0a0ef          	jal	ra,b890 <__sprint_r>
     f98:	70051863          	bnez	a0,16a8 <_vfprintf_r+0x106c>
     f9c:	0ec12783          	lw	a5,236(sp)
     fa0:	9a9ff06f          	j	948 <_vfprintf_r+0x30c>
     fa4:	000d0513          	mv	a0,s10
     fa8:	1b9020ef          	jal	ra,3960 <__sinit>
     fac:	f0cff06f          	j	6b8 <_vfprintf_r+0x7c>
     fb0:	01412703          	lw	a4,20(sp)
     fb4:	000c8893          	mv	a7,s9
     fb8:	0c0103a3          	sb	zero,199(sp)
     fbc:	00072783          	lw	a5,0(a4)
     fc0:	00470713          	addi	a4,a4,4
     fc4:	00e12a23          	sw	a4,20(sp)
     fc8:	14f10623          	sb	a5,332(sp)
     fcc:	00100a93          	li	s5,1
     fd0:	00100c93          	li	s9,1
     fd4:	14c10b13          	addi	s6,sp,332
     fd8:	881ff06f          	j	858 <_vfprintf_r+0x21c>
     fdc:	01412783          	lw	a5,20(sp)
     fe0:	0c0103a3          	sb	zero,199(sp)
     fe4:	000c8893          	mv	a7,s9
     fe8:	0007ab03          	lw	s6,0(a5)
     fec:	00478913          	addi	s2,a5,4
     ff0:	4a0b02e3          	beqz	s6,1c94 <_vfprintf_r+0x1658>
     ff4:	fff00793          	li	a5,-1
     ff8:	00fd9463          	bne	s11,a5,1000 <_vfprintf_r+0x9c4>
     ffc:	7dd0006f          	j	1fd8 <_vfprintf_r+0x199c>
    1000:	000d8613          	mv	a2,s11
    1004:	00000593          	li	a1,0
    1008:	000b0513          	mv	a0,s6
    100c:	01912a23          	sw	s9,20(sp)
    1010:	51c060ef          	jal	ra,752c <memchr>
    1014:	00a12823          	sw	a0,16(sp)
    1018:	01412883          	lw	a7,20(sp)
    101c:	00051463          	bnez	a0,1024 <_vfprintf_r+0x9e8>
    1020:	2b50106f          	j	2ad4 <_vfprintf_r+0x2498>
    1024:	01012783          	lw	a5,16(sp)
    1028:	01212a23          	sw	s2,20(sp)
    102c:	00012823          	sw	zero,16(sp)
    1030:	41678cb3          	sub	s9,a5,s6
    1034:	0c714783          	lbu	a5,199(sp)
    1038:	fffcca93          	not	s5,s9
    103c:	41fada93          	srai	s5,s5,0x1f
    1040:	02012423          	sw	zero,40(sp)
    1044:	02012223          	sw	zero,36(sp)
    1048:	00012e23          	sw	zero,28(sp)
    104c:	015cfab3          	and	s5,s9,s5
    1050:	00000d93          	li	s11,0
    1054:	80078ce3          	beqz	a5,86c <_vfprintf_r+0x230>
    1058:	001a8a93          	addi	s5,s5,1
    105c:	811ff06f          	j	86c <_vfprintf_r+0x230>
    1060:	00044483          	lbu	s1,0(s0)
    1064:	004a6a13          	ori	s4,s4,4
    1068:	f84ff06f          	j	7ec <_vfprintf_r+0x1b0>
    106c:	01412683          	lw	a3,20(sp)
    1070:	020a7793          	andi	a5,s4,32
    1074:	000c8893          	mv	a7,s9
    1078:	0006a703          	lw	a4,0(a3)
    107c:	00468693          	addi	a3,a3,4
    1080:	00d12a23          	sw	a3,20(sp)
    1084:	240790e3          	bnez	a5,1ac4 <_vfprintf_r+0x1488>
    1088:	010a7793          	andi	a5,s4,16
    108c:	72079ee3          	bnez	a5,1fc8 <_vfprintf_r+0x198c>
    1090:	040a7793          	andi	a5,s4,64
    1094:	00078463          	beqz	a5,109c <_vfprintf_r+0xa60>
    1098:	33c0106f          	j	23d4 <_vfprintf_r+0x1d98>
    109c:	200a7a13          	andi	s4,s4,512
    10a0:	720a04e3          	beqz	s4,1fc8 <_vfprintf_r+0x198c>
    10a4:	00c12783          	lw	a5,12(sp)
    10a8:	00040b13          	mv	s6,s0
    10ac:	00f70023          	sb	a5,0(a4)
    10b0:	8d1ff06f          	j	980 <_vfprintf_r+0x344>
    10b4:	00044483          	lbu	s1,0(s0)
    10b8:	06c00793          	li	a5,108
    10bc:	3cf484e3          	beq	s1,a5,1c84 <_vfprintf_r+0x1648>
    10c0:	010a6a13          	ori	s4,s4,16
    10c4:	f28ff06f          	j	7ec <_vfprintf_r+0x1b0>
    10c8:	01412703          	lw	a4,20(sp)
    10cc:	03000793          	li	a5,48
    10d0:	0cf10423          	sb	a5,200(sp)
    10d4:	07800793          	li	a5,120
    10d8:	0cf104a3          	sb	a5,201(sp)
    10dc:	00470793          	addi	a5,a4,4
    10e0:	000c8893          	mv	a7,s9
    10e4:	00f12a23          	sw	a5,20(sp)
    10e8:	00072c83          	lw	s9,0(a4)
    10ec:	000147b7          	lui	a5,0x14
    10f0:	2b478793          	addi	a5,a5,692 # 142b4 <__clzsi2+0x9c>
    10f4:	02f12a23          	sw	a5,52(sp)
    10f8:	00000913          	li	s2,0
    10fc:	002a6b93          	ori	s7,s4,2
    1100:	00200793          	li	a5,2
    1104:	07800493          	li	s1,120
    1108:	0c0103a3          	sb	zero,199(sp)
    110c:	fff00693          	li	a3,-1
    1110:	20dd8663          	beq	s11,a3,131c <_vfprintf_r+0xce0>
    1114:	012ce6b3          	or	a3,s9,s2
    1118:	f7fbfa13          	andi	s4,s7,-129
    111c:	1e069e63          	bnez	a3,1318 <_vfprintf_r+0xcdc>
    1120:	260d9463          	bnez	s11,1388 <_vfprintf_r+0xd4c>
    1124:	1c079063          	bnez	a5,12e4 <_vfprintf_r+0xca8>
    1128:	001bfc93          	andi	s9,s7,1
    112c:	1b010b13          	addi	s6,sp,432
    1130:	180c92e3          	bnez	s9,1ab4 <_vfprintf_r+0x1478>
    1134:	0c714783          	lbu	a5,199(sp)
    1138:	000c8a93          	mv	s5,s9
    113c:	01bcd463          	bge	s9,s11,1144 <_vfprintf_r+0xb08>
    1140:	000d8a93          	mv	s5,s11
    1144:	00012823          	sw	zero,16(sp)
    1148:	02012423          	sw	zero,40(sp)
    114c:	02012223          	sw	zero,36(sp)
    1150:	00012e23          	sw	zero,28(sp)
    1154:	f00792e3          	bnez	a5,1058 <_vfprintf_r+0xa1c>
    1158:	f14ff06f          	j	86c <_vfprintf_r+0x230>
    115c:	00044483          	lbu	s1,0(s0)
    1160:	06800793          	li	a5,104
    1164:	30f488e3          	beq	s1,a5,1c74 <_vfprintf_r+0x1638>
    1168:	040a6a13          	ori	s4,s4,64
    116c:	e80ff06f          	j	7ec <_vfprintf_r+0x1b0>
    1170:	02b00793          	li	a5,43
    1174:	00044483          	lbu	s1,0(s0)
    1178:	0cf103a3          	sb	a5,199(sp)
    117c:	e70ff06f          	j	7ec <_vfprintf_r+0x1b0>
    1180:	00044483          	lbu	s1,0(s0)
    1184:	080a6a13          	ori	s4,s4,128
    1188:	e64ff06f          	j	7ec <_vfprintf_r+0x1b0>
    118c:	00044483          	lbu	s1,0(s0)
    1190:	00140713          	addi	a4,s0,1
    1194:	01749463          	bne	s1,s7,119c <_vfprintf_r+0xb60>
    1198:	6290106f          	j	2fc0 <_vfprintf_r+0x2984>
    119c:	fd048693          	addi	a3,s1,-48
    11a0:	00070413          	mv	s0,a4
    11a4:	00000d93          	li	s11,0
    11a8:	e4dae463          	bltu	s5,a3,7f0 <_vfprintf_r+0x1b4>
    11ac:	00044483          	lbu	s1,0(s0)
    11b0:	002d9793          	slli	a5,s11,0x2
    11b4:	01b787b3          	add	a5,a5,s11
    11b8:	00179793          	slli	a5,a5,0x1
    11bc:	00d78db3          	add	s11,a5,a3
    11c0:	fd048693          	addi	a3,s1,-48
    11c4:	00140413          	addi	s0,s0,1
    11c8:	fedaf2e3          	bgeu	s5,a3,11ac <_vfprintf_r+0xb70>
    11cc:	e24ff06f          	j	7f0 <_vfprintf_r+0x1b4>
    11d0:	01412783          	lw	a5,20(sp)
    11d4:	00044483          	lbu	s1,0(s0)
    11d8:	0007a983          	lw	s3,0(a5)
    11dc:	00478793          	addi	a5,a5,4
    11e0:	00f12a23          	sw	a5,20(sp)
    11e4:	e009d463          	bgez	s3,7ec <_vfprintf_r+0x1b0>
    11e8:	413009b3          	neg	s3,s3
    11ec:	004a6a13          	ori	s4,s4,4
    11f0:	dfcff06f          	j	7ec <_vfprintf_r+0x1b0>
    11f4:	00044483          	lbu	s1,0(s0)
    11f8:	001a6a13          	ori	s4,s4,1
    11fc:	df0ff06f          	j	7ec <_vfprintf_r+0x1b0>
    1200:	0c714783          	lbu	a5,199(sp)
    1204:	00044483          	lbu	s1,0(s0)
    1208:	de079263          	bnez	a5,7ec <_vfprintf_r+0x1b0>
    120c:	02000793          	li	a5,32
    1210:	0cf103a3          	sb	a5,199(sp)
    1214:	dd8ff06f          	j	7ec <_vfprintf_r+0x1b0>
    1218:	000c8893          	mv	a7,s9
    121c:	010a6a13          	ori	s4,s4,16
    1220:	020a7793          	andi	a5,s4,32
    1224:	7c078463          	beqz	a5,19ec <_vfprintf_r+0x13b0>
    1228:	01412783          	lw	a5,20(sp)
    122c:	00778b13          	addi	s6,a5,7
    1230:	ff8b7b13          	andi	s6,s6,-8
    1234:	000b2c83          	lw	s9,0(s6)
    1238:	004b2903          	lw	s2,4(s6)
    123c:	008b0793          	addi	a5,s6,8
    1240:	00f12a23          	sw	a5,20(sp)
    1244:	bffa7b93          	andi	s7,s4,-1025
    1248:	00000793          	li	a5,0
    124c:	ebdff06f          	j	1108 <_vfprintf_r+0xacc>
    1250:	000c8893          	mv	a7,s9
    1254:	010a6b93          	ori	s7,s4,16
    1258:	020bf793          	andi	a5,s7,32
    125c:	7a078e63          	beqz	a5,1a18 <_vfprintf_r+0x13dc>
    1260:	01412783          	lw	a5,20(sp)
    1264:	00778b13          	addi	s6,a5,7
    1268:	ff8b7b13          	andi	s6,s6,-8
    126c:	008b0793          	addi	a5,s6,8
    1270:	00f12a23          	sw	a5,20(sp)
    1274:	000b2c83          	lw	s9,0(s6)
    1278:	004b2903          	lw	s2,4(s6)
    127c:	00100793          	li	a5,1
    1280:	e89ff06f          	j	1108 <_vfprintf_r+0xacc>
    1284:	00044483          	lbu	s1,0(s0)
    1288:	008a6a13          	ori	s4,s4,8
    128c:	d60ff06f          	j	7ec <_vfprintf_r+0x1b0>
    1290:	000c8893          	mv	a7,s9
    1294:	010a6a13          	ori	s4,s4,16
    1298:	020a7793          	andi	a5,s4,32
    129c:	7a078663          	beqz	a5,1a48 <_vfprintf_r+0x140c>
    12a0:	01412783          	lw	a5,20(sp)
    12a4:	00778b13          	addi	s6,a5,7
    12a8:	ff8b7b13          	andi	s6,s6,-8
    12ac:	004b2783          	lw	a5,4(s6)
    12b0:	000b2c83          	lw	s9,0(s6)
    12b4:	008b0713          	addi	a4,s6,8
    12b8:	00e12a23          	sw	a4,20(sp)
    12bc:	00078913          	mv	s2,a5
    12c0:	7a07cc63          	bltz	a5,1a78 <_vfprintf_r+0x143c>
    12c4:	fff00793          	li	a5,-1
    12c8:	000a0b93          	mv	s7,s4
    12cc:	02fd8463          	beq	s11,a5,12f4 <_vfprintf_r+0xcb8>
    12d0:	012ce7b3          	or	a5,s9,s2
    12d4:	f7fa7b93          	andi	s7,s4,-129
    12d8:	00079e63          	bnez	a5,12f4 <_vfprintf_r+0xcb8>
    12dc:	020d9263          	bnez	s11,1300 <_vfprintf_r+0xcc4>
    12e0:	000b8a13          	mv	s4,s7
    12e4:	00000d93          	li	s11,0
    12e8:	00000c93          	li	s9,0
    12ec:	1b010b13          	addi	s6,sp,432
    12f0:	e45ff06f          	j	1134 <_vfprintf_r+0xaf8>
    12f4:	280918e3          	bnez	s2,1d84 <_vfprintf_r+0x1748>
    12f8:	00900793          	li	a5,9
    12fc:	2997e4e3          	bltu	a5,s9,1d84 <_vfprintf_r+0x1748>
    1300:	030c8c93          	addi	s9,s9,48
    1304:	1b9107a3          	sb	s9,431(sp)
    1308:	000b8a13          	mv	s4,s7
    130c:	00100c93          	li	s9,1
    1310:	1af10b13          	addi	s6,sp,431
    1314:	e21ff06f          	j	1134 <_vfprintf_r+0xaf8>
    1318:	000a0b93          	mv	s7,s4
    131c:	00100693          	li	a3,1
    1320:	fcd78ae3          	beq	a5,a3,12f4 <_vfprintf_r+0xcb8>
    1324:	00200693          	li	a3,2
    1328:	06d78c63          	beq	a5,a3,13a0 <_vfprintf_r+0xd64>
    132c:	1b010b13          	addi	s6,sp,432
    1330:	01d91713          	slli	a4,s2,0x1d
    1334:	007cf793          	andi	a5,s9,7
    1338:	003cdc93          	srli	s9,s9,0x3
    133c:	03078793          	addi	a5,a5,48
    1340:	01976cb3          	or	s9,a4,s9
    1344:	00395913          	srli	s2,s2,0x3
    1348:	fefb0fa3          	sb	a5,-1(s6)
    134c:	012ce733          	or	a4,s9,s2
    1350:	000b0613          	mv	a2,s6
    1354:	fffb0b13          	addi	s6,s6,-1
    1358:	fc071ce3          	bnez	a4,1330 <_vfprintf_r+0xcf4>
    135c:	001bf693          	andi	a3,s7,1
    1360:	06068a63          	beqz	a3,13d4 <_vfprintf_r+0xd98>
    1364:	03000693          	li	a3,48
    1368:	06d78663          	beq	a5,a3,13d4 <_vfprintf_r+0xd98>
    136c:	ffe60613          	addi	a2,a2,-2
    1370:	1b010793          	addi	a5,sp,432
    1374:	fedb0fa3          	sb	a3,-1(s6)
    1378:	40c78cb3          	sub	s9,a5,a2
    137c:	000b8a13          	mv	s4,s7
    1380:	00060b13          	mv	s6,a2
    1384:	db1ff06f          	j	1134 <_vfprintf_r+0xaf8>
    1388:	00100713          	li	a4,1
    138c:	00e79463          	bne	a5,a4,1394 <_vfprintf_r+0xd58>
    1390:	17d0106f          	j	2d0c <_vfprintf_r+0x26d0>
    1394:	00200713          	li	a4,2
    1398:	000a0b93          	mv	s7,s4
    139c:	f8e798e3          	bne	a5,a4,132c <_vfprintf_r+0xcf0>
    13a0:	03412683          	lw	a3,52(sp)
    13a4:	1b010b13          	addi	s6,sp,432
    13a8:	00fcf793          	andi	a5,s9,15
    13ac:	00f687b3          	add	a5,a3,a5
    13b0:	0007c703          	lbu	a4,0(a5)
    13b4:	004cdc93          	srli	s9,s9,0x4
    13b8:	01c91793          	slli	a5,s2,0x1c
    13bc:	0197ecb3          	or	s9,a5,s9
    13c0:	00495913          	srli	s2,s2,0x4
    13c4:	feeb0fa3          	sb	a4,-1(s6)
    13c8:	012ce7b3          	or	a5,s9,s2
    13cc:	fffb0b13          	addi	s6,s6,-1
    13d0:	fc079ce3          	bnez	a5,13a8 <_vfprintf_r+0xd6c>
    13d4:	1b010793          	addi	a5,sp,432
    13d8:	41678cb3          	sub	s9,a5,s6
    13dc:	000b8a13          	mv	s4,s7
    13e0:	d55ff06f          	j	1134 <_vfprintf_r+0xaf8>
    13e4:	06500713          	li	a4,101
    13e8:	9c9758e3          	bge	a4,s1,db8 <_vfprintf_r+0x77c>
    13ec:	0f012703          	lw	a4,240(sp)
    13f0:	0a010593          	addi	a1,sp,160
    13f4:	0b010513          	addi	a0,sp,176
    13f8:	0ae12823          	sw	a4,176(sp)
    13fc:	0f412703          	lw	a4,244(sp)
    1400:	05112223          	sw	a7,68(sp)
    1404:	04f12023          	sw	a5,64(sp)
    1408:	0ae12a23          	sw	a4,180(sp)
    140c:	0f812703          	lw	a4,248(sp)
    1410:	0a012023          	sw	zero,160(sp)
    1414:	0a012223          	sw	zero,164(sp)
    1418:	0ae12c23          	sw	a4,184(sp)
    141c:	0fc12703          	lw	a4,252(sp)
    1420:	0a012423          	sw	zero,168(sp)
    1424:	0a012623          	sw	zero,172(sp)
    1428:	0ae12e23          	sw	a4,188(sp)
    142c:	5f50f0ef          	jal	ra,11220 <__eqtf2>
    1430:	04012783          	lw	a5,64(sp)
    1434:	04412883          	lw	a7,68(sp)
    1438:	38051c63          	bnez	a0,17d0 <_vfprintf_r+0x1194>
    143c:	0e812703          	lw	a4,232(sp)
    1440:	000146b7          	lui	a3,0x14
    1444:	2e468693          	addi	a3,a3,740 # 142e4 <__clzsi2+0xcc>
    1448:	00d8a023          	sw	a3,0(a7)
    144c:	00178793          	addi	a5,a5,1
    1450:	00100693          	li	a3,1
    1454:	00170713          	addi	a4,a4,1
    1458:	00d8a223          	sw	a3,4(a7)
    145c:	0ef12623          	sw	a5,236(sp)
    1460:	0ee12423          	sw	a4,232(sp)
    1464:	00700693          	li	a3,7
    1468:	00888893          	addi	a7,a7,8
    146c:	28e6c8e3          	blt	a3,a4,1efc <_vfprintf_r+0x18c0>
    1470:	0cc12703          	lw	a4,204(sp)
    1474:	02012683          	lw	a3,32(sp)
    1478:	62d75263          	bge	a4,a3,1a9c <_vfprintf_r+0x1460>
    147c:	03012703          	lw	a4,48(sp)
    1480:	02c12683          	lw	a3,44(sp)
    1484:	00888893          	addi	a7,a7,8
    1488:	fee8ac23          	sw	a4,-8(a7)
    148c:	0e812703          	lw	a4,232(sp)
    1490:	00d787b3          	add	a5,a5,a3
    1494:	fed8ae23          	sw	a3,-4(a7)
    1498:	00170713          	addi	a4,a4,1
    149c:	0ef12623          	sw	a5,236(sp)
    14a0:	0ee12423          	sw	a4,232(sp)
    14a4:	00700693          	li	a3,7
    14a8:	7ae6c663          	blt	a3,a4,1c54 <_vfprintf_r+0x1618>
    14ac:	02012703          	lw	a4,32(sp)
    14b0:	fff70493          	addi	s1,a4,-1
    14b4:	c8905263          	blez	s1,938 <_vfprintf_r+0x2fc>
    14b8:	01000693          	li	a3,16
    14bc:	0e812703          	lw	a4,232(sp)
    14c0:	2496dee3          	bge	a3,s1,1f1c <_vfprintf_r+0x18e0>
    14c4:	01000913          	li	s2,16
    14c8:	00700c93          	li	s9,7
    14cc:	00c0006f          	j	14d8 <_vfprintf_r+0xe9c>
    14d0:	ff048493          	addi	s1,s1,-16
    14d4:	249954e3          	bge	s2,s1,1f1c <_vfprintf_r+0x18e0>
    14d8:	00812683          	lw	a3,8(sp)
    14dc:	01078793          	addi	a5,a5,16
    14e0:	00170713          	addi	a4,a4,1
    14e4:	00d8a023          	sw	a3,0(a7)
    14e8:	0128a223          	sw	s2,4(a7)
    14ec:	0ef12623          	sw	a5,236(sp)
    14f0:	0ee12423          	sw	a4,232(sp)
    14f4:	00888893          	addi	a7,a7,8
    14f8:	fcecdce3          	bge	s9,a4,14d0 <_vfprintf_r+0xe94>
    14fc:	0e410613          	addi	a2,sp,228
    1500:	000c0593          	mv	a1,s8
    1504:	000d0513          	mv	a0,s10
    1508:	3880a0ef          	jal	ra,b890 <__sprint_r>
    150c:	18051e63          	bnez	a0,16a8 <_vfprintf_r+0x106c>
    1510:	0ec12783          	lw	a5,236(sp)
    1514:	0e812703          	lw	a4,232(sp)
    1518:	10c10893          	addi	a7,sp,268
    151c:	fb5ff06f          	j	14d0 <_vfprintf_r+0xe94>
    1520:	41598933          	sub	s2,s3,s5
    1524:	bd205e63          	blez	s2,900 <_vfprintf_r+0x2c4>
    1528:	01000613          	li	a2,16
    152c:	0e812703          	lw	a4,232(sp)
    1530:	07265463          	bge	a2,s2,1598 <_vfprintf_r+0xf5c>
    1534:	01000e13          	li	t3,16
    1538:	00700b93          	li	s7,7
    153c:	00c0006f          	j	1548 <_vfprintf_r+0xf0c>
    1540:	ff090913          	addi	s2,s2,-16
    1544:	052e5a63          	bge	t3,s2,1598 <_vfprintf_r+0xf5c>
    1548:	00812683          	lw	a3,8(sp)
    154c:	01078793          	addi	a5,a5,16
    1550:	00170713          	addi	a4,a4,1
    1554:	00d8a023          	sw	a3,0(a7)
    1558:	01c8a223          	sw	t3,4(a7)
    155c:	0ef12623          	sw	a5,236(sp)
    1560:	0ee12423          	sw	a4,232(sp)
    1564:	00888893          	addi	a7,a7,8
    1568:	fcebdce3          	bge	s7,a4,1540 <_vfprintf_r+0xf04>
    156c:	0e410613          	addi	a2,sp,228
    1570:	000c0593          	mv	a1,s8
    1574:	000d0513          	mv	a0,s10
    1578:	3180a0ef          	jal	ra,b890 <__sprint_r>
    157c:	12051663          	bnez	a0,16a8 <_vfprintf_r+0x106c>
    1580:	01000e13          	li	t3,16
    1584:	ff090913          	addi	s2,s2,-16
    1588:	0ec12783          	lw	a5,236(sp)
    158c:	0e812703          	lw	a4,232(sp)
    1590:	10c10893          	addi	a7,sp,268
    1594:	fb2e4ae3          	blt	t3,s2,1548 <_vfprintf_r+0xf0c>
    1598:	00812683          	lw	a3,8(sp)
    159c:	012787b3          	add	a5,a5,s2
    15a0:	00170713          	addi	a4,a4,1
    15a4:	00d8a023          	sw	a3,0(a7)
    15a8:	0128a223          	sw	s2,4(a7)
    15ac:	0ef12623          	sw	a5,236(sp)
    15b0:	0ee12423          	sw	a4,232(sp)
    15b4:	00700693          	li	a3,7
    15b8:	00888893          	addi	a7,a7,8
    15bc:	b4e6d263          	bge	a3,a4,900 <_vfprintf_r+0x2c4>
    15c0:	0e410613          	addi	a2,sp,228
    15c4:	000c0593          	mv	a1,s8
    15c8:	000d0513          	mv	a0,s10
    15cc:	2c40a0ef          	jal	ra,b890 <__sprint_r>
    15d0:	0c051c63          	bnez	a0,16a8 <_vfprintf_r+0x106c>
    15d4:	0ec12783          	lw	a5,236(sp)
    15d8:	10c10893          	addi	a7,sp,268
    15dc:	b24ff06f          	j	900 <_vfprintf_r+0x2c4>
    15e0:	01000613          	li	a2,16
    15e4:	0e812703          	lw	a4,232(sp)
    15e8:	07b65263          	bge	a2,s11,164c <_vfprintf_r+0x1010>
    15ec:	01000b93          	li	s7,16
    15f0:	00700913          	li	s2,7
    15f4:	00c0006f          	j	1600 <_vfprintf_r+0xfc4>
    15f8:	ff0d8d93          	addi	s11,s11,-16
    15fc:	05bbd863          	bge	s7,s11,164c <_vfprintf_r+0x1010>
    1600:	00812683          	lw	a3,8(sp)
    1604:	01078793          	addi	a5,a5,16
    1608:	00170713          	addi	a4,a4,1
    160c:	00d8a023          	sw	a3,0(a7)
    1610:	0178a223          	sw	s7,4(a7)
    1614:	0ef12623          	sw	a5,236(sp)
    1618:	0ee12423          	sw	a4,232(sp)
    161c:	00888893          	addi	a7,a7,8
    1620:	fce95ce3          	bge	s2,a4,15f8 <_vfprintf_r+0xfbc>
    1624:	0e410613          	addi	a2,sp,228
    1628:	000c0593          	mv	a1,s8
    162c:	000d0513          	mv	a0,s10
    1630:	2600a0ef          	jal	ra,b890 <__sprint_r>
    1634:	06051a63          	bnez	a0,16a8 <_vfprintf_r+0x106c>
    1638:	ff0d8d93          	addi	s11,s11,-16
    163c:	0ec12783          	lw	a5,236(sp)
    1640:	0e812703          	lw	a4,232(sp)
    1644:	10c10893          	addi	a7,sp,268
    1648:	fbbbcce3          	blt	s7,s11,1600 <_vfprintf_r+0xfc4>
    164c:	00812683          	lw	a3,8(sp)
    1650:	01b787b3          	add	a5,a5,s11
    1654:	00170713          	addi	a4,a4,1
    1658:	00d8a023          	sw	a3,0(a7)
    165c:	01b8a223          	sw	s11,4(a7)
    1660:	0ef12623          	sw	a5,236(sp)
    1664:	0ee12423          	sw	a4,232(sp)
    1668:	00700693          	li	a3,7
    166c:	00888893          	addi	a7,a7,8
    1670:	a8e6dc63          	bge	a3,a4,908 <_vfprintf_r+0x2cc>
    1674:	0e410613          	addi	a2,sp,228
    1678:	000c0593          	mv	a1,s8
    167c:	000d0513          	mv	a0,s10
    1680:	2100a0ef          	jal	ra,b890 <__sprint_r>
    1684:	02051263          	bnez	a0,16a8 <_vfprintf_r+0x106c>
    1688:	0ec12783          	lw	a5,236(sp)
    168c:	10c10893          	addi	a7,sp,268
    1690:	a78ff06f          	j	908 <_vfprintf_r+0x2cc>
    1694:	0e410613          	addi	a2,sp,228
    1698:	000c0593          	mv	a1,s8
    169c:	000d0513          	mv	a0,s10
    16a0:	1f00a0ef          	jal	ra,b890 <__sprint_r>
    16a4:	aa050e63          	beqz	a0,960 <_vfprintf_r+0x324>
    16a8:	01012b83          	lw	s7,16(sp)
    16ac:	ae0b8463          	beqz	s7,994 <_vfprintf_r+0x358>
    16b0:	000b8593          	mv	a1,s7
    16b4:	000d0513          	mv	a0,s10
    16b8:	474020ef          	jal	ra,3b2c <_free_r>
    16bc:	ad8ff06f          	j	994 <_vfprintf_r+0x358>
    16c0:	01000613          	li	a2,16
    16c4:	0e812703          	lw	a4,232(sp)
    16c8:	00d64463          	blt	a2,a3,16d0 <_vfprintf_r+0x1094>
    16cc:	4340106f          	j	2b00 <_vfprintf_r+0x24c4>
    16d0:	00014637          	lui	a2,0x14
    16d4:	45460e93          	addi	t4,a2,1108 # 14454 <blanks.4485>
    16d8:	04812023          	sw	s0,64(sp)
    16dc:	04912223          	sw	s1,68(sp)
    16e0:	000d0413          	mv	s0,s10
    16e4:	000c0493          	mv	s1,s8
    16e8:	01000e13          	li	t3,16
    16ec:	00700293          	li	t0,7
    16f0:	00068c13          	mv	s8,a3
    16f4:	000e8d13          	mv	s10,t4
    16f8:	00c0006f          	j	1704 <_vfprintf_r+0x10c8>
    16fc:	ff0c0c13          	addi	s8,s8,-16
    1700:	058e5a63          	bge	t3,s8,1754 <_vfprintf_r+0x1118>
    1704:	01078793          	addi	a5,a5,16
    1708:	00170713          	addi	a4,a4,1
    170c:	01a8a023          	sw	s10,0(a7)
    1710:	01c8a223          	sw	t3,4(a7)
    1714:	0ef12623          	sw	a5,236(sp)
    1718:	0ee12423          	sw	a4,232(sp)
    171c:	00888893          	addi	a7,a7,8
    1720:	fce2dee3          	bge	t0,a4,16fc <_vfprintf_r+0x10c0>
    1724:	0e410613          	addi	a2,sp,228
    1728:	00048593          	mv	a1,s1
    172c:	00040513          	mv	a0,s0
    1730:	1600a0ef          	jal	ra,b890 <__sprint_r>
    1734:	78051e63          	bnez	a0,1ed0 <_vfprintf_r+0x1894>
    1738:	01000e13          	li	t3,16
    173c:	ff0c0c13          	addi	s8,s8,-16
    1740:	0ec12783          	lw	a5,236(sp)
    1744:	0e812703          	lw	a4,232(sp)
    1748:	10c10893          	addi	a7,sp,268
    174c:	00700293          	li	t0,7
    1750:	fb8e4ae3          	blt	t3,s8,1704 <_vfprintf_r+0x10c8>
    1754:	000c0693          	mv	a3,s8
    1758:	000d0e93          	mv	t4,s10
    175c:	00048c13          	mv	s8,s1
    1760:	00040d13          	mv	s10,s0
    1764:	04412483          	lw	s1,68(sp)
    1768:	04012403          	lw	s0,64(sp)
    176c:	00d787b3          	add	a5,a5,a3
    1770:	00170713          	addi	a4,a4,1
    1774:	00d8a223          	sw	a3,4(a7)
    1778:	01d8a023          	sw	t4,0(a7)
    177c:	0ef12623          	sw	a5,236(sp)
    1780:	0ee12423          	sw	a4,232(sp)
    1784:	00700693          	li	a3,7
    1788:	00888893          	addi	a7,a7,8
    178c:	90e6d063          	bge	a3,a4,88c <_vfprintf_r+0x250>
    1790:	0e410613          	addi	a2,sp,228
    1794:	000c0593          	mv	a1,s8
    1798:	000d0513          	mv	a0,s10
    179c:	0f40a0ef          	jal	ra,b890 <__sprint_r>
    17a0:	f00514e3          	bnez	a0,16a8 <_vfprintf_r+0x106c>
    17a4:	0ec12783          	lw	a5,236(sp)
    17a8:	10c10893          	addi	a7,sp,268
    17ac:	8e0ff06f          	j	88c <_vfprintf_r+0x250>
    17b0:	0e410613          	addi	a2,sp,228
    17b4:	000c0593          	mv	a1,s8
    17b8:	000d0513          	mv	a0,s10
    17bc:	0d40a0ef          	jal	ra,b890 <__sprint_r>
    17c0:	ee0514e3          	bnez	a0,16a8 <_vfprintf_r+0x106c>
    17c4:	0ec12783          	lw	a5,236(sp)
    17c8:	10c10893          	addi	a7,sp,268
    17cc:	92cff06f          	j	8f8 <_vfprintf_r+0x2bc>
    17d0:	0cc12603          	lw	a2,204(sp)
    17d4:	66c05e63          	blez	a2,1e50 <_vfprintf_r+0x1814>
    17d8:	01c12703          	lw	a4,28(sp)
    17dc:	02012683          	lw	a3,32(sp)
    17e0:	00070493          	mv	s1,a4
    17e4:	38e6c463          	blt	a3,a4,1b6c <_vfprintf_r+0x1530>
    17e8:	02905663          	blez	s1,1814 <_vfprintf_r+0x11d8>
    17ec:	0e812703          	lw	a4,232(sp)
    17f0:	009787b3          	add	a5,a5,s1
    17f4:	0168a023          	sw	s6,0(a7)
    17f8:	00170713          	addi	a4,a4,1
    17fc:	0098a223          	sw	s1,4(a7)
    1800:	0ef12623          	sw	a5,236(sp)
    1804:	0ee12423          	sw	a4,232(sp)
    1808:	00700693          	li	a3,7
    180c:	00888893          	addi	a7,a7,8
    1810:	36e6cee3          	blt	a3,a4,238c <_vfprintf_r+0x1d50>
    1814:	fff4c713          	not	a4,s1
    1818:	41f75713          	srai	a4,a4,0x1f
    181c:	00e4f4b3          	and	s1,s1,a4
    1820:	01c12703          	lw	a4,28(sp)
    1824:	409704b3          	sub	s1,a4,s1
    1828:	48904663          	bgtz	s1,1cb4 <_vfprintf_r+0x1678>
    182c:	01c12683          	lw	a3,28(sp)
    1830:	400a7713          	andi	a4,s4,1024
    1834:	00db0db3          	add	s11,s6,a3
    1838:	120714e3          	bnez	a4,2160 <_vfprintf_r+0x1b24>
    183c:	0cc12483          	lw	s1,204(sp)
    1840:	02012703          	lw	a4,32(sp)
    1844:	00e4c663          	blt	s1,a4,1850 <_vfprintf_r+0x1214>
    1848:	001a7713          	andi	a4,s4,1
    184c:	360704e3          	beqz	a4,23b4 <_vfprintf_r+0x1d78>
    1850:	03012703          	lw	a4,48(sp)
    1854:	02c12683          	lw	a3,44(sp)
    1858:	00700613          	li	a2,7
    185c:	00e8a023          	sw	a4,0(a7)
    1860:	0e812703          	lw	a4,232(sp)
    1864:	00d787b3          	add	a5,a5,a3
    1868:	00d8a223          	sw	a3,4(a7)
    186c:	00170713          	addi	a4,a4,1
    1870:	0ef12623          	sw	a5,236(sp)
    1874:	0ee12423          	sw	a4,232(sp)
    1878:	00888893          	addi	a7,a7,8
    187c:	00e65463          	bge	a2,a4,1884 <_vfprintf_r+0x1248>
    1880:	22c0106f          	j	2aac <_vfprintf_r+0x2470>
    1884:	02012683          	lw	a3,32(sp)
    1888:	00db0733          	add	a4,s6,a3
    188c:	409684b3          	sub	s1,a3,s1
    1890:	41b70733          	sub	a4,a4,s11
    1894:	00048913          	mv	s2,s1
    1898:	00975463          	bge	a4,s1,18a0 <_vfprintf_r+0x1264>
    189c:	00070913          	mv	s2,a4
    18a0:	03205863          	blez	s2,18d0 <_vfprintf_r+0x1294>
    18a4:	0e812703          	lw	a4,232(sp)
    18a8:	012787b3          	add	a5,a5,s2
    18ac:	01b8a023          	sw	s11,0(a7)
    18b0:	00170713          	addi	a4,a4,1
    18b4:	0128a223          	sw	s2,4(a7)
    18b8:	0ef12623          	sw	a5,236(sp)
    18bc:	0ee12423          	sw	a4,232(sp)
    18c0:	00700693          	li	a3,7
    18c4:	00888893          	addi	a7,a7,8
    18c8:	00e6d463          	bge	a3,a4,18d0 <_vfprintf_r+0x1294>
    18cc:	2b80106f          	j	2b84 <_vfprintf_r+0x2548>
    18d0:	fff94713          	not	a4,s2
    18d4:	41f75713          	srai	a4,a4,0x1f
    18d8:	00e97733          	and	a4,s2,a4
    18dc:	40e484b3          	sub	s1,s1,a4
    18e0:	00904463          	bgtz	s1,18e8 <_vfprintf_r+0x12ac>
    18e4:	854ff06f          	j	938 <_vfprintf_r+0x2fc>
    18e8:	01000693          	li	a3,16
    18ec:	0e812703          	lw	a4,232(sp)
    18f0:	6296d663          	bge	a3,s1,1f1c <_vfprintf_r+0x18e0>
    18f4:	01000913          	li	s2,16
    18f8:	00700c93          	li	s9,7
    18fc:	00c0006f          	j	1908 <_vfprintf_r+0x12cc>
    1900:	ff048493          	addi	s1,s1,-16
    1904:	60995c63          	bge	s2,s1,1f1c <_vfprintf_r+0x18e0>
    1908:	00812683          	lw	a3,8(sp)
    190c:	01078793          	addi	a5,a5,16
    1910:	00170713          	addi	a4,a4,1
    1914:	00d8a023          	sw	a3,0(a7)
    1918:	0128a223          	sw	s2,4(a7)
    191c:	0ef12623          	sw	a5,236(sp)
    1920:	0ee12423          	sw	a4,232(sp)
    1924:	00888893          	addi	a7,a7,8
    1928:	fcecdce3          	bge	s9,a4,1900 <_vfprintf_r+0x12c4>
    192c:	0e410613          	addi	a2,sp,228
    1930:	000c0593          	mv	a1,s8
    1934:	000d0513          	mv	a0,s10
    1938:	759090ef          	jal	ra,b890 <__sprint_r>
    193c:	d60516e3          	bnez	a0,16a8 <_vfprintf_r+0x106c>
    1940:	0ec12783          	lw	a5,236(sp)
    1944:	0e812703          	lw	a4,232(sp)
    1948:	10c10893          	addi	a7,sp,268
    194c:	fb5ff06f          	j	1900 <_vfprintf_r+0x12c4>
    1950:	001a7793          	andi	a5,s4,1
    1954:	c8079263          	bnez	a5,dd8 <_vfprintf_r+0x79c>
    1958:	00d8a223          	sw	a3,4(a7)
    195c:	0f912623          	sw	s9,236(sp)
    1960:	0e912423          	sw	s1,232(sp)
    1964:	00700793          	li	a5,7
    1968:	2297cc63          	blt	a5,s1,1ba0 <_vfprintf_r+0x1564>
    196c:	00270713          	addi	a4,a4,2
    1970:	01088893          	addi	a7,a7,16
    1974:	d34ff06f          	j	ea8 <_vfprintf_r+0x86c>
    1978:	d3b05863          	blez	s11,ea8 <_vfprintf_r+0x86c>
    197c:	01000613          	li	a2,16
    1980:	01b64463          	blt	a2,s11,1988 <_vfprintf_r+0x134c>
    1984:	6340106f          	j	2fb8 <_vfprintf_r+0x297c>
    1988:	01000713          	li	a4,16
    198c:	00700b13          	li	s6,7
    1990:	00068493          	mv	s1,a3
    1994:	0100006f          	j	19a4 <_vfprintf_r+0x1368>
    1998:	ff0d8d93          	addi	s11,s11,-16
    199c:	1db75e63          	bge	a4,s11,1b78 <_vfprintf_r+0x153c>
    19a0:	00148493          	addi	s1,s1,1
    19a4:	00812783          	lw	a5,8(sp)
    19a8:	010c8c93          	addi	s9,s9,16
    19ac:	00e92223          	sw	a4,4(s2)
    19b0:	00f92023          	sw	a5,0(s2)
    19b4:	0f912623          	sw	s9,236(sp)
    19b8:	0e912423          	sw	s1,232(sp)
    19bc:	00890913          	addi	s2,s2,8
    19c0:	fc9b5ce3          	bge	s6,s1,1998 <_vfprintf_r+0x135c>
    19c4:	0e410613          	addi	a2,sp,228
    19c8:	000c0593          	mv	a1,s8
    19cc:	000d0513          	mv	a0,s10
    19d0:	6c1090ef          	jal	ra,b890 <__sprint_r>
    19d4:	cc051ae3          	bnez	a0,16a8 <_vfprintf_r+0x106c>
    19d8:	0ec12c83          	lw	s9,236(sp)
    19dc:	0e812483          	lw	s1,232(sp)
    19e0:	10c10913          	addi	s2,sp,268
    19e4:	01000713          	li	a4,16
    19e8:	fb1ff06f          	j	1998 <_vfprintf_r+0x135c>
    19ec:	01412683          	lw	a3,20(sp)
    19f0:	010a7793          	andi	a5,s4,16
    19f4:	00468713          	addi	a4,a3,4
    19f8:	14079863          	bnez	a5,1b48 <_vfprintf_r+0x150c>
    19fc:	040a7793          	andi	a5,s4,64
    1a00:	68078063          	beqz	a5,2080 <_vfprintf_r+0x1a44>
    1a04:	01412783          	lw	a5,20(sp)
    1a08:	00000913          	li	s2,0
    1a0c:	00e12a23          	sw	a4,20(sp)
    1a10:	0007dc83          	lhu	s9,0(a5)
    1a14:	831ff06f          	j	1244 <_vfprintf_r+0xc08>
    1a18:	01412703          	lw	a4,20(sp)
    1a1c:	010bf793          	andi	a5,s7,16
    1a20:	00470693          	addi	a3,a4,4
    1a24:	0c079e63          	bnez	a5,1b00 <_vfprintf_r+0x14c4>
    1a28:	040bf793          	andi	a5,s7,64
    1a2c:	6a078663          	beqz	a5,20d8 <_vfprintf_r+0x1a9c>
    1a30:	01412783          	lw	a5,20(sp)
    1a34:	00000913          	li	s2,0
    1a38:	00d12a23          	sw	a3,20(sp)
    1a3c:	0007dc83          	lhu	s9,0(a5)
    1a40:	00100793          	li	a5,1
    1a44:	ec4ff06f          	j	1108 <_vfprintf_r+0xacc>
    1a48:	01412683          	lw	a3,20(sp)
    1a4c:	010a7793          	andi	a5,s4,16
    1a50:	00468713          	addi	a4,a3,4
    1a54:	10079263          	bnez	a5,1b58 <_vfprintf_r+0x151c>
    1a58:	040a7793          	andi	a5,s4,64
    1a5c:	64078e63          	beqz	a5,20b8 <_vfprintf_r+0x1a7c>
    1a60:	01412783          	lw	a5,20(sp)
    1a64:	00e12a23          	sw	a4,20(sp)
    1a68:	00079c83          	lh	s9,0(a5)
    1a6c:	41fcd913          	srai	s2,s9,0x1f
    1a70:	00090793          	mv	a5,s2
    1a74:	8407d8e3          	bgez	a5,12c4 <_vfprintf_r+0xc88>
    1a78:	019037b3          	snez	a5,s9
    1a7c:	41200933          	neg	s2,s2
    1a80:	40f90933          	sub	s2,s2,a5
    1a84:	02d00793          	li	a5,45
    1a88:	0cf103a3          	sb	a5,199(sp)
    1a8c:	41900cb3          	neg	s9,s9
    1a90:	000a0b93          	mv	s7,s4
    1a94:	00100793          	li	a5,1
    1a98:	e74ff06f          	j	110c <_vfprintf_r+0xad0>
    1a9c:	001a7713          	andi	a4,s4,1
    1aa0:	00071463          	bnez	a4,1aa8 <_vfprintf_r+0x146c>
    1aa4:	e95fe06f          	j	938 <_vfprintf_r+0x2fc>
    1aa8:	9d5ff06f          	j	147c <_vfprintf_r+0xe40>
    1aac:	000c8893          	mv	a7,s9
    1ab0:	fe8ff06f          	j	1298 <_vfprintf_r+0xc5c>
    1ab4:	03000793          	li	a5,48
    1ab8:	1af107a3          	sb	a5,431(sp)
    1abc:	1af10b13          	addi	s6,sp,431
    1ac0:	e74ff06f          	j	1134 <_vfprintf_r+0xaf8>
    1ac4:	00c12683          	lw	a3,12(sp)
    1ac8:	00040b13          	mv	s6,s0
    1acc:	41f6d793          	srai	a5,a3,0x1f
    1ad0:	00d72023          	sw	a3,0(a4)
    1ad4:	00f72223          	sw	a5,4(a4)
    1ad8:	ea9fe06f          	j	980 <_vfprintf_r+0x344>
    1adc:	03c12783          	lw	a5,60(sp)
    1ae0:	00044483          	lbu	s1,0(s0)
    1ae4:	00079463          	bnez	a5,1aec <_vfprintf_r+0x14b0>
    1ae8:	d05fe06f          	j	7ec <_vfprintf_r+0x1b0>
    1aec:	0007c783          	lbu	a5,0(a5)
    1af0:	00079463          	bnez	a5,1af8 <_vfprintf_r+0x14bc>
    1af4:	cf9fe06f          	j	7ec <_vfprintf_r+0x1b0>
    1af8:	400a6a13          	ori	s4,s4,1024
    1afc:	cf1fe06f          	j	7ec <_vfprintf_r+0x1b0>
    1b00:	00072c83          	lw	s9,0(a4)
    1b04:	00000913          	li	s2,0
    1b08:	00d12a23          	sw	a3,20(sp)
    1b0c:	00100793          	li	a5,1
    1b10:	df8ff06f          	j	1108 <_vfprintf_r+0xacc>
    1b14:	01412703          	lw	a4,20(sp)
    1b18:	00072783          	lw	a5,0(a4)
    1b1c:	00470713          	addi	a4,a4,4
    1b20:	00e12a23          	sw	a4,20(sp)
    1b24:	0007a603          	lw	a2,0(a5)
    1b28:	0047a683          	lw	a3,4(a5)
    1b2c:	0087a703          	lw	a4,8(a5)
    1b30:	00c7a783          	lw	a5,12(a5)
    1b34:	0ec12823          	sw	a2,240(sp)
    1b38:	0ed12a23          	sw	a3,244(sp)
    1b3c:	0ee12c23          	sw	a4,248(sp)
    1b40:	0ef12e23          	sw	a5,252(sp)
    1b44:	fc1fe06f          	j	b04 <_vfprintf_r+0x4c8>
    1b48:	0006ac83          	lw	s9,0(a3)
    1b4c:	00000913          	li	s2,0
    1b50:	00e12a23          	sw	a4,20(sp)
    1b54:	ef0ff06f          	j	1244 <_vfprintf_r+0xc08>
    1b58:	0006ac83          	lw	s9,0(a3)
    1b5c:	00e12a23          	sw	a4,20(sp)
    1b60:	41fcd913          	srai	s2,s9,0x1f
    1b64:	00090793          	mv	a5,s2
    1b68:	f58ff06f          	j	12c0 <_vfprintf_r+0xc84>
    1b6c:	00068493          	mv	s1,a3
    1b70:	c6904ee3          	bgtz	s1,17ec <_vfprintf_r+0x11b0>
    1b74:	ca1ff06f          	j	1814 <_vfprintf_r+0x11d8>
    1b78:	00148713          	addi	a4,s1,1
    1b7c:	00890693          	addi	a3,s2,8
    1b80:	00812783          	lw	a5,8(sp)
    1b84:	01bc8cb3          	add	s9,s9,s11
    1b88:	01b92223          	sw	s11,4(s2)
    1b8c:	00f92023          	sw	a5,0(s2)
    1b90:	0f912623          	sw	s9,236(sp)
    1b94:	0ee12423          	sw	a4,232(sp)
    1b98:	00700793          	li	a5,7
    1b9c:	7ae7d863          	bge	a5,a4,234c <_vfprintf_r+0x1d10>
    1ba0:	0e410613          	addi	a2,sp,228
    1ba4:	000c0593          	mv	a1,s8
    1ba8:	000d0513          	mv	a0,s10
    1bac:	4e5090ef          	jal	ra,b890 <__sprint_r>
    1bb0:	ae051ce3          	bnez	a0,16a8 <_vfprintf_r+0x106c>
    1bb4:	0e812703          	lw	a4,232(sp)
    1bb8:	0ec12c83          	lw	s9,236(sp)
    1bbc:	11410893          	addi	a7,sp,276
    1bc0:	00170713          	addi	a4,a4,1
    1bc4:	10c10913          	addi	s2,sp,268
    1bc8:	ae0ff06f          	j	ea8 <_vfprintf_r+0x86c>
    1bcc:	000c8893          	mv	a7,s9
    1bd0:	000a0b93          	mv	s7,s4
    1bd4:	e84ff06f          	j	1258 <_vfprintf_r+0xc1c>
    1bd8:	000147b7          	lui	a5,0x14
    1bdc:	2b478793          	addi	a5,a5,692 # 142b4 <__clzsi2+0x9c>
    1be0:	000c8893          	mv	a7,s9
    1be4:	02f12a23          	sw	a5,52(sp)
    1be8:	020a7793          	andi	a5,s4,32
    1bec:	12078863          	beqz	a5,1d1c <_vfprintf_r+0x16e0>
    1bf0:	01412783          	lw	a5,20(sp)
    1bf4:	00778b13          	addi	s6,a5,7
    1bf8:	ff8b7b13          	andi	s6,s6,-8
    1bfc:	000b2c83          	lw	s9,0(s6)
    1c00:	004b2903          	lw	s2,4(s6)
    1c04:	008b0793          	addi	a5,s6,8
    1c08:	00f12a23          	sw	a5,20(sp)
    1c0c:	001a7793          	andi	a5,s4,1
    1c10:	00078e63          	beqz	a5,1c2c <_vfprintf_r+0x15f0>
    1c14:	012ce7b3          	or	a5,s9,s2
    1c18:	00078a63          	beqz	a5,1c2c <_vfprintf_r+0x15f0>
    1c1c:	03000793          	li	a5,48
    1c20:	0cf10423          	sb	a5,200(sp)
    1c24:	0c9104a3          	sb	s1,201(sp)
    1c28:	002a6a13          	ori	s4,s4,2
    1c2c:	bffa7b93          	andi	s7,s4,-1025
    1c30:	00200793          	li	a5,2
    1c34:	cd4ff06f          	j	1108 <_vfprintf_r+0xacc>
    1c38:	000c8893          	mv	a7,s9
    1c3c:	de4ff06f          	j	1220 <_vfprintf_r+0xbe4>
    1c40:	000147b7          	lui	a5,0x14
    1c44:	2c878793          	addi	a5,a5,712 # 142c8 <__clzsi2+0xb0>
    1c48:	000c8893          	mv	a7,s9
    1c4c:	02f12a23          	sw	a5,52(sp)
    1c50:	f99ff06f          	j	1be8 <_vfprintf_r+0x15ac>
    1c54:	0e410613          	addi	a2,sp,228
    1c58:	000c0593          	mv	a1,s8
    1c5c:	000d0513          	mv	a0,s10
    1c60:	431090ef          	jal	ra,b890 <__sprint_r>
    1c64:	a40512e3          	bnez	a0,16a8 <_vfprintf_r+0x106c>
    1c68:	0ec12783          	lw	a5,236(sp)
    1c6c:	10c10893          	addi	a7,sp,268
    1c70:	83dff06f          	j	14ac <_vfprintf_r+0xe70>
    1c74:	00144483          	lbu	s1,1(s0)
    1c78:	200a6a13          	ori	s4,s4,512
    1c7c:	00140413          	addi	s0,s0,1
    1c80:	b6dfe06f          	j	7ec <_vfprintf_r+0x1b0>
    1c84:	00144483          	lbu	s1,1(s0)
    1c88:	020a6a13          	ori	s4,s4,32
    1c8c:	00140413          	addi	s0,s0,1
    1c90:	b5dfe06f          	j	7ec <_vfprintf_r+0x1b0>
    1c94:	00600793          	li	a5,6
    1c98:	000d8c93          	mv	s9,s11
    1c9c:	71b7e863          	bltu	a5,s11,23ac <_vfprintf_r+0x1d70>
    1ca0:	00014837          	lui	a6,0x14
    1ca4:	000c8a93          	mv	s5,s9
    1ca8:	01212a23          	sw	s2,20(sp)
    1cac:	2dc80b13          	addi	s6,a6,732 # 142dc <__clzsi2+0xc4>
    1cb0:	ba9fe06f          	j	858 <_vfprintf_r+0x21c>
    1cb4:	01000693          	li	a3,16
    1cb8:	0e812703          	lw	a4,232(sp)
    1cbc:	4496de63          	bge	a3,s1,2118 <_vfprintf_r+0x1adc>
    1cc0:	01000c93          	li	s9,16
    1cc4:	00700d93          	li	s11,7
    1cc8:	00c0006f          	j	1cd4 <_vfprintf_r+0x1698>
    1ccc:	ff048493          	addi	s1,s1,-16
    1cd0:	449cd463          	bge	s9,s1,2118 <_vfprintf_r+0x1adc>
    1cd4:	00812683          	lw	a3,8(sp)
    1cd8:	01078793          	addi	a5,a5,16
    1cdc:	00170713          	addi	a4,a4,1
    1ce0:	00d8a023          	sw	a3,0(a7)
    1ce4:	0198a223          	sw	s9,4(a7)
    1ce8:	0ef12623          	sw	a5,236(sp)
    1cec:	0ee12423          	sw	a4,232(sp)
    1cf0:	00888893          	addi	a7,a7,8
    1cf4:	fceddce3          	bge	s11,a4,1ccc <_vfprintf_r+0x1690>
    1cf8:	0e410613          	addi	a2,sp,228
    1cfc:	000c0593          	mv	a1,s8
    1d00:	000d0513          	mv	a0,s10
    1d04:	38d090ef          	jal	ra,b890 <__sprint_r>
    1d08:	9a0510e3          	bnez	a0,16a8 <_vfprintf_r+0x106c>
    1d0c:	0ec12783          	lw	a5,236(sp)
    1d10:	0e812703          	lw	a4,232(sp)
    1d14:	10c10893          	addi	a7,sp,268
    1d18:	fb5ff06f          	j	1ccc <_vfprintf_r+0x1690>
    1d1c:	01412683          	lw	a3,20(sp)
    1d20:	010a7793          	andi	a5,s4,16
    1d24:	00468713          	addi	a4,a3,4
    1d28:	1a078c63          	beqz	a5,1ee0 <_vfprintf_r+0x18a4>
    1d2c:	0006ac83          	lw	s9,0(a3)
    1d30:	00000913          	li	s2,0
    1d34:	00e12a23          	sw	a4,20(sp)
    1d38:	ed5ff06f          	j	1c0c <_vfprintf_r+0x15d0>
    1d3c:	0e410613          	addi	a2,sp,228
    1d40:	000c0593          	mv	a1,s8
    1d44:	000d0513          	mv	a0,s10
    1d48:	349090ef          	jal	ra,b890 <__sprint_r>
    1d4c:	94051ee3          	bnez	a0,16a8 <_vfprintf_r+0x106c>
    1d50:	0ec12c83          	lw	s9,236(sp)
    1d54:	0e812483          	lw	s1,232(sp)
    1d58:	10c10913          	addi	s2,sp,268
    1d5c:	894ff06f          	j	df0 <_vfprintf_r+0x7b4>
    1d60:	0e410613          	addi	a2,sp,228
    1d64:	000c0593          	mv	a1,s8
    1d68:	000d0513          	mv	a0,s10
    1d6c:	325090ef          	jal	ra,b890 <__sprint_r>
    1d70:	92051ce3          	bnez	a0,16a8 <_vfprintf_r+0x106c>
    1d74:	0ec12c83          	lw	s9,236(sp)
    1d78:	0e812483          	lw	s1,232(sp)
    1d7c:	10c10913          	addi	s2,sp,268
    1d80:	89cff06f          	j	e1c <_vfprintf_r+0x7e0>
    1d84:	1b010b13          	addi	s6,sp,432
    1d88:	00000793          	li	a5,0
    1d8c:	00812823          	sw	s0,16(sp)
    1d90:	00912e23          	sw	s1,28(sp)
    1d94:	000b0413          	mv	s0,s6
    1d98:	03312223          	sw	s3,36(sp)
    1d9c:	000c0b13          	mv	s6,s8
    1da0:	000c8493          	mv	s1,s9
    1da4:	00090993          	mv	s3,s2
    1da8:	03c12c83          	lw	s9,60(sp)
    1dac:	400bfa13          	andi	s4,s7,1024
    1db0:	0ff00a93          	li	s5,255
    1db4:	00088c13          	mv	s8,a7
    1db8:	00078913          	mv	s2,a5
    1dbc:	0240006f          	j	1de0 <_vfprintf_r+0x17a4>
    1dc0:	00a00613          	li	a2,10
    1dc4:	00000693          	li	a3,0
    1dc8:	00048513          	mv	a0,s1
    1dcc:	00098593          	mv	a1,s3
    1dd0:	7690d0ef          	jal	ra,fd38 <__udivdi3>
    1dd4:	32098ee3          	beqz	s3,2910 <_vfprintf_r+0x22d4>
    1dd8:	00050493          	mv	s1,a0
    1ddc:	00058993          	mv	s3,a1
    1de0:	00a00613          	li	a2,10
    1de4:	00000693          	li	a3,0
    1de8:	00048513          	mv	a0,s1
    1dec:	00098593          	mv	a1,s3
    1df0:	37c0e0ef          	jal	ra,1016c <__umoddi3>
    1df4:	03050513          	addi	a0,a0,48
    1df8:	fea40fa3          	sb	a0,-1(s0)
    1dfc:	00190913          	addi	s2,s2,1
    1e00:	fff40413          	addi	s0,s0,-1
    1e04:	fa0a0ee3          	beqz	s4,1dc0 <_vfprintf_r+0x1784>
    1e08:	000cc683          	lbu	a3,0(s9)
    1e0c:	fad91ae3          	bne	s2,a3,1dc0 <_vfprintf_r+0x1784>
    1e10:	fb5908e3          	beq	s2,s5,1dc0 <_vfprintf_r+0x1784>
    1e14:	4e099c63          	bnez	s3,230c <_vfprintf_r+0x1cd0>
    1e18:	00900793          	li	a5,9
    1e1c:	4e97e863          	bltu	a5,s1,230c <_vfprintf_r+0x1cd0>
    1e20:	000c0893          	mv	a7,s8
    1e24:	1b010793          	addi	a5,sp,432
    1e28:	000b0c13          	mv	s8,s6
    1e2c:	00040b13          	mv	s6,s0
    1e30:	03912e23          	sw	s9,60(sp)
    1e34:	01c12483          	lw	s1,28(sp)
    1e38:	02412983          	lw	s3,36(sp)
    1e3c:	01012403          	lw	s0,16(sp)
    1e40:	03212023          	sw	s2,32(sp)
    1e44:	41678cb3          	sub	s9,a5,s6
    1e48:	000b8a13          	mv	s4,s7
    1e4c:	ae8ff06f          	j	1134 <_vfprintf_r+0xaf8>
    1e50:	0e812703          	lw	a4,232(sp)
    1e54:	000146b7          	lui	a3,0x14
    1e58:	2e468693          	addi	a3,a3,740 # 142e4 <__clzsi2+0xcc>
    1e5c:	00d8a023          	sw	a3,0(a7)
    1e60:	00178793          	addi	a5,a5,1
    1e64:	00100693          	li	a3,1
    1e68:	00170713          	addi	a4,a4,1
    1e6c:	00d8a223          	sw	a3,4(a7)
    1e70:	0ef12623          	sw	a5,236(sp)
    1e74:	0ee12423          	sw	a4,232(sp)
    1e78:	00700693          	li	a3,7
    1e7c:	00888893          	addi	a7,a7,8
    1e80:	4ce6ce63          	blt	a3,a4,235c <_vfprintf_r+0x1d20>
    1e84:	18061e63          	bnez	a2,2020 <_vfprintf_r+0x19e4>
    1e88:	02012683          	lw	a3,32(sp)
    1e8c:	001a7713          	andi	a4,s4,1
    1e90:	00d76733          	or	a4,a4,a3
    1e94:	00071463          	bnez	a4,1e9c <_vfprintf_r+0x1860>
    1e98:	aa1fe06f          	j	938 <_vfprintf_r+0x2fc>
    1e9c:	03012703          	lw	a4,48(sp)
    1ea0:	02c12683          	lw	a3,44(sp)
    1ea4:	00e8a023          	sw	a4,0(a7)
    1ea8:	0e812703          	lw	a4,232(sp)
    1eac:	00f687b3          	add	a5,a3,a5
    1eb0:	00d8a223          	sw	a3,4(a7)
    1eb4:	00170713          	addi	a4,a4,1
    1eb8:	0ef12623          	sw	a5,236(sp)
    1ebc:	0ee12423          	sw	a4,232(sp)
    1ec0:	00700693          	li	a3,7
    1ec4:	58e6cc63          	blt	a3,a4,245c <_vfprintf_r+0x1e20>
    1ec8:	00888893          	addi	a7,a7,8
    1ecc:	1880006f          	j	2054 <_vfprintf_r+0x1a18>
    1ed0:	01012b83          	lw	s7,16(sp)
    1ed4:	00040d13          	mv	s10,s0
    1ed8:	00048c13          	mv	s8,s1
    1edc:	fd0ff06f          	j	16ac <_vfprintf_r+0x1070>
    1ee0:	040a7793          	andi	a5,s4,64
    1ee4:	1a078c63          	beqz	a5,209c <_vfprintf_r+0x1a60>
    1ee8:	01412783          	lw	a5,20(sp)
    1eec:	00000913          	li	s2,0
    1ef0:	00e12a23          	sw	a4,20(sp)
    1ef4:	0007dc83          	lhu	s9,0(a5)
    1ef8:	d15ff06f          	j	1c0c <_vfprintf_r+0x15d0>
    1efc:	0e410613          	addi	a2,sp,228
    1f00:	000c0593          	mv	a1,s8
    1f04:	000d0513          	mv	a0,s10
    1f08:	189090ef          	jal	ra,b890 <__sprint_r>
    1f0c:	f8051e63          	bnez	a0,16a8 <_vfprintf_r+0x106c>
    1f10:	0ec12783          	lw	a5,236(sp)
    1f14:	10c10893          	addi	a7,sp,268
    1f18:	d58ff06f          	j	1470 <_vfprintf_r+0xe34>
    1f1c:	00812683          	lw	a3,8(sp)
    1f20:	009787b3          	add	a5,a5,s1
    1f24:	0098a223          	sw	s1,4(a7)
    1f28:	00d8a023          	sw	a3,0(a7)
    1f2c:	00170713          	addi	a4,a4,1
    1f30:	0ef12623          	sw	a5,236(sp)
    1f34:	0ee12423          	sw	a4,232(sp)
    1f38:	00700693          	li	a3,7
    1f3c:	00e6c463          	blt	a3,a4,1f44 <_vfprintf_r+0x1908>
    1f40:	9f5fe06f          	j	934 <_vfprintf_r+0x2f8>
    1f44:	f89fe06f          	j	ecc <_vfprintf_r+0x890>
    1f48:	0f012783          	lw	a5,240(sp)
    1f4c:	0a010593          	addi	a1,sp,160
    1f50:	0b010513          	addi	a0,sp,176
    1f54:	0af12823          	sw	a5,176(sp)
    1f58:	0f412783          	lw	a5,244(sp)
    1f5c:	0a012023          	sw	zero,160(sp)
    1f60:	0a012223          	sw	zero,164(sp)
    1f64:	0af12a23          	sw	a5,180(sp)
    1f68:	0f812783          	lw	a5,248(sp)
    1f6c:	0a012423          	sw	zero,168(sp)
    1f70:	0a012623          	sw	zero,172(sp)
    1f74:	0af12c23          	sw	a5,184(sp)
    1f78:	0fc12783          	lw	a5,252(sp)
    1f7c:	0af12e23          	sw	a5,188(sp)
    1f80:	4b00f0ef          	jal	ra,11430 <__letf2>
    1f84:	01012883          	lw	a7,16(sp)
    1f88:	30054ce3          	bltz	a0,2aa0 <_vfprintf_r+0x2464>
    1f8c:	0c714783          	lbu	a5,199(sp)
    1f90:	04700713          	li	a4,71
    1f94:	3e975663          	bge	a4,s1,2380 <_vfprintf_r+0x1d44>
    1f98:	00014837          	lui	a6,0x14
    1f9c:	2a880b13          	addi	s6,a6,680 # 142a8 <__clzsi2+0x90>
    1fa0:	00012823          	sw	zero,16(sp)
    1fa4:	02012423          	sw	zero,40(sp)
    1fa8:	02012223          	sw	zero,36(sp)
    1fac:	00012e23          	sw	zero,28(sp)
    1fb0:	f7fa7a13          	andi	s4,s4,-129
    1fb4:	00300a93          	li	s5,3
    1fb8:	00300c93          	li	s9,3
    1fbc:	00000d93          	li	s11,0
    1fc0:	88079c63          	bnez	a5,1058 <_vfprintf_r+0xa1c>
    1fc4:	8a9fe06f          	j	86c <_vfprintf_r+0x230>
    1fc8:	00c12783          	lw	a5,12(sp)
    1fcc:	00040b13          	mv	s6,s0
    1fd0:	00f72023          	sw	a5,0(a4)
    1fd4:	9adfe06f          	j	980 <_vfprintf_r+0x344>
    1fd8:	000b0513          	mv	a0,s6
    1fdc:	05912023          	sw	s9,64(sp)
    1fe0:	511060ef          	jal	ra,8cf0 <strlen>
    1fe4:	0c714783          	lbu	a5,199(sp)
    1fe8:	fff54a93          	not	s5,a0
    1fec:	41fada93          	srai	s5,s5,0x1f
    1ff0:	01212a23          	sw	s2,20(sp)
    1ff4:	00012823          	sw	zero,16(sp)
    1ff8:	02012423          	sw	zero,40(sp)
    1ffc:	02012223          	sw	zero,36(sp)
    2000:	00012e23          	sw	zero,28(sp)
    2004:	04012883          	lw	a7,64(sp)
    2008:	00050c93          	mv	s9,a0
    200c:	01557ab3          	and	s5,a0,s5
    2010:	00000d93          	li	s11,0
    2014:	00078463          	beqz	a5,201c <_vfprintf_r+0x19e0>
    2018:	840ff06f          	j	1058 <_vfprintf_r+0xa1c>
    201c:	851fe06f          	j	86c <_vfprintf_r+0x230>
    2020:	03012703          	lw	a4,48(sp)
    2024:	02c12683          	lw	a3,44(sp)
    2028:	00888893          	addi	a7,a7,8
    202c:	fee8ac23          	sw	a4,-8(a7)
    2030:	0e812703          	lw	a4,232(sp)
    2034:	00f687b3          	add	a5,a3,a5
    2038:	fed8ae23          	sw	a3,-4(a7)
    203c:	00170713          	addi	a4,a4,1
    2040:	0ef12623          	sw	a5,236(sp)
    2044:	0ee12423          	sw	a4,232(sp)
    2048:	00700693          	li	a3,7
    204c:	40e6c863          	blt	a3,a4,245c <_vfprintf_r+0x1e20>
    2050:	360648e3          	bltz	a2,2bc0 <_vfprintf_r+0x2584>
    2054:	02012683          	lw	a3,32(sp)
    2058:	00170713          	addi	a4,a4,1
    205c:	0168a023          	sw	s6,0(a7)
    2060:	00f687b3          	add	a5,a3,a5
    2064:	00d8a223          	sw	a3,4(a7)
    2068:	0ef12623          	sw	a5,236(sp)
    206c:	0ee12423          	sw	a4,232(sp)
    2070:	00700693          	li	a3,7
    2074:	00e6c463          	blt	a3,a4,207c <_vfprintf_r+0x1a40>
    2078:	8bdfe06f          	j	934 <_vfprintf_r+0x2f8>
    207c:	e51fe06f          	j	ecc <_vfprintf_r+0x890>
    2080:	200a7793          	andi	a5,s4,512
    2084:	3a078263          	beqz	a5,2428 <_vfprintf_r+0x1dec>
    2088:	01412783          	lw	a5,20(sp)
    208c:	00000913          	li	s2,0
    2090:	00e12a23          	sw	a4,20(sp)
    2094:	0007cc83          	lbu	s9,0(a5)
    2098:	9acff06f          	j	1244 <_vfprintf_r+0xc08>
    209c:	200a7793          	andi	a5,s4,512
    20a0:	36078a63          	beqz	a5,2414 <_vfprintf_r+0x1dd8>
    20a4:	01412783          	lw	a5,20(sp)
    20a8:	00000913          	li	s2,0
    20ac:	00e12a23          	sw	a4,20(sp)
    20b0:	0007cc83          	lbu	s9,0(a5)
    20b4:	b59ff06f          	j	1c0c <_vfprintf_r+0x15d0>
    20b8:	200a7793          	andi	a5,s4,512
    20bc:	34078063          	beqz	a5,23fc <_vfprintf_r+0x1dc0>
    20c0:	01412783          	lw	a5,20(sp)
    20c4:	00e12a23          	sw	a4,20(sp)
    20c8:	00078c83          	lb	s9,0(a5)
    20cc:	41fcd913          	srai	s2,s9,0x1f
    20d0:	00090793          	mv	a5,s2
    20d4:	9ecff06f          	j	12c0 <_vfprintf_r+0xc84>
    20d8:	200bf793          	andi	a5,s7,512
    20dc:	30078463          	beqz	a5,23e4 <_vfprintf_r+0x1da8>
    20e0:	01412783          	lw	a5,20(sp)
    20e4:	00000913          	li	s2,0
    20e8:	00d12a23          	sw	a3,20(sp)
    20ec:	0007cc83          	lbu	s9,0(a5)
    20f0:	00100793          	li	a5,1
    20f4:	814ff06f          	j	1108 <_vfprintf_r+0xacc>
    20f8:	0fc12783          	lw	a5,252(sp)
    20fc:	3407ca63          	bltz	a5,2450 <_vfprintf_r+0x1e14>
    2100:	0c714783          	lbu	a5,199(sp)
    2104:	04700713          	li	a4,71
    2108:	269758e3          	bge	a4,s1,2b78 <_vfprintf_r+0x253c>
    210c:	00014837          	lui	a6,0x14
    2110:	2b080b13          	addi	s6,a6,688 # 142b0 <__clzsi2+0x98>
    2114:	e8dff06f          	j	1fa0 <_vfprintf_r+0x1964>
    2118:	00812683          	lw	a3,8(sp)
    211c:	009787b3          	add	a5,a5,s1
    2120:	00170713          	addi	a4,a4,1
    2124:	00d8a023          	sw	a3,0(a7)
    2128:	0098a223          	sw	s1,4(a7)
    212c:	0ef12623          	sw	a5,236(sp)
    2130:	0ee12423          	sw	a4,232(sp)
    2134:	00700693          	li	a3,7
    2138:	00888893          	addi	a7,a7,8
    213c:	eee6d863          	bge	a3,a4,182c <_vfprintf_r+0x11f0>
    2140:	0e410613          	addi	a2,sp,228
    2144:	000c0593          	mv	a1,s8
    2148:	000d0513          	mv	a0,s10
    214c:	744090ef          	jal	ra,b890 <__sprint_r>
    2150:	d4051c63          	bnez	a0,16a8 <_vfprintf_r+0x106c>
    2154:	0ec12783          	lw	a5,236(sp)
    2158:	10c10893          	addi	a7,sp,268
    215c:	ed0ff06f          	j	182c <_vfprintf_r+0x11f0>
    2160:	02012703          	lw	a4,32(sp)
    2164:	02412c83          	lw	s9,36(sp)
    2168:	01412e23          	sw	s4,28(sp)
    216c:	04812023          	sw	s0,64(sp)
    2170:	05312223          	sw	s3,68(sp)
    2174:	03512223          	sw	s5,36(sp)
    2178:	02812983          	lw	s3,40(sp)
    217c:	03612423          	sw	s6,40(sp)
    2180:	00eb0bb3          	add	s7,s6,a4
    2184:	03c12403          	lw	s0,60(sp)
    2188:	04812a03          	lw	s4,72(sp)
    218c:	04c12a83          	lw	s5,76(sp)
    2190:	00700493          	li	s1,7
    2194:	01000913          	li	s2,16
    2198:	000c0b13          	mv	s6,s8
    219c:	080c8863          	beqz	s9,222c <_vfprintf_r+0x1bf0>
    21a0:	08099863          	bnez	s3,2230 <_vfprintf_r+0x1bf4>
    21a4:	fff40413          	addi	s0,s0,-1
    21a8:	fffc8c93          	addi	s9,s9,-1
    21ac:	0e812703          	lw	a4,232(sp)
    21b0:	014787b3          	add	a5,a5,s4
    21b4:	0158a023          	sw	s5,0(a7)
    21b8:	00170713          	addi	a4,a4,1
    21bc:	0148a223          	sw	s4,4(a7)
    21c0:	0ef12623          	sw	a5,236(sp)
    21c4:	0ee12423          	sw	a4,232(sp)
    21c8:	00888893          	addi	a7,a7,8
    21cc:	0ee4ce63          	blt	s1,a4,22c8 <_vfprintf_r+0x1c8c>
    21d0:	00044683          	lbu	a3,0(s0)
    21d4:	41bb8633          	sub	a2,s7,s11
    21d8:	00068c13          	mv	s8,a3
    21dc:	00d65463          	bge	a2,a3,21e4 <_vfprintf_r+0x1ba8>
    21e0:	00060c13          	mv	s8,a2
    21e4:	03805663          	blez	s8,2210 <_vfprintf_r+0x1bd4>
    21e8:	0e812683          	lw	a3,232(sp)
    21ec:	018787b3          	add	a5,a5,s8
    21f0:	01b8a023          	sw	s11,0(a7)
    21f4:	00168693          	addi	a3,a3,1
    21f8:	0188a223          	sw	s8,4(a7)
    21fc:	0ef12623          	sw	a5,236(sp)
    2200:	0ed12423          	sw	a3,232(sp)
    2204:	0ed4c263          	blt	s1,a3,22e8 <_vfprintf_r+0x1cac>
    2208:	00044683          	lbu	a3,0(s0)
    220c:	00888893          	addi	a7,a7,8
    2210:	fffc4613          	not	a2,s8
    2214:	41f65613          	srai	a2,a2,0x1f
    2218:	00cc7733          	and	a4,s8,a2
    221c:	40e68c33          	sub	s8,a3,a4
    2220:	01804c63          	bgtz	s8,2238 <_vfprintf_r+0x1bfc>
    2224:	00dd8db3          	add	s11,s11,a3
    2228:	f60c9ce3          	bnez	s9,21a0 <_vfprintf_r+0x1b64>
    222c:	60098e63          	beqz	s3,2848 <_vfprintf_r+0x220c>
    2230:	fff98993          	addi	s3,s3,-1
    2234:	f79ff06f          	j	21ac <_vfprintf_r+0x1b70>
    2238:	0e812683          	lw	a3,232(sp)
    223c:	01894863          	blt	s2,s8,224c <_vfprintf_r+0x1c10>
    2240:	0580006f          	j	2298 <_vfprintf_r+0x1c5c>
    2244:	ff0c0c13          	addi	s8,s8,-16
    2248:	05895863          	bge	s2,s8,2298 <_vfprintf_r+0x1c5c>
    224c:	00812703          	lw	a4,8(sp)
    2250:	01078793          	addi	a5,a5,16
    2254:	00168693          	addi	a3,a3,1
    2258:	00e8a023          	sw	a4,0(a7)
    225c:	0128a223          	sw	s2,4(a7)
    2260:	0ef12623          	sw	a5,236(sp)
    2264:	0ed12423          	sw	a3,232(sp)
    2268:	00888893          	addi	a7,a7,8
    226c:	fcd4dce3          	bge	s1,a3,2244 <_vfprintf_r+0x1c08>
    2270:	0e410613          	addi	a2,sp,228
    2274:	000b0593          	mv	a1,s6
    2278:	000d0513          	mv	a0,s10
    227c:	614090ef          	jal	ra,b890 <__sprint_r>
    2280:	68051263          	bnez	a0,2904 <_vfprintf_r+0x22c8>
    2284:	ff0c0c13          	addi	s8,s8,-16
    2288:	0ec12783          	lw	a5,236(sp)
    228c:	0e812683          	lw	a3,232(sp)
    2290:	10c10893          	addi	a7,sp,268
    2294:	fb894ce3          	blt	s2,s8,224c <_vfprintf_r+0x1c10>
    2298:	00812703          	lw	a4,8(sp)
    229c:	018787b3          	add	a5,a5,s8
    22a0:	00168693          	addi	a3,a3,1
    22a4:	00e8a023          	sw	a4,0(a7)
    22a8:	0188a223          	sw	s8,4(a7)
    22ac:	0ef12623          	sw	a5,236(sp)
    22b0:	0ed12423          	sw	a3,232(sp)
    22b4:	68d4c263          	blt	s1,a3,2938 <_vfprintf_r+0x22fc>
    22b8:	00044683          	lbu	a3,0(s0)
    22bc:	00888893          	addi	a7,a7,8
    22c0:	00dd8db3          	add	s11,s11,a3
    22c4:	f65ff06f          	j	2228 <_vfprintf_r+0x1bec>
    22c8:	0e410613          	addi	a2,sp,228
    22cc:	000b0593          	mv	a1,s6
    22d0:	000d0513          	mv	a0,s10
    22d4:	5bc090ef          	jal	ra,b890 <__sprint_r>
    22d8:	62051663          	bnez	a0,2904 <_vfprintf_r+0x22c8>
    22dc:	0ec12783          	lw	a5,236(sp)
    22e0:	10c10893          	addi	a7,sp,268
    22e4:	eedff06f          	j	21d0 <_vfprintf_r+0x1b94>
    22e8:	0e410613          	addi	a2,sp,228
    22ec:	000b0593          	mv	a1,s6
    22f0:	000d0513          	mv	a0,s10
    22f4:	59c090ef          	jal	ra,b890 <__sprint_r>
    22f8:	60051663          	bnez	a0,2904 <_vfprintf_r+0x22c8>
    22fc:	00044683          	lbu	a3,0(s0)
    2300:	0ec12783          	lw	a5,236(sp)
    2304:	10c10893          	addi	a7,sp,268
    2308:	f09ff06f          	j	2210 <_vfprintf_r+0x1bd4>
    230c:	04812783          	lw	a5,72(sp)
    2310:	04c12583          	lw	a1,76(sp)
    2314:	00000913          	li	s2,0
    2318:	40f40433          	sub	s0,s0,a5
    231c:	00078613          	mv	a2,a5
    2320:	00040513          	mv	a0,s0
    2324:	259060ef          	jal	ra,8d7c <strncpy>
    2328:	001cc583          	lbu	a1,1(s9)
    232c:	00a00613          	li	a2,10
    2330:	00000693          	li	a3,0
    2334:	00b03833          	snez	a6,a1
    2338:	00048513          	mv	a0,s1
    233c:	00098593          	mv	a1,s3
    2340:	010c8cb3          	add	s9,s9,a6
    2344:	1f50d0ef          	jal	ra,fd38 <__udivdi3>
    2348:	a91ff06f          	j	1dd8 <_vfprintf_r+0x179c>
    234c:	00170713          	addi	a4,a4,1
    2350:	00868893          	addi	a7,a3,8
    2354:	00068913          	mv	s2,a3
    2358:	b51fe06f          	j	ea8 <_vfprintf_r+0x86c>
    235c:	0e410613          	addi	a2,sp,228
    2360:	000c0593          	mv	a1,s8
    2364:	000d0513          	mv	a0,s10
    2368:	528090ef          	jal	ra,b890 <__sprint_r>
    236c:	b2051e63          	bnez	a0,16a8 <_vfprintf_r+0x106c>
    2370:	0cc12603          	lw	a2,204(sp)
    2374:	0ec12783          	lw	a5,236(sp)
    2378:	10c10893          	addi	a7,sp,268
    237c:	b09ff06f          	j	1e84 <_vfprintf_r+0x1848>
    2380:	00014837          	lui	a6,0x14
    2384:	2a480b13          	addi	s6,a6,676 # 142a4 <__clzsi2+0x8c>
    2388:	c19ff06f          	j	1fa0 <_vfprintf_r+0x1964>
    238c:	0e410613          	addi	a2,sp,228
    2390:	000c0593          	mv	a1,s8
    2394:	000d0513          	mv	a0,s10
    2398:	4f8090ef          	jal	ra,b890 <__sprint_r>
    239c:	b0051663          	bnez	a0,16a8 <_vfprintf_r+0x106c>
    23a0:	0ec12783          	lw	a5,236(sp)
    23a4:	10c10893          	addi	a7,sp,268
    23a8:	c6cff06f          	j	1814 <_vfprintf_r+0x11d8>
    23ac:	00600c93          	li	s9,6
    23b0:	8f1ff06f          	j	1ca0 <_vfprintf_r+0x1664>
    23b4:	02012703          	lw	a4,32(sp)
    23b8:	00eb0833          	add	a6,s6,a4
    23bc:	409704b3          	sub	s1,a4,s1
    23c0:	41b806b3          	sub	a3,a6,s11
    23c4:	00048913          	mv	s2,s1
    23c8:	d096d463          	bge	a3,s1,18d0 <_vfprintf_r+0x1294>
    23cc:	00068913          	mv	s2,a3
    23d0:	d00ff06f          	j	18d0 <_vfprintf_r+0x1294>
    23d4:	00c12783          	lw	a5,12(sp)
    23d8:	00040b13          	mv	s6,s0
    23dc:	00f71023          	sh	a5,0(a4)
    23e0:	da0fe06f          	j	980 <_vfprintf_r+0x344>
    23e4:	01412783          	lw	a5,20(sp)
    23e8:	00000913          	li	s2,0
    23ec:	00d12a23          	sw	a3,20(sp)
    23f0:	0007ac83          	lw	s9,0(a5)
    23f4:	00100793          	li	a5,1
    23f8:	d11fe06f          	j	1108 <_vfprintf_r+0xacc>
    23fc:	01412783          	lw	a5,20(sp)
    2400:	00e12a23          	sw	a4,20(sp)
    2404:	0007ac83          	lw	s9,0(a5)
    2408:	41fcd913          	srai	s2,s9,0x1f
    240c:	00090793          	mv	a5,s2
    2410:	eb1fe06f          	j	12c0 <_vfprintf_r+0xc84>
    2414:	01412783          	lw	a5,20(sp)
    2418:	00000913          	li	s2,0
    241c:	00e12a23          	sw	a4,20(sp)
    2420:	0007ac83          	lw	s9,0(a5)
    2424:	fe8ff06f          	j	1c0c <_vfprintf_r+0x15d0>
    2428:	01412783          	lw	a5,20(sp)
    242c:	00000913          	li	s2,0
    2430:	00e12a23          	sw	a4,20(sp)
    2434:	0007ac83          	lw	s9,0(a5)
    2438:	e0dfe06f          	j	1244 <_vfprintf_r+0xc08>
    243c:	0e410613          	addi	a2,sp,228
    2440:	000c0593          	mv	a1,s8
    2444:	000d0513          	mv	a0,s10
    2448:	448090ef          	jal	ra,b890 <__sprint_r>
    244c:	d48fe06f          	j	994 <_vfprintf_r+0x358>
    2450:	02d00793          	li	a5,45
    2454:	0cf103a3          	sb	a5,199(sp)
    2458:	cadff06f          	j	2104 <_vfprintf_r+0x1ac8>
    245c:	0e410613          	addi	a2,sp,228
    2460:	000c0593          	mv	a1,s8
    2464:	000d0513          	mv	a0,s10
    2468:	428090ef          	jal	ra,b890 <__sprint_r>
    246c:	a2051e63          	bnez	a0,16a8 <_vfprintf_r+0x106c>
    2470:	0cc12603          	lw	a2,204(sp)
    2474:	0ec12783          	lw	a5,236(sp)
    2478:	0e812703          	lw	a4,232(sp)
    247c:	10c10893          	addi	a7,sp,268
    2480:	bd1ff06f          	j	2050 <_vfprintf_r+0x1a14>
    2484:	03000793          	li	a5,48
    2488:	0cf10423          	sb	a5,200(sp)
    248c:	05800793          	li	a5,88
    2490:	002a6713          	ori	a4,s4,2
    2494:	0cf104a3          	sb	a5,201(sp)
    2498:	04e12823          	sw	a4,80(sp)
    249c:	06300793          	li	a5,99
    24a0:	00012823          	sw	zero,16(sp)
    24a4:	14c10b13          	addi	s6,sp,332
    24a8:	7db7ce63          	blt	a5,s11,2c84 <_vfprintf_r+0x2648>
    24ac:	0fc12b83          	lw	s7,252(sp)
    24b0:	fdf4f793          	andi	a5,s1,-33
    24b4:	02f12423          	sw	a5,40(sp)
    24b8:	04012c23          	sw	zero,88(sp)
    24bc:	0f012e03          	lw	t3,240(sp)
    24c0:	0f412e83          	lw	t4,244(sp)
    24c4:	0f812f03          	lw	t5,248(sp)
    24c8:	102a6a13          	ori	s4,s4,258
    24cc:	440bcc63          	bltz	s7,2924 <_vfprintf_r+0x22e8>
    24d0:	06100793          	li	a5,97
    24d4:	0cf48ae3          	beq	s1,a5,2da8 <_vfprintf_r+0x276c>
    24d8:	04100793          	li	a5,65
    24dc:	00f48463          	beq	s1,a5,24e4 <_vfprintf_r+0x1ea8>
    24e0:	eb4fe06f          	j	b94 <_vfprintf_r+0x558>
    24e4:	0b010a93          	addi	s5,sp,176
    24e8:	000a8513          	mv	a0,s5
    24ec:	05112a23          	sw	a7,84(sp)
    24f0:	0bc12823          	sw	t3,176(sp)
    24f4:	0bd12a23          	sw	t4,180(sp)
    24f8:	0be12c23          	sw	t5,184(sp)
    24fc:	0b712e23          	sw	s7,188(sp)
    2500:	1bd110ef          	jal	ra,13ebc <__trunctfdf2>
    2504:	0cc10613          	addi	a2,sp,204
    2508:	2d4060ef          	jal	ra,87dc <frexp>
    250c:	00058613          	mv	a2,a1
    2510:	00050593          	mv	a1,a0
    2514:	000a8513          	mv	a0,s5
    2518:	7ac110ef          	jal	ra,13cc4 <__extenddftf2>
    251c:	0b012783          	lw	a5,176(sp)
    2520:	0a010c93          	addi	s9,sp,160
    2524:	09010913          	addi	s2,sp,144
    2528:	08f12823          	sw	a5,144(sp)
    252c:	0b412783          	lw	a5,180(sp)
    2530:	08010613          	addi	a2,sp,128
    2534:	00090593          	mv	a1,s2
    2538:	08f12a23          	sw	a5,148(sp)
    253c:	0b812783          	lw	a5,184(sp)
    2540:	000c8513          	mv	a0,s9
    2544:	04c12023          	sw	a2,64(sp)
    2548:	08f12c23          	sw	a5,152(sp)
    254c:	0bc12783          	lw	a5,188(sp)
    2550:	08012023          	sw	zero,128(sp)
    2554:	08012223          	sw	zero,132(sp)
    2558:	08f12e23          	sw	a5,156(sp)
    255c:	3ffc07b7          	lui	a5,0x3ffc0
    2560:	08f12623          	sw	a5,140(sp)
    2564:	08012423          	sw	zero,136(sp)
    2568:	00c0f0ef          	jal	ra,11574 <__multf3>
    256c:	0a012683          	lw	a3,160(sp)
    2570:	0a412e03          	lw	t3,164(sp)
    2574:	0a812e83          	lw	t4,168(sp)
    2578:	0ac12f03          	lw	t5,172(sp)
    257c:	000c8593          	mv	a1,s9
    2580:	000a8513          	mv	a0,s5
    2584:	0ad12823          	sw	a3,176(sp)
    2588:	04d12223          	sw	a3,68(sp)
    258c:	0bc12a23          	sw	t3,180(sp)
    2590:	03c12223          	sw	t3,36(sp)
    2594:	0bd12c23          	sw	t4,184(sp)
    2598:	03d12023          	sw	t4,32(sp)
    259c:	0be12e23          	sw	t5,188(sp)
    25a0:	01e12e23          	sw	t5,28(sp)
    25a4:	0a012023          	sw	zero,160(sp)
    25a8:	0a012223          	sw	zero,164(sp)
    25ac:	0a012423          	sw	zero,168(sp)
    25b0:	0a012623          	sw	zero,172(sp)
    25b4:	46d0e0ef          	jal	ra,11220 <__eqtf2>
    25b8:	01c12f03          	lw	t5,28(sp)
    25bc:	02012e83          	lw	t4,32(sp)
    25c0:	02412e03          	lw	t3,36(sp)
    25c4:	04412683          	lw	a3,68(sp)
    25c8:	05412883          	lw	a7,84(sp)
    25cc:	00051663          	bnez	a0,25d8 <_vfprintf_r+0x1f9c>
    25d0:	00100793          	li	a5,1
    25d4:	0cf12623          	sw	a5,204(sp)
    25d8:	000147b7          	lui	a5,0x14
    25dc:	2c878793          	addi	a5,a5,712 # 142c8 <__clzsi2+0xb0>
    25e0:	02f12223          	sw	a5,36(sp)
    25e4:	fffd8713          	addi	a4,s11,-1
    25e8:	05412e23          	sw	s4,92(sp)
    25ec:	06912223          	sw	s1,100(sp)
    25f0:	07b12623          	sw	s11,108(sp)
    25f4:	07a12a23          	sw	s10,116(sp)
    25f8:	07812c23          	sw	s8,120(sp)
    25fc:	06812023          	sw	s0,96(sp)
    2600:	07312423          	sw	s3,104(sp)
    2604:	07112823          	sw	a7,112(sp)
    2608:	000b0c13          	mv	s8,s6
    260c:	00070b93          	mv	s7,a4
    2610:	07612e23          	sw	s6,124(sp)
    2614:	00068d13          	mv	s10,a3
    2618:	000e0d93          	mv	s11,t3
    261c:	000e8493          	mv	s1,t4
    2620:	000f0a13          	mv	s4,t5
    2624:	0480006f          	j	266c <_vfprintf_r+0x2030>
    2628:	000c8593          	mv	a1,s9
    262c:	000a8513          	mv	a0,s5
    2630:	02c12023          	sw	a2,32(sp)
    2634:	01f12e23          	sw	t6,28(sp)
    2638:	0bf12c23          	sw	t6,184(sp)
    263c:	0ac12e23          	sw	a2,188(sp)
    2640:	0b612823          	sw	s6,176(sp)
    2644:	0b312a23          	sw	s3,180(sp)
    2648:	0a012023          	sw	zero,160(sp)
    264c:	0a012223          	sw	zero,164(sp)
    2650:	0a012423          	sw	zero,168(sp)
    2654:	0a012623          	sw	zero,172(sp)
    2658:	3c90e0ef          	jal	ra,11220 <__eqtf2>
    265c:	01c12f83          	lw	t6,28(sp)
    2660:	02012603          	lw	a2,32(sp)
    2664:	fffb8b93          	addi	s7,s7,-1
    2668:	0e050263          	beqz	a0,274c <_vfprintf_r+0x2110>
    266c:	400307b7          	lui	a5,0x40030
    2670:	00090613          	mv	a2,s2
    2674:	000c8593          	mv	a1,s9
    2678:	000a8513          	mv	a0,s5
    267c:	08f12e23          	sw	a5,156(sp)
    2680:	0ba12023          	sw	s10,160(sp)
    2684:	0bb12223          	sw	s11,164(sp)
    2688:	0a912423          	sw	s1,168(sp)
    268c:	0b412623          	sw	s4,172(sp)
    2690:	08012823          	sw	zero,144(sp)
    2694:	08012a23          	sw	zero,148(sp)
    2698:	08012c23          	sw	zero,152(sp)
    269c:	6d90e0ef          	jal	ra,11574 <__multf3>
    26a0:	000a8513          	mv	a0,s5
    26a4:	3b8110ef          	jal	ra,13a5c <__fixtfsi>
    26a8:	00050593          	mv	a1,a0
    26ac:	00050413          	mv	s0,a0
    26b0:	000a8513          	mv	a0,s5
    26b4:	0b012983          	lw	s3,176(sp)
    26b8:	0b412483          	lw	s1,180(sp)
    26bc:	0b812b03          	lw	s6,184(sp)
    26c0:	0bc12a03          	lw	s4,188(sp)
    26c4:	4ac110ef          	jal	ra,13b70 <__floatsitf>
    26c8:	0b012683          	lw	a3,176(sp)
    26cc:	04012603          	lw	a2,64(sp)
    26d0:	00090593          	mv	a1,s2
    26d4:	08d12023          	sw	a3,128(sp)
    26d8:	0b412683          	lw	a3,180(sp)
    26dc:	000c8513          	mv	a0,s9
    26e0:	09312823          	sw	s3,144(sp)
    26e4:	08d12223          	sw	a3,132(sp)
    26e8:	0b812683          	lw	a3,184(sp)
    26ec:	08912a23          	sw	s1,148(sp)
    26f0:	09612c23          	sw	s6,152(sp)
    26f4:	08d12423          	sw	a3,136(sp)
    26f8:	0bc12683          	lw	a3,188(sp)
    26fc:	09412e23          	sw	s4,156(sp)
    2700:	08d12623          	sw	a3,140(sp)
    2704:	6510f0ef          	jal	ra,12554 <__subtf3>
    2708:	02412783          	lw	a5,36(sp)
    270c:	0a012b03          	lw	s6,160(sp)
    2710:	0a412983          	lw	s3,164(sp)
    2714:	008786b3          	add	a3,a5,s0
    2718:	0006c683          	lbu	a3,0(a3)
    271c:	0a812f83          	lw	t6,168(sp)
    2720:	0ac12603          	lw	a2,172(sp)
    2724:	05812a23          	sw	s8,84(sp)
    2728:	00dc0023          	sb	a3,0(s8)
    272c:	05712223          	sw	s7,68(sp)
    2730:	fff00793          	li	a5,-1
    2734:	001c0c13          	addi	s8,s8,1
    2738:	000b0d13          	mv	s10,s6
    273c:	00098d93          	mv	s11,s3
    2740:	000f8493          	mv	s1,t6
    2744:	00060a13          	mv	s4,a2
    2748:	eefb90e3          	bne	s7,a5,2628 <_vfprintf_r+0x1fec>
    274c:	07012883          	lw	a7,112(sp)
    2750:	000b0393          	mv	t2,s6
    2754:	00098293          	mv	t0,s3
    2758:	3ffe0937          	lui	s2,0x3ffe0
    275c:	000c8593          	mv	a1,s9
    2760:	000a8513          	mv	a0,s5
    2764:	03112023          	sw	a7,32(sp)
    2768:	00812e23          	sw	s0,28(sp)
    276c:	05c12a03          	lw	s4,92(sp)
    2770:	06412483          	lw	s1,100(sp)
    2774:	06012403          	lw	s0,96(sp)
    2778:	0a712823          	sw	t2,176(sp)
    277c:	06712223          	sw	t2,100(sp)
    2780:	0a512a23          	sw	t0,180(sp)
    2784:	06512023          	sw	t0,96(sp)
    2788:	0bf12c23          	sw	t6,184(sp)
    278c:	05f12e23          	sw	t6,92(sp)
    2790:	0ac12e23          	sw	a2,188(sp)
    2794:	04c12023          	sw	a2,64(sp)
    2798:	0a012023          	sw	zero,160(sp)
    279c:	0a012223          	sw	zero,164(sp)
    27a0:	0a012423          	sw	zero,168(sp)
    27a4:	0b212623          	sw	s2,172(sp)
    27a8:	3450e0ef          	jal	ra,112ec <__getf2>
    27ac:	000c0b93          	mv	s7,s8
    27b0:	06c12d83          	lw	s11,108(sp)
    27b4:	07412d03          	lw	s10,116(sp)
    27b8:	07812c03          	lw	s8,120(sp)
    27bc:	07c12b03          	lw	s6,124(sp)
    27c0:	06812983          	lw	s3,104(sp)
    27c4:	02012883          	lw	a7,32(sp)
    27c8:	54a04e63          	bgtz	a0,2d24 <_vfprintf_r+0x26e8>
    27cc:	06412383          	lw	t2,100(sp)
    27d0:	06012283          	lw	t0,96(sp)
    27d4:	05c12f83          	lw	t6,92(sp)
    27d8:	04012603          	lw	a2,64(sp)
    27dc:	000c8593          	mv	a1,s9
    27e0:	000a8513          	mv	a0,s5
    27e4:	0a712823          	sw	t2,176(sp)
    27e8:	0a512a23          	sw	t0,180(sp)
    27ec:	0bf12c23          	sw	t6,184(sp)
    27f0:	0ac12e23          	sw	a2,188(sp)
    27f4:	0a012023          	sw	zero,160(sp)
    27f8:	0a012223          	sw	zero,164(sp)
    27fc:	0a012423          	sw	zero,168(sp)
    2800:	0b212623          	sw	s2,172(sp)
    2804:	21d0e0ef          	jal	ra,11220 <__eqtf2>
    2808:	02012883          	lw	a7,32(sp)
    280c:	00051863          	bnez	a0,281c <_vfprintf_r+0x21e0>
    2810:	01c12783          	lw	a5,28(sp)
    2814:	0017fc93          	andi	s9,a5,1
    2818:	500c9663          	bnez	s9,2d24 <_vfprintf_r+0x26e8>
    281c:	04412783          	lw	a5,68(sp)
    2820:	03000693          	li	a3,48
    2824:	00178713          	addi	a4,a5,1 # 40030001 <//.+0x4001a089>
    2828:	00eb8733          	add	a4,s7,a4
    282c:	0007c863          	bltz	a5,283c <_vfprintf_r+0x2200>
    2830:	001b8b93          	addi	s7,s7,1
    2834:	fedb8fa3          	sb	a3,-1(s7)
    2838:	ff771ce3          	bne	a4,s7,2830 <_vfprintf_r+0x21f4>
    283c:	416b87b3          	sub	a5,s7,s6
    2840:	02f12023          	sw	a5,32(sp)
    2844:	bf0fe06f          	j	c34 <_vfprintf_r+0x5f8>
    2848:	02012703          	lw	a4,32(sp)
    284c:	000b0c13          	mv	s8,s6
    2850:	02812b03          	lw	s6,40(sp)
    2854:	02812e23          	sw	s0,60(sp)
    2858:	01c12a03          	lw	s4,28(sp)
    285c:	00eb0733          	add	a4,s6,a4
    2860:	04012403          	lw	s0,64(sp)
    2864:	04412983          	lw	s3,68(sp)
    2868:	02412a83          	lw	s5,36(sp)
    286c:	01b76463          	bltu	a4,s11,2874 <_vfprintf_r+0x2238>
    2870:	fcdfe06f          	j	183c <_vfprintf_r+0x1200>
    2874:	00070d93          	mv	s11,a4
    2878:	fc5fe06f          	j	183c <_vfprintf_r+0x1200>
    287c:	01c12703          	lw	a4,28(sp)
    2880:	ffd00793          	li	a5,-3
    2884:	00f74463          	blt	a4,a5,288c <_vfprintf_r+0x2250>
    2888:	00edda63          	bge	s11,a4,289c <_vfprintf_r+0x2260>
    288c:	ffe48493          	addi	s1,s1,-2
    2890:	fdf4f793          	andi	a5,s1,-33
    2894:	02f12423          	sw	a5,40(sp)
    2898:	bc4fe06f          	j	c5c <_vfprintf_r+0x620>
    289c:	02012783          	lw	a5,32(sp)
    28a0:	01c12703          	lw	a4,28(sp)
    28a4:	2af74263          	blt	a4,a5,2b48 <_vfprintf_r+0x250c>
    28a8:	05012783          	lw	a5,80(sp)
    28ac:	00070c93          	mv	s9,a4
    28b0:	0017f793          	andi	a5,a5,1
    28b4:	00078663          	beqz	a5,28c0 <_vfprintf_r+0x2284>
    28b8:	02c12783          	lw	a5,44(sp)
    28bc:	00f70cb3          	add	s9,a4,a5
    28c0:	05012783          	lw	a5,80(sp)
    28c4:	4007f793          	andi	a5,a5,1024
    28c8:	00078663          	beqz	a5,28d4 <_vfprintf_r+0x2298>
    28cc:	01c12783          	lw	a5,28(sp)
    28d0:	60f04663          	bgtz	a5,2edc <_vfprintf_r+0x28a0>
    28d4:	fffcca93          	not	s5,s9
    28d8:	41fada93          	srai	s5,s5,0x1f
    28dc:	015cfab3          	and	s5,s9,s5
    28e0:	06700493          	li	s1,103
    28e4:	02012423          	sw	zero,40(sp)
    28e8:	02012223          	sw	zero,36(sp)
    28ec:	c8cfe06f          	j	d78 <_vfprintf_r+0x73c>
    28f0:	0c714783          	lbu	a5,199(sp)
    28f4:	00000d93          	li	s11,0
    28f8:	00078463          	beqz	a5,2900 <_vfprintf_r+0x22c4>
    28fc:	f5cfe06f          	j	1058 <_vfprintf_r+0xa1c>
    2900:	f6dfd06f          	j	86c <_vfprintf_r+0x230>
    2904:	01012b83          	lw	s7,16(sp)
    2908:	000b0c13          	mv	s8,s6
    290c:	da1fe06f          	j	16ac <_vfprintf_r+0x1070>
    2910:	00900793          	li	a5,9
    2914:	cc97e263          	bltu	a5,s1,1dd8 <_vfprintf_r+0x179c>
    2918:	d08ff06f          	j	1e20 <_vfprintf_r+0x17e4>
    291c:	00012823          	sw	zero,16(sp)
    2920:	00078a13          	mv	s4,a5
    2924:	800007b7          	lui	a5,0x80000
    2928:	0177cbb3          	xor	s7,a5,s7
    292c:	02d00793          	li	a5,45
    2930:	04f12c23          	sw	a5,88(sp)
    2934:	b9dff06f          	j	24d0 <_vfprintf_r+0x1e94>
    2938:	0e410613          	addi	a2,sp,228
    293c:	000b0593          	mv	a1,s6
    2940:	000d0513          	mv	a0,s10
    2944:	74d080ef          	jal	ra,b890 <__sprint_r>
    2948:	fa051ee3          	bnez	a0,2904 <_vfprintf_r+0x22c8>
    294c:	00044683          	lbu	a3,0(s0)
    2950:	0ec12783          	lw	a5,236(sp)
    2954:	10c10893          	addi	a7,sp,268
    2958:	00dd8db3          	add	s11,s11,a3
    295c:	8cdff06f          	j	2228 <_vfprintf_r+0x1bec>
    2960:	0b010a93          	addi	s5,sp,176
    2964:	0d010793          	addi	a5,sp,208
    2968:	0cc10713          	addi	a4,sp,204
    296c:	0dc10813          	addi	a6,sp,220
    2970:	000d8693          	mv	a3,s11
    2974:	00300613          	li	a2,3
    2978:	000a8593          	mv	a1,s5
    297c:	000d0513          	mv	a0,s10
    2980:	05112023          	sw	a7,64(sp)
    2984:	0bc12823          	sw	t3,176(sp)
    2988:	03c12223          	sw	t3,36(sp)
    298c:	0bd12a23          	sw	t4,180(sp)
    2990:	03d12023          	sw	t4,32(sp)
    2994:	0be12c23          	sw	t5,184(sp)
    2998:	01e12e23          	sw	t5,28(sp)
    299c:	0b712e23          	sw	s7,188(sp)
    29a0:	681020ef          	jal	ra,5820 <_ldtoa_r>
    29a4:	00054703          	lbu	a4,0(a0)
    29a8:	03000793          	li	a5,48
    29ac:	01c12f03          	lw	t5,28(sp)
    29b0:	02012e83          	lw	t4,32(sp)
    29b4:	02412e03          	lw	t3,36(sp)
    29b8:	04012883          	lw	a7,64(sp)
    29bc:	00050b13          	mv	s6,a0
    29c0:	0a010c93          	addi	s9,sp,160
    29c4:	06f70c63          	beq	a4,a5,2a3c <_vfprintf_r+0x2400>
    29c8:	0cc12783          	lw	a5,204(sp)
    29cc:	01b787b3          	add	a5,a5,s11
    29d0:	00fb0933          	add	s2,s6,a5
    29d4:	000c8593          	mv	a1,s9
    29d8:	000a8513          	mv	a0,s5
    29dc:	01112e23          	sw	a7,28(sp)
    29e0:	0bc12823          	sw	t3,176(sp)
    29e4:	0bd12a23          	sw	t4,180(sp)
    29e8:	0be12c23          	sw	t5,184(sp)
    29ec:	0b712e23          	sw	s7,188(sp)
    29f0:	0a012023          	sw	zero,160(sp)
    29f4:	0a012223          	sw	zero,164(sp)
    29f8:	0a012423          	sw	zero,168(sp)
    29fc:	0a012623          	sw	zero,172(sp)
    2a00:	0210e0ef          	jal	ra,11220 <__eqtf2>
    2a04:	01c12883          	lw	a7,28(sp)
    2a08:	00090693          	mv	a3,s2
    2a0c:	00051463          	bnez	a0,2a14 <_vfprintf_r+0x23d8>
    2a10:	a1cfe06f          	j	c2c <_vfprintf_r+0x5f0>
    2a14:	0dc12683          	lw	a3,220(sp)
    2a18:	0126e463          	bltu	a3,s2,2a20 <_vfprintf_r+0x23e4>
    2a1c:	a10fe06f          	j	c2c <_vfprintf_r+0x5f0>
    2a20:	03000713          	li	a4,48
    2a24:	00168793          	addi	a5,a3,1
    2a28:	0cf12e23          	sw	a5,220(sp)
    2a2c:	00e68023          	sb	a4,0(a3)
    2a30:	0dc12683          	lw	a3,220(sp)
    2a34:	ff26e8e3          	bltu	a3,s2,2a24 <_vfprintf_r+0x23e8>
    2a38:	9f4fe06f          	j	c2c <_vfprintf_r+0x5f0>
    2a3c:	0a010c93          	addi	s9,sp,160
    2a40:	000c8593          	mv	a1,s9
    2a44:	000a8513          	mv	a0,s5
    2a48:	05112023          	sw	a7,64(sp)
    2a4c:	0bc12823          	sw	t3,176(sp)
    2a50:	03c12223          	sw	t3,36(sp)
    2a54:	0bd12a23          	sw	t4,180(sp)
    2a58:	03d12023          	sw	t4,32(sp)
    2a5c:	0be12c23          	sw	t5,184(sp)
    2a60:	01e12e23          	sw	t5,28(sp)
    2a64:	0b712e23          	sw	s7,188(sp)
    2a68:	0a012023          	sw	zero,160(sp)
    2a6c:	0a012223          	sw	zero,164(sp)
    2a70:	0a012423          	sw	zero,168(sp)
    2a74:	0a012623          	sw	zero,172(sp)
    2a78:	7a80e0ef          	jal	ra,11220 <__eqtf2>
    2a7c:	01c12f03          	lw	t5,28(sp)
    2a80:	02012e83          	lw	t4,32(sp)
    2a84:	02412e03          	lw	t3,36(sp)
    2a88:	04012883          	lw	a7,64(sp)
    2a8c:	f2050ee3          	beqz	a0,29c8 <_vfprintf_r+0x238c>
    2a90:	00100793          	li	a5,1
    2a94:	41b787b3          	sub	a5,a5,s11
    2a98:	0cf12623          	sw	a5,204(sp)
    2a9c:	f31ff06f          	j	29cc <_vfprintf_r+0x2390>
    2aa0:	02d00793          	li	a5,45
    2aa4:	0cf103a3          	sb	a5,199(sp)
    2aa8:	ce8ff06f          	j	1f90 <_vfprintf_r+0x1954>
    2aac:	0e410613          	addi	a2,sp,228
    2ab0:	000c0593          	mv	a1,s8
    2ab4:	000d0513          	mv	a0,s10
    2ab8:	5d9080ef          	jal	ra,b890 <__sprint_r>
    2abc:	00050463          	beqz	a0,2ac4 <_vfprintf_r+0x2488>
    2ac0:	be9fe06f          	j	16a8 <_vfprintf_r+0x106c>
    2ac4:	0cc12483          	lw	s1,204(sp)
    2ac8:	0ec12783          	lw	a5,236(sp)
    2acc:	10c10893          	addi	a7,sp,268
    2ad0:	db5fe06f          	j	1884 <_vfprintf_r+0x1248>
    2ad4:	0c714783          	lbu	a5,199(sp)
    2ad8:	01212a23          	sw	s2,20(sp)
    2adc:	02012423          	sw	zero,40(sp)
    2ae0:	02012223          	sw	zero,36(sp)
    2ae4:	00012e23          	sw	zero,28(sp)
    2ae8:	000d8a93          	mv	s5,s11
    2aec:	000d8c93          	mv	s9,s11
    2af0:	00000d93          	li	s11,0
    2af4:	00078463          	beqz	a5,2afc <_vfprintf_r+0x24c0>
    2af8:	d60fe06f          	j	1058 <_vfprintf_r+0xa1c>
    2afc:	d71fd06f          	j	86c <_vfprintf_r+0x230>
    2b00:	00014637          	lui	a2,0x14
    2b04:	45460e93          	addi	t4,a2,1108 # 14454 <blanks.4485>
    2b08:	c65fe06f          	j	176c <_vfprintf_r+0x1130>
    2b0c:	05012783          	lw	a5,80(sp)
    2b10:	01c12703          	lw	a4,28(sp)
    2b14:	0017f793          	andi	a5,a5,1
    2b18:	01b7e7b3          	or	a5,a5,s11
    2b1c:	46e05463          	blez	a4,2f84 <_vfprintf_r+0x2948>
    2b20:	42079e63          	bnez	a5,2f5c <_vfprintf_r+0x2920>
    2b24:	01c12c83          	lw	s9,28(sp)
    2b28:	06600493          	li	s1,102
    2b2c:	05012783          	lw	a5,80(sp)
    2b30:	4007f793          	andi	a5,a5,1024
    2b34:	3a079663          	bnez	a5,2ee0 <_vfprintf_r+0x28a4>
    2b38:	fffcca93          	not	s5,s9
    2b3c:	41fada93          	srai	s5,s5,0x1f
    2b40:	015cfab3          	and	s5,s9,s5
    2b44:	da1ff06f          	j	28e4 <_vfprintf_r+0x22a8>
    2b48:	02012783          	lw	a5,32(sp)
    2b4c:	02c12703          	lw	a4,44(sp)
    2b50:	06700493          	li	s1,103
    2b54:	00e78cb3          	add	s9,a5,a4
    2b58:	01c12783          	lw	a5,28(sp)
    2b5c:	fcf048e3          	bgtz	a5,2b2c <_vfprintf_r+0x24f0>
    2b60:	40fc8cb3          	sub	s9,s9,a5
    2b64:	001c8c93          	addi	s9,s9,1
    2b68:	fffcca93          	not	s5,s9
    2b6c:	41fada93          	srai	s5,s5,0x1f
    2b70:	015cfab3          	and	s5,s9,s5
    2b74:	d71ff06f          	j	28e4 <_vfprintf_r+0x22a8>
    2b78:	00014837          	lui	a6,0x14
    2b7c:	2ac80b13          	addi	s6,a6,684 # 142ac <__clzsi2+0x94>
    2b80:	c20ff06f          	j	1fa0 <_vfprintf_r+0x1964>
    2b84:	0e410613          	addi	a2,sp,228
    2b88:	000c0593          	mv	a1,s8
    2b8c:	000d0513          	mv	a0,s10
    2b90:	501080ef          	jal	ra,b890 <__sprint_r>
    2b94:	00050463          	beqz	a0,2b9c <_vfprintf_r+0x2560>
    2b98:	b11fe06f          	j	16a8 <_vfprintf_r+0x106c>
    2b9c:	0cc12483          	lw	s1,204(sp)
    2ba0:	02012703          	lw	a4,32(sp)
    2ba4:	0ec12783          	lw	a5,236(sp)
    2ba8:	10c10893          	addi	a7,sp,268
    2bac:	409704b3          	sub	s1,a4,s1
    2bb0:	d21fe06f          	j	18d0 <_vfprintf_r+0x1294>
    2bb4:	fff00793          	li	a5,-1
    2bb8:	00f12623          	sw	a5,12(sp)
    2bbc:	de9fd06f          	j	9a4 <_vfprintf_r+0x368>
    2bc0:	ff000693          	li	a3,-16
    2bc4:	40c004b3          	neg	s1,a2
    2bc8:	06d65863          	bge	a2,a3,2c38 <_vfprintf_r+0x25fc>
    2bcc:	01000913          	li	s2,16
    2bd0:	00700c93          	li	s9,7
    2bd4:	00c0006f          	j	2be0 <_vfprintf_r+0x25a4>
    2bd8:	ff048493          	addi	s1,s1,-16
    2bdc:	04995e63          	bge	s2,s1,2c38 <_vfprintf_r+0x25fc>
    2be0:	00812683          	lw	a3,8(sp)
    2be4:	01078793          	addi	a5,a5,16 # 80000010 <//.+0x7ffea098>
    2be8:	00170713          	addi	a4,a4,1
    2bec:	00d8a023          	sw	a3,0(a7)
    2bf0:	0128a223          	sw	s2,4(a7)
    2bf4:	0ef12623          	sw	a5,236(sp)
    2bf8:	0ee12423          	sw	a4,232(sp)
    2bfc:	00888893          	addi	a7,a7,8
    2c00:	fcecdce3          	bge	s9,a4,2bd8 <_vfprintf_r+0x259c>
    2c04:	0e410613          	addi	a2,sp,228
    2c08:	000c0593          	mv	a1,s8
    2c0c:	000d0513          	mv	a0,s10
    2c10:	481080ef          	jal	ra,b890 <__sprint_r>
    2c14:	00050463          	beqz	a0,2c1c <_vfprintf_r+0x25e0>
    2c18:	a91fe06f          	j	16a8 <_vfprintf_r+0x106c>
    2c1c:	0ec12783          	lw	a5,236(sp)
    2c20:	0e812703          	lw	a4,232(sp)
    2c24:	10c10893          	addi	a7,sp,268
    2c28:	fb1ff06f          	j	2bd8 <_vfprintf_r+0x259c>
    2c2c:	000146b7          	lui	a3,0x14
    2c30:	45468e93          	addi	t4,a3,1108 # 14454 <blanks.4485>
    2c34:	b34fe06f          	j	f68 <_vfprintf_r+0x92c>
    2c38:	00812683          	lw	a3,8(sp)
    2c3c:	009787b3          	add	a5,a5,s1
    2c40:	00170713          	addi	a4,a4,1
    2c44:	00d8a023          	sw	a3,0(a7)
    2c48:	0098a223          	sw	s1,4(a7)
    2c4c:	0ef12623          	sw	a5,236(sp)
    2c50:	0ee12423          	sw	a4,232(sp)
    2c54:	00700693          	li	a3,7
    2c58:	a6e6d863          	bge	a3,a4,1ec8 <_vfprintf_r+0x188c>
    2c5c:	0e410613          	addi	a2,sp,228
    2c60:	000c0593          	mv	a1,s8
    2c64:	000d0513          	mv	a0,s10
    2c68:	429080ef          	jal	ra,b890 <__sprint_r>
    2c6c:	00050463          	beqz	a0,2c74 <_vfprintf_r+0x2638>
    2c70:	a39fe06f          	j	16a8 <_vfprintf_r+0x106c>
    2c74:	0ec12783          	lw	a5,236(sp)
    2c78:	0e812703          	lw	a4,232(sp)
    2c7c:	10c10893          	addi	a7,sp,268
    2c80:	bd4ff06f          	j	2054 <_vfprintf_r+0x1a18>
    2c84:	001d8593          	addi	a1,s11,1
    2c88:	000d0513          	mv	a0,s10
    2c8c:	01112823          	sw	a7,16(sp)
    2c90:	094040ef          	jal	ra,6d24 <_malloc_r>
    2c94:	01012883          	lw	a7,16(sp)
    2c98:	00050b13          	mv	s6,a0
    2c9c:	36050063          	beqz	a0,2ffc <_vfprintf_r+0x29c0>
    2ca0:	00a12823          	sw	a0,16(sp)
    2ca4:	809ff06f          	j	24ac <_vfprintf_r+0x1e70>
    2ca8:	001d8913          	addi	s2,s11,1
    2cac:	0b010a93          	addi	s5,sp,176
    2cb0:	0dc10813          	addi	a6,sp,220
    2cb4:	0d010793          	addi	a5,sp,208
    2cb8:	0cc10713          	addi	a4,sp,204
    2cbc:	00090693          	mv	a3,s2
    2cc0:	00200613          	li	a2,2
    2cc4:	000a8593          	mv	a1,s5
    2cc8:	000d0513          	mv	a0,s10
    2ccc:	0bc12823          	sw	t3,176(sp)
    2cd0:	03c12223          	sw	t3,36(sp)
    2cd4:	0bd12a23          	sw	t4,180(sp)
    2cd8:	03d12023          	sw	t4,32(sp)
    2cdc:	0be12c23          	sw	t5,184(sp)
    2ce0:	01e12e23          	sw	t5,28(sp)
    2ce4:	0b712e23          	sw	s7,188(sp)
    2ce8:	339020ef          	jal	ra,5820 <_ldtoa_r>
    2cec:	01c12f03          	lw	t5,28(sp)
    2cf0:	02012e83          	lw	t4,32(sp)
    2cf4:	02412e03          	lw	t3,36(sp)
    2cf8:	04012883          	lw	a7,64(sp)
    2cfc:	00050b13          	mv	s6,a0
    2d00:	012b0933          	add	s2,s6,s2
    2d04:	0a010c93          	addi	s9,sp,160
    2d08:	ccdff06f          	j	29d4 <_vfprintf_r+0x2398>
    2d0c:	000a0b93          	mv	s7,s4
    2d10:	df0fe06f          	j	1300 <_vfprintf_r+0xcc4>
    2d14:	03000793          	li	a5,48
    2d18:	0cf10423          	sb	a5,200(sp)
    2d1c:	07800793          	li	a5,120
    2d20:	f70ff06f          	j	2490 <_vfprintf_r+0x1e54>
    2d24:	05412783          	lw	a5,84(sp)
    2d28:	000b8713          	mv	a4,s7
    2d2c:	0cf12e23          	sw	a5,220(sp)
    2d30:	02412783          	lw	a5,36(sp)
    2d34:	fffbc683          	lbu	a3,-1(s7)
    2d38:	00f7c603          	lbu	a2,15(a5)
    2d3c:	02c69063          	bne	a3,a2,2d5c <_vfprintf_r+0x2720>
    2d40:	03000593          	li	a1,48
    2d44:	feb70fa3          	sb	a1,-1(a4)
    2d48:	0dc12703          	lw	a4,220(sp)
    2d4c:	fff70793          	addi	a5,a4,-1
    2d50:	0cf12e23          	sw	a5,220(sp)
    2d54:	fff74683          	lbu	a3,-1(a4)
    2d58:	fed606e3          	beq	a2,a3,2d44 <_vfprintf_r+0x2708>
    2d5c:	00168613          	addi	a2,a3,1
    2d60:	03900593          	li	a1,57
    2d64:	0ff67613          	andi	a2,a2,255
    2d68:	00b68663          	beq	a3,a1,2d74 <_vfprintf_r+0x2738>
    2d6c:	fec70fa3          	sb	a2,-1(a4)
    2d70:	acdff06f          	j	283c <_vfprintf_r+0x2200>
    2d74:	02412783          	lw	a5,36(sp)
    2d78:	00a7c603          	lbu	a2,10(a5)
    2d7c:	fec70fa3          	sb	a2,-1(a4)
    2d80:	abdff06f          	j	283c <_vfprintf_r+0x2200>
    2d84:	01bb0933          	add	s2,s6,s11
    2d88:	0a010c93          	addi	s9,sp,160
    2d8c:	c49ff06f          	j	29d4 <_vfprintf_r+0x2398>
    2d90:	000d8463          	beqz	s11,2d98 <_vfprintf_r+0x275c>
    2d94:	dd5fd06f          	j	b68 <_vfprintf_r+0x52c>
    2d98:	00100d93          	li	s11,1
    2d9c:	dcdfd06f          	j	b68 <_vfprintf_r+0x52c>
    2da0:	00600d93          	li	s11,6
    2da4:	dc5fd06f          	j	b68 <_vfprintf_r+0x52c>
    2da8:	0b010a93          	addi	s5,sp,176
    2dac:	000a8513          	mv	a0,s5
    2db0:	05112a23          	sw	a7,84(sp)
    2db4:	0bc12823          	sw	t3,176(sp)
    2db8:	0bd12a23          	sw	t4,180(sp)
    2dbc:	0be12c23          	sw	t5,184(sp)
    2dc0:	0b712e23          	sw	s7,188(sp)
    2dc4:	0f8110ef          	jal	ra,13ebc <__trunctfdf2>
    2dc8:	0cc10613          	addi	a2,sp,204
    2dcc:	211050ef          	jal	ra,87dc <frexp>
    2dd0:	00058613          	mv	a2,a1
    2dd4:	00050593          	mv	a1,a0
    2dd8:	000a8513          	mv	a0,s5
    2ddc:	6e9100ef          	jal	ra,13cc4 <__extenddftf2>
    2de0:	0b012783          	lw	a5,176(sp)
    2de4:	0a010c93          	addi	s9,sp,160
    2de8:	09010913          	addi	s2,sp,144
    2dec:	08f12823          	sw	a5,144(sp)
    2df0:	0b412783          	lw	a5,180(sp)
    2df4:	08010613          	addi	a2,sp,128
    2df8:	00090593          	mv	a1,s2
    2dfc:	08f12a23          	sw	a5,148(sp)
    2e00:	0b812783          	lw	a5,184(sp)
    2e04:	000c8513          	mv	a0,s9
    2e08:	04c12023          	sw	a2,64(sp)
    2e0c:	08f12c23          	sw	a5,152(sp)
    2e10:	0bc12783          	lw	a5,188(sp)
    2e14:	08012023          	sw	zero,128(sp)
    2e18:	08012223          	sw	zero,132(sp)
    2e1c:	08f12e23          	sw	a5,156(sp)
    2e20:	3ffc07b7          	lui	a5,0x3ffc0
    2e24:	08f12623          	sw	a5,140(sp)
    2e28:	08012423          	sw	zero,136(sp)
    2e2c:	7480e0ef          	jal	ra,11574 <__multf3>
    2e30:	0a012683          	lw	a3,160(sp)
    2e34:	0a412e03          	lw	t3,164(sp)
    2e38:	0a812e83          	lw	t4,168(sp)
    2e3c:	0ac12f03          	lw	t5,172(sp)
    2e40:	000c8593          	mv	a1,s9
    2e44:	000a8513          	mv	a0,s5
    2e48:	0ad12823          	sw	a3,176(sp)
    2e4c:	04d12223          	sw	a3,68(sp)
    2e50:	0bc12a23          	sw	t3,180(sp)
    2e54:	03c12223          	sw	t3,36(sp)
    2e58:	0bd12c23          	sw	t4,184(sp)
    2e5c:	03d12023          	sw	t4,32(sp)
    2e60:	0be12e23          	sw	t5,188(sp)
    2e64:	01e12e23          	sw	t5,28(sp)
    2e68:	0a012023          	sw	zero,160(sp)
    2e6c:	0a012223          	sw	zero,164(sp)
    2e70:	0a012423          	sw	zero,168(sp)
    2e74:	0a012623          	sw	zero,172(sp)
    2e78:	3a80e0ef          	jal	ra,11220 <__eqtf2>
    2e7c:	01c12f03          	lw	t5,28(sp)
    2e80:	02012e83          	lw	t4,32(sp)
    2e84:	02412e03          	lw	t3,36(sp)
    2e88:	04412683          	lw	a3,68(sp)
    2e8c:	05412883          	lw	a7,84(sp)
    2e90:	00051663          	bnez	a0,2e9c <_vfprintf_r+0x2860>
    2e94:	00100793          	li	a5,1
    2e98:	0cf12623          	sw	a5,204(sp)
    2e9c:	000147b7          	lui	a5,0x14
    2ea0:	2b478793          	addi	a5,a5,692 # 142b4 <__clzsi2+0x9c>
    2ea4:	02f12223          	sw	a5,36(sp)
    2ea8:	f3cff06f          	j	25e4 <_vfprintf_r+0x1fa8>
    2eac:	0d610713          	addi	a4,sp,214
    2eb0:	00069863          	bnez	a3,2ec0 <_vfprintf_r+0x2884>
    2eb4:	03000713          	li	a4,48
    2eb8:	0ce10b23          	sb	a4,214(sp)
    2ebc:	0d710713          	addi	a4,sp,215
    2ec0:	1b010693          	addi	a3,sp,432
    2ec4:	03078793          	addi	a5,a5,48
    2ec8:	40d706b3          	sub	a3,a4,a3
    2ecc:	00f70023          	sb	a5,0(a4)
    2ed0:	0dd68793          	addi	a5,a3,221
    2ed4:	02f12c23          	sw	a5,56(sp)
    2ed8:	e5dfd06f          	j	d34 <_vfprintf_r+0x6f8>
    2edc:	06700493          	li	s1,103
    2ee0:	03c12603          	lw	a2,60(sp)
    2ee4:	0ff00713          	li	a4,255
    2ee8:	00064783          	lbu	a5,0(a2)
    2eec:	10e78263          	beq	a5,a4,2ff0 <_vfprintf_r+0x29b4>
    2ef0:	01c12683          	lw	a3,28(sp)
    2ef4:	00000513          	li	a0,0
    2ef8:	00000593          	li	a1,0
    2efc:	00d7de63          	bge	a5,a3,2f18 <_vfprintf_r+0x28dc>
    2f00:	40f686b3          	sub	a3,a3,a5
    2f04:	00164783          	lbu	a5,1(a2)
    2f08:	04078463          	beqz	a5,2f50 <_vfprintf_r+0x2914>
    2f0c:	00158593          	addi	a1,a1,1
    2f10:	00160613          	addi	a2,a2,1
    2f14:	fee794e3          	bne	a5,a4,2efc <_vfprintf_r+0x28c0>
    2f18:	02c12e23          	sw	a2,60(sp)
    2f1c:	00d12e23          	sw	a3,28(sp)
    2f20:	02b12223          	sw	a1,36(sp)
    2f24:	02a12423          	sw	a0,40(sp)
    2f28:	02812703          	lw	a4,40(sp)
    2f2c:	02412783          	lw	a5,36(sp)
    2f30:	00e787b3          	add	a5,a5,a4
    2f34:	04812703          	lw	a4,72(sp)
    2f38:	02e787b3          	mul	a5,a5,a4
    2f3c:	01978cb3          	add	s9,a5,s9
    2f40:	fffcca93          	not	s5,s9
    2f44:	41fada93          	srai	s5,s5,0x1f
    2f48:	015cfab3          	and	s5,s9,s5
    2f4c:	e2dfd06f          	j	d78 <_vfprintf_r+0x73c>
    2f50:	00064783          	lbu	a5,0(a2)
    2f54:	00150513          	addi	a0,a0,1
    2f58:	fbdff06f          	j	2f14 <_vfprintf_r+0x28d8>
    2f5c:	02c12783          	lw	a5,44(sp)
    2f60:	06600493          	li	s1,102
    2f64:	00f70cb3          	add	s9,a4,a5
    2f68:	01bc8cb3          	add	s9,s9,s11
    2f6c:	bc1ff06f          	j	2b2c <_vfprintf_r+0x24f0>
    2f70:	05012783          	lw	a5,80(sp)
    2f74:	0017f793          	andi	a5,a5,1
    2f78:	00079463          	bnez	a5,2f80 <_vfprintf_r+0x2944>
    2f7c:	dd9fd06f          	j	d54 <_vfprintf_r+0x718>
    2f80:	dcdfd06f          	j	d4c <_vfprintf_r+0x710>
    2f84:	00079a63          	bnez	a5,2f98 <_vfprintf_r+0x295c>
    2f88:	00100a93          	li	s5,1
    2f8c:	06600493          	li	s1,102
    2f90:	00100c93          	li	s9,1
    2f94:	951ff06f          	j	28e4 <_vfprintf_r+0x22a8>
    2f98:	02c12783          	lw	a5,44(sp)
    2f9c:	06600493          	li	s1,102
    2fa0:	00178c93          	addi	s9,a5,1
    2fa4:	01bc8cb3          	add	s9,s9,s11
    2fa8:	fffcca93          	not	s5,s9
    2fac:	41fada93          	srai	s5,s5,0x1f
    2fb0:	015cfab3          	and	s5,s9,s5
    2fb4:	931ff06f          	j	28e4 <_vfprintf_r+0x22a8>
    2fb8:	00088693          	mv	a3,a7
    2fbc:	bc5fe06f          	j	1b80 <_vfprintf_r+0x1544>
    2fc0:	01412783          	lw	a5,20(sp)
    2fc4:	0007ad83          	lw	s11,0(a5)
    2fc8:	00478793          	addi	a5,a5,4
    2fcc:	000dd463          	bgez	s11,2fd4 <_vfprintf_r+0x2998>
    2fd0:	fff00d93          	li	s11,-1
    2fd4:	00144483          	lbu	s1,1(s0)
    2fd8:	00f12a23          	sw	a5,20(sp)
    2fdc:	00070413          	mv	s0,a4
    2fe0:	80dfd06f          	j	7ec <_vfprintf_r+0x1b0>
    2fe4:	00200793          	li	a5,2
    2fe8:	02f12c23          	sw	a5,56(sp)
    2fec:	d49fd06f          	j	d34 <_vfprintf_r+0x6f8>
    2ff0:	02012423          	sw	zero,40(sp)
    2ff4:	02012223          	sw	zero,36(sp)
    2ff8:	f31ff06f          	j	2f28 <_vfprintf_r+0x28ec>
    2ffc:	00cc5783          	lhu	a5,12(s8)
    3000:	0407e793          	ori	a5,a5,64
    3004:	00fc1623          	sh	a5,12(s8)
    3008:	98dfd06f          	j	994 <_vfprintf_r+0x358>
    300c:	000d8913          	mv	s2,s11
    3010:	cf1ff06f          	j	2d00 <_vfprintf_r+0x26c4>

00003014 <vfprintf>:
    3014:	00050793          	mv	a5,a0
    3018:	1d81a503          	lw	a0,472(gp) # 15a90 <_impure_ptr>
    301c:	00060693          	mv	a3,a2
    3020:	00058613          	mv	a2,a1
    3024:	00078593          	mv	a1,a5
    3028:	e14fd06f          	j	63c <_vfprintf_r>

0000302c <__sbprintf>:
    302c:	00c5d783          	lhu	a5,12(a1)
    3030:	0645ae03          	lw	t3,100(a1)
    3034:	00e5d303          	lhu	t1,14(a1)
    3038:	01c5a883          	lw	a7,28(a1)
    303c:	0245a803          	lw	a6,36(a1)
    3040:	b8010113          	addi	sp,sp,-1152
    3044:	ffd7f793          	andi	a5,a5,-3
    3048:	40000713          	li	a4,1024
    304c:	46812c23          	sw	s0,1144(sp)
    3050:	00f11a23          	sh	a5,20(sp)
    3054:	00058413          	mv	s0,a1
    3058:	07010793          	addi	a5,sp,112
    305c:	00810593          	addi	a1,sp,8
    3060:	46912a23          	sw	s1,1140(sp)
    3064:	47212823          	sw	s2,1136(sp)
    3068:	46112e23          	sw	ra,1148(sp)
    306c:	00050913          	mv	s2,a0
    3070:	07c12623          	sw	t3,108(sp)
    3074:	00611b23          	sh	t1,22(sp)
    3078:	03112223          	sw	a7,36(sp)
    307c:	03012623          	sw	a6,44(sp)
    3080:	00f12423          	sw	a5,8(sp)
    3084:	00f12c23          	sw	a5,24(sp)
    3088:	00e12823          	sw	a4,16(sp)
    308c:	00e12e23          	sw	a4,28(sp)
    3090:	02012023          	sw	zero,32(sp)
    3094:	da8fd0ef          	jal	ra,63c <_vfprintf_r>
    3098:	00050493          	mv	s1,a0
    309c:	02055c63          	bgez	a0,30d4 <__sbprintf+0xa8>
    30a0:	01415783          	lhu	a5,20(sp)
    30a4:	0407f793          	andi	a5,a5,64
    30a8:	00078863          	beqz	a5,30b8 <__sbprintf+0x8c>
    30ac:	00c45783          	lhu	a5,12(s0)
    30b0:	0407e793          	ori	a5,a5,64
    30b4:	00f41623          	sh	a5,12(s0)
    30b8:	47c12083          	lw	ra,1148(sp)
    30bc:	47812403          	lw	s0,1144(sp)
    30c0:	47012903          	lw	s2,1136(sp)
    30c4:	00048513          	mv	a0,s1
    30c8:	47412483          	lw	s1,1140(sp)
    30cc:	48010113          	addi	sp,sp,1152
    30d0:	00008067          	ret
    30d4:	00810593          	addi	a1,sp,8
    30d8:	00090513          	mv	a0,s2
    30dc:	4e8000ef          	jal	ra,35c4 <_fflush_r>
    30e0:	fc0500e3          	beqz	a0,30a0 <__sbprintf+0x74>
    30e4:	fff00493          	li	s1,-1
    30e8:	fb9ff06f          	j	30a0 <__sbprintf+0x74>

000030ec <__swsetup_r>:
    30ec:	1d81a783          	lw	a5,472(gp) # 15a90 <_impure_ptr>
    30f0:	ff010113          	addi	sp,sp,-16
    30f4:	00812423          	sw	s0,8(sp)
    30f8:	00912223          	sw	s1,4(sp)
    30fc:	00112623          	sw	ra,12(sp)
    3100:	00050493          	mv	s1,a0
    3104:	00058413          	mv	s0,a1
    3108:	00078663          	beqz	a5,3114 <__swsetup_r+0x28>
    310c:	0387a703          	lw	a4,56(a5)
    3110:	0e070063          	beqz	a4,31f0 <__swsetup_r+0x104>
    3114:	00c41703          	lh	a4,12(s0)
    3118:	01071793          	slli	a5,a4,0x10
    311c:	00877693          	andi	a3,a4,8
    3120:	0107d793          	srli	a5,a5,0x10
    3124:	04068063          	beqz	a3,3164 <__swsetup_r+0x78>
    3128:	01042683          	lw	a3,16(s0)
    312c:	06068063          	beqz	a3,318c <__swsetup_r+0xa0>
    3130:	0017f613          	andi	a2,a5,1
    3134:	08060463          	beqz	a2,31bc <__swsetup_r+0xd0>
    3138:	01442603          	lw	a2,20(s0)
    313c:	00042423          	sw	zero,8(s0)
    3140:	00000513          	li	a0,0
    3144:	40c00633          	neg	a2,a2
    3148:	00c42c23          	sw	a2,24(s0)
    314c:	08068663          	beqz	a3,31d8 <__swsetup_r+0xec>
    3150:	00c12083          	lw	ra,12(sp)
    3154:	00812403          	lw	s0,8(sp)
    3158:	00412483          	lw	s1,4(sp)
    315c:	01010113          	addi	sp,sp,16
    3160:	00008067          	ret
    3164:	0107f693          	andi	a3,a5,16
    3168:	0c068463          	beqz	a3,3230 <__swsetup_r+0x144>
    316c:	0047f793          	andi	a5,a5,4
    3170:	08079663          	bnez	a5,31fc <__swsetup_r+0x110>
    3174:	01042683          	lw	a3,16(s0)
    3178:	00876713          	ori	a4,a4,8
    317c:	01071793          	slli	a5,a4,0x10
    3180:	00e41623          	sh	a4,12(s0)
    3184:	0107d793          	srli	a5,a5,0x10
    3188:	fa0694e3          	bnez	a3,3130 <__swsetup_r+0x44>
    318c:	2807f613          	andi	a2,a5,640
    3190:	20000593          	li	a1,512
    3194:	f8b60ee3          	beq	a2,a1,3130 <__swsetup_r+0x44>
    3198:	00040593          	mv	a1,s0
    319c:	00048513          	mv	a0,s1
    31a0:	265030ef          	jal	ra,6c04 <__smakebuf_r>
    31a4:	00c41703          	lh	a4,12(s0)
    31a8:	01042683          	lw	a3,16(s0)
    31ac:	01071793          	slli	a5,a4,0x10
    31b0:	0107d793          	srli	a5,a5,0x10
    31b4:	0017f613          	andi	a2,a5,1
    31b8:	f80610e3          	bnez	a2,3138 <__swsetup_r+0x4c>
    31bc:	0027f613          	andi	a2,a5,2
    31c0:	00000593          	li	a1,0
    31c4:	00061463          	bnez	a2,31cc <__swsetup_r+0xe0>
    31c8:	01442583          	lw	a1,20(s0)
    31cc:	00b42423          	sw	a1,8(s0)
    31d0:	00000513          	li	a0,0
    31d4:	f6069ee3          	bnez	a3,3150 <__swsetup_r+0x64>
    31d8:	0807f793          	andi	a5,a5,128
    31dc:	f6078ae3          	beqz	a5,3150 <__swsetup_r+0x64>
    31e0:	04076713          	ori	a4,a4,64
    31e4:	00e41623          	sh	a4,12(s0)
    31e8:	fff00513          	li	a0,-1
    31ec:	f65ff06f          	j	3150 <__swsetup_r+0x64>
    31f0:	00078513          	mv	a0,a5
    31f4:	76c000ef          	jal	ra,3960 <__sinit>
    31f8:	f1dff06f          	j	3114 <__swsetup_r+0x28>
    31fc:	03042583          	lw	a1,48(s0)
    3200:	00058e63          	beqz	a1,321c <__swsetup_r+0x130>
    3204:	04040793          	addi	a5,s0,64
    3208:	00f58863          	beq	a1,a5,3218 <__swsetup_r+0x12c>
    320c:	00048513          	mv	a0,s1
    3210:	11d000ef          	jal	ra,3b2c <_free_r>
    3214:	00c41703          	lh	a4,12(s0)
    3218:	02042823          	sw	zero,48(s0)
    321c:	01042683          	lw	a3,16(s0)
    3220:	fdb77713          	andi	a4,a4,-37
    3224:	00042223          	sw	zero,4(s0)
    3228:	00d42023          	sw	a3,0(s0)
    322c:	f4dff06f          	j	3178 <__swsetup_r+0x8c>
    3230:	00900793          	li	a5,9
    3234:	00f4a023          	sw	a5,0(s1)
    3238:	04076713          	ori	a4,a4,64
    323c:	00e41623          	sh	a4,12(s0)
    3240:	fff00513          	li	a0,-1
    3244:	f0dff06f          	j	3150 <__swsetup_r+0x64>

00003248 <__call_exitprocs>:
    3248:	fd010113          	addi	sp,sp,-48
    324c:	01412c23          	sw	s4,24(sp)
    3250:	1d01aa03          	lw	s4,464(gp) # 15a88 <_global_impure_ptr>
    3254:	03212023          	sw	s2,32(sp)
    3258:	02112623          	sw	ra,44(sp)
    325c:	148a2903          	lw	s2,328(s4)
    3260:	02812423          	sw	s0,40(sp)
    3264:	02912223          	sw	s1,36(sp)
    3268:	01312e23          	sw	s3,28(sp)
    326c:	01512a23          	sw	s5,20(sp)
    3270:	01612823          	sw	s6,16(sp)
    3274:	01712623          	sw	s7,12(sp)
    3278:	01812423          	sw	s8,8(sp)
    327c:	04090063          	beqz	s2,32bc <__call_exitprocs+0x74>
    3280:	00050b13          	mv	s6,a0
    3284:	00058b93          	mv	s7,a1
    3288:	00100a93          	li	s5,1
    328c:	fff00993          	li	s3,-1
    3290:	00492483          	lw	s1,4(s2) # 3ffe0004 <//.+0x3ffca08c>
    3294:	fff48413          	addi	s0,s1,-1
    3298:	02044263          	bltz	s0,32bc <__call_exitprocs+0x74>
    329c:	00249493          	slli	s1,s1,0x2
    32a0:	009904b3          	add	s1,s2,s1
    32a4:	040b8463          	beqz	s7,32ec <__call_exitprocs+0xa4>
    32a8:	1044a783          	lw	a5,260(s1)
    32ac:	05778063          	beq	a5,s7,32ec <__call_exitprocs+0xa4>
    32b0:	fff40413          	addi	s0,s0,-1
    32b4:	ffc48493          	addi	s1,s1,-4
    32b8:	ff3416e3          	bne	s0,s3,32a4 <__call_exitprocs+0x5c>
    32bc:	02c12083          	lw	ra,44(sp)
    32c0:	02812403          	lw	s0,40(sp)
    32c4:	02412483          	lw	s1,36(sp)
    32c8:	02012903          	lw	s2,32(sp)
    32cc:	01c12983          	lw	s3,28(sp)
    32d0:	01812a03          	lw	s4,24(sp)
    32d4:	01412a83          	lw	s5,20(sp)
    32d8:	01012b03          	lw	s6,16(sp)
    32dc:	00c12b83          	lw	s7,12(sp)
    32e0:	00812c03          	lw	s8,8(sp)
    32e4:	03010113          	addi	sp,sp,48
    32e8:	00008067          	ret
    32ec:	00492783          	lw	a5,4(s2)
    32f0:	0044a683          	lw	a3,4(s1)
    32f4:	fff78793          	addi	a5,a5,-1
    32f8:	04878e63          	beq	a5,s0,3354 <__call_exitprocs+0x10c>
    32fc:	0004a223          	sw	zero,4(s1)
    3300:	fa0688e3          	beqz	a3,32b0 <__call_exitprocs+0x68>
    3304:	18892783          	lw	a5,392(s2)
    3308:	008a9733          	sll	a4,s5,s0
    330c:	00492c03          	lw	s8,4(s2)
    3310:	00f777b3          	and	a5,a4,a5
    3314:	02079263          	bnez	a5,3338 <__call_exitprocs+0xf0>
    3318:	000680e7          	jalr	a3
    331c:	00492703          	lw	a4,4(s2)
    3320:	148a2783          	lw	a5,328(s4)
    3324:	01871463          	bne	a4,s8,332c <__call_exitprocs+0xe4>
    3328:	f92784e3          	beq	a5,s2,32b0 <__call_exitprocs+0x68>
    332c:	f80788e3          	beqz	a5,32bc <__call_exitprocs+0x74>
    3330:	00078913          	mv	s2,a5
    3334:	f5dff06f          	j	3290 <__call_exitprocs+0x48>
    3338:	18c92783          	lw	a5,396(s2)
    333c:	0844a583          	lw	a1,132(s1)
    3340:	00f77733          	and	a4,a4,a5
    3344:	00071c63          	bnez	a4,335c <__call_exitprocs+0x114>
    3348:	000b0513          	mv	a0,s6
    334c:	000680e7          	jalr	a3
    3350:	fcdff06f          	j	331c <__call_exitprocs+0xd4>
    3354:	00892223          	sw	s0,4(s2)
    3358:	fa9ff06f          	j	3300 <__call_exitprocs+0xb8>
    335c:	00058513          	mv	a0,a1
    3360:	000680e7          	jalr	a3
    3364:	fb9ff06f          	j	331c <__call_exitprocs+0xd4>

00003368 <__sflush_r>:
    3368:	00c59783          	lh	a5,12(a1)
    336c:	fe010113          	addi	sp,sp,-32
    3370:	00812c23          	sw	s0,24(sp)
    3374:	01312623          	sw	s3,12(sp)
    3378:	00112e23          	sw	ra,28(sp)
    337c:	00912a23          	sw	s1,20(sp)
    3380:	01212823          	sw	s2,16(sp)
    3384:	0087f693          	andi	a3,a5,8
    3388:	00058413          	mv	s0,a1
    338c:	00050993          	mv	s3,a0
    3390:	10069a63          	bnez	a3,34a4 <__sflush_r+0x13c>
    3394:	00001737          	lui	a4,0x1
    3398:	80070713          	addi	a4,a4,-2048 # 800 <_vfprintf_r+0x1c4>
    339c:	0045a683          	lw	a3,4(a1)
    33a0:	00e7e7b3          	or	a5,a5,a4
    33a4:	00f59623          	sh	a5,12(a1)
    33a8:	18d05463          	blez	a3,3530 <__sflush_r+0x1c8>
    33ac:	02842703          	lw	a4,40(s0)
    33b0:	0c070a63          	beqz	a4,3484 <__sflush_r+0x11c>
    33b4:	0009a483          	lw	s1,0(s3)
    33b8:	01079693          	slli	a3,a5,0x10
    33bc:	0009a023          	sw	zero,0(s3)
    33c0:	01379613          	slli	a2,a5,0x13
    33c4:	01c42583          	lw	a1,28(s0)
    33c8:	0106d693          	srli	a3,a3,0x10
    33cc:	16064863          	bltz	a2,353c <__sflush_r+0x1d4>
    33d0:	00100693          	li	a3,1
    33d4:	00000613          	li	a2,0
    33d8:	00098513          	mv	a0,s3
    33dc:	000700e7          	jalr	a4
    33e0:	fff00793          	li	a5,-1
    33e4:	18f50c63          	beq	a0,a5,357c <__sflush_r+0x214>
    33e8:	00c45683          	lhu	a3,12(s0)
    33ec:	02842703          	lw	a4,40(s0)
    33f0:	01c42583          	lw	a1,28(s0)
    33f4:	0046f693          	andi	a3,a3,4
    33f8:	00068e63          	beqz	a3,3414 <__sflush_r+0xac>
    33fc:	00442683          	lw	a3,4(s0)
    3400:	03042783          	lw	a5,48(s0)
    3404:	40d50533          	sub	a0,a0,a3
    3408:	00078663          	beqz	a5,3414 <__sflush_r+0xac>
    340c:	03c42783          	lw	a5,60(s0)
    3410:	40f50533          	sub	a0,a0,a5
    3414:	00050613          	mv	a2,a0
    3418:	00000693          	li	a3,0
    341c:	00098513          	mv	a0,s3
    3420:	000700e7          	jalr	a4
    3424:	fff00793          	li	a5,-1
    3428:	10f51e63          	bne	a0,a5,3544 <__sflush_r+0x1dc>
    342c:	0009a703          	lw	a4,0(s3)
    3430:	00c41783          	lh	a5,12(s0)
    3434:	16070863          	beqz	a4,35a4 <__sflush_r+0x23c>
    3438:	01d00693          	li	a3,29
    343c:	00d70663          	beq	a4,a3,3448 <__sflush_r+0xe0>
    3440:	01600693          	li	a3,22
    3444:	0cd71463          	bne	a4,a3,350c <__sflush_r+0x1a4>
    3448:	01042683          	lw	a3,16(s0)
    344c:	fffff737          	lui	a4,0xfffff
    3450:	7ff70713          	addi	a4,a4,2047 # fffff7ff <//.+0xfffe9887>
    3454:	00e7f7b3          	and	a5,a5,a4
    3458:	00f41623          	sh	a5,12(s0)
    345c:	00042223          	sw	zero,4(s0)
    3460:	00d42023          	sw	a3,0(s0)
    3464:	03042583          	lw	a1,48(s0)
    3468:	0099a023          	sw	s1,0(s3)
    346c:	00058c63          	beqz	a1,3484 <__sflush_r+0x11c>
    3470:	04040793          	addi	a5,s0,64
    3474:	00f58663          	beq	a1,a5,3480 <__sflush_r+0x118>
    3478:	00098513          	mv	a0,s3
    347c:	6b0000ef          	jal	ra,3b2c <_free_r>
    3480:	02042823          	sw	zero,48(s0)
    3484:	00000513          	li	a0,0
    3488:	01c12083          	lw	ra,28(sp)
    348c:	01812403          	lw	s0,24(sp)
    3490:	01412483          	lw	s1,20(sp)
    3494:	01012903          	lw	s2,16(sp)
    3498:	00c12983          	lw	s3,12(sp)
    349c:	02010113          	addi	sp,sp,32
    34a0:	00008067          	ret
    34a4:	0105a903          	lw	s2,16(a1)
    34a8:	fc090ee3          	beqz	s2,3484 <__sflush_r+0x11c>
    34ac:	0005a483          	lw	s1,0(a1)
    34b0:	01079713          	slli	a4,a5,0x10
    34b4:	01075713          	srli	a4,a4,0x10
    34b8:	00377713          	andi	a4,a4,3
    34bc:	0125a023          	sw	s2,0(a1)
    34c0:	412484b3          	sub	s1,s1,s2
    34c4:	00000793          	li	a5,0
    34c8:	00071463          	bnez	a4,34d0 <__sflush_r+0x168>
    34cc:	0145a783          	lw	a5,20(a1)
    34d0:	00f42423          	sw	a5,8(s0)
    34d4:	00904863          	bgtz	s1,34e4 <__sflush_r+0x17c>
    34d8:	fadff06f          	j	3484 <__sflush_r+0x11c>
    34dc:	00a90933          	add	s2,s2,a0
    34e0:	fa9052e3          	blez	s1,3484 <__sflush_r+0x11c>
    34e4:	02442783          	lw	a5,36(s0)
    34e8:	01c42583          	lw	a1,28(s0)
    34ec:	00048693          	mv	a3,s1
    34f0:	00090613          	mv	a2,s2
    34f4:	00098513          	mv	a0,s3
    34f8:	000780e7          	jalr	a5
    34fc:	40a484b3          	sub	s1,s1,a0
    3500:	fca04ee3          	bgtz	a0,34dc <__sflush_r+0x174>
    3504:	00c45783          	lhu	a5,12(s0)
    3508:	fff00513          	li	a0,-1
    350c:	0407e793          	ori	a5,a5,64
    3510:	01c12083          	lw	ra,28(sp)
    3514:	00f41623          	sh	a5,12(s0)
    3518:	01812403          	lw	s0,24(sp)
    351c:	01412483          	lw	s1,20(sp)
    3520:	01012903          	lw	s2,16(sp)
    3524:	00c12983          	lw	s3,12(sp)
    3528:	02010113          	addi	sp,sp,32
    352c:	00008067          	ret
    3530:	03c5a703          	lw	a4,60(a1)
    3534:	e6e04ce3          	bgtz	a4,33ac <__sflush_r+0x44>
    3538:	f4dff06f          	j	3484 <__sflush_r+0x11c>
    353c:	05042503          	lw	a0,80(s0)
    3540:	eb5ff06f          	j	33f4 <__sflush_r+0x8c>
    3544:	00c45783          	lhu	a5,12(s0)
    3548:	fffff737          	lui	a4,0xfffff
    354c:	7ff70713          	addi	a4,a4,2047 # fffff7ff <//.+0xfffe9887>
    3550:	00e7f7b3          	and	a5,a5,a4
    3554:	01042683          	lw	a3,16(s0)
    3558:	01079793          	slli	a5,a5,0x10
    355c:	4107d793          	srai	a5,a5,0x10
    3560:	00f41623          	sh	a5,12(s0)
    3564:	00042223          	sw	zero,4(s0)
    3568:	00d42023          	sw	a3,0(s0)
    356c:	01379713          	slli	a4,a5,0x13
    3570:	ee075ae3          	bgez	a4,3464 <__sflush_r+0xfc>
    3574:	04a42823          	sw	a0,80(s0)
    3578:	eedff06f          	j	3464 <__sflush_r+0xfc>
    357c:	0009a783          	lw	a5,0(s3)
    3580:	e60784e3          	beqz	a5,33e8 <__sflush_r+0x80>
    3584:	01d00713          	li	a4,29
    3588:	02e78863          	beq	a5,a4,35b8 <__sflush_r+0x250>
    358c:	01600713          	li	a4,22
    3590:	02e78463          	beq	a5,a4,35b8 <__sflush_r+0x250>
    3594:	00c45783          	lhu	a5,12(s0)
    3598:	0407e793          	ori	a5,a5,64
    359c:	00f41623          	sh	a5,12(s0)
    35a0:	ee9ff06f          	j	3488 <__sflush_r+0x120>
    35a4:	fffff737          	lui	a4,0xfffff
    35a8:	7ff70713          	addi	a4,a4,2047 # fffff7ff <//.+0xfffe9887>
    35ac:	01042683          	lw	a3,16(s0)
    35b0:	00e7f7b3          	and	a5,a5,a4
    35b4:	fadff06f          	j	3560 <__sflush_r+0x1f8>
    35b8:	0099a023          	sw	s1,0(s3)
    35bc:	00000513          	li	a0,0
    35c0:	ec9ff06f          	j	3488 <__sflush_r+0x120>

000035c4 <_fflush_r>:
    35c4:	fe010113          	addi	sp,sp,-32
    35c8:	00812c23          	sw	s0,24(sp)
    35cc:	00112e23          	sw	ra,28(sp)
    35d0:	00050413          	mv	s0,a0
    35d4:	00050663          	beqz	a0,35e0 <_fflush_r+0x1c>
    35d8:	03852783          	lw	a5,56(a0)
    35dc:	02078063          	beqz	a5,35fc <_fflush_r+0x38>
    35e0:	00c59783          	lh	a5,12(a1)
    35e4:	02079663          	bnez	a5,3610 <_fflush_r+0x4c>
    35e8:	01c12083          	lw	ra,28(sp)
    35ec:	01812403          	lw	s0,24(sp)
    35f0:	00000513          	li	a0,0
    35f4:	02010113          	addi	sp,sp,32
    35f8:	00008067          	ret
    35fc:	00b12623          	sw	a1,12(sp)
    3600:	360000ef          	jal	ra,3960 <__sinit>
    3604:	00c12583          	lw	a1,12(sp)
    3608:	00c59783          	lh	a5,12(a1)
    360c:	fc078ee3          	beqz	a5,35e8 <_fflush_r+0x24>
    3610:	00040513          	mv	a0,s0
    3614:	01812403          	lw	s0,24(sp)
    3618:	01c12083          	lw	ra,28(sp)
    361c:	02010113          	addi	sp,sp,32
    3620:	d49ff06f          	j	3368 <__sflush_r>

00003624 <fflush>:
    3624:	00050593          	mv	a1,a0
    3628:	00050663          	beqz	a0,3634 <fflush+0x10>
    362c:	1d81a503          	lw	a0,472(gp) # 15a90 <_impure_ptr>
    3630:	f95ff06f          	j	35c4 <_fflush_r>
    3634:	1d01a503          	lw	a0,464(gp) # 15a88 <_global_impure_ptr>
    3638:	000035b7          	lui	a1,0x3
    363c:	5c458593          	addi	a1,a1,1476 # 35c4 <_fflush_r>
    3640:	0910006f          	j	3ed0 <_fwalk_reent>

00003644 <__fp_lock>:
    3644:	00000513          	li	a0,0
    3648:	00008067          	ret

0000364c <_cleanup_r>:
    364c:	0000d5b7          	lui	a1,0xd
    3650:	e0458593          	addi	a1,a1,-508 # ce04 <_fclose_r>
    3654:	07d0006f          	j	3ed0 <_fwalk_reent>

00003658 <__sinit.part.0>:
    3658:	fe010113          	addi	sp,sp,-32
    365c:	000037b7          	lui	a5,0x3
    3660:	00112e23          	sw	ra,28(sp)
    3664:	00812c23          	sw	s0,24(sp)
    3668:	00912a23          	sw	s1,20(sp)
    366c:	01212823          	sw	s2,16(sp)
    3670:	01312623          	sw	s3,12(sp)
    3674:	01412423          	sw	s4,8(sp)
    3678:	01512223          	sw	s5,4(sp)
    367c:	01612023          	sw	s6,0(sp)
    3680:	00452403          	lw	s0,4(a0)
    3684:	64c78793          	addi	a5,a5,1612 # 364c <_cleanup_r>
    3688:	02f52e23          	sw	a5,60(a0)
    368c:	2ec50713          	addi	a4,a0,748
    3690:	00300793          	li	a5,3
    3694:	2ee52423          	sw	a4,744(a0)
    3698:	2ef52223          	sw	a5,740(a0)
    369c:	2e052023          	sw	zero,736(a0)
    36a0:	00400793          	li	a5,4
    36a4:	00050913          	mv	s2,a0
    36a8:	00f42623          	sw	a5,12(s0)
    36ac:	00800613          	li	a2,8
    36b0:	00000593          	li	a1,0
    36b4:	06042223          	sw	zero,100(s0)
    36b8:	00042023          	sw	zero,0(s0)
    36bc:	00042223          	sw	zero,4(s0)
    36c0:	00042423          	sw	zero,8(s0)
    36c4:	00042823          	sw	zero,16(s0)
    36c8:	00042a23          	sw	zero,20(s0)
    36cc:	00042c23          	sw	zero,24(s0)
    36d0:	05c40513          	addi	a0,s0,92
    36d4:	e01fc0ef          	jal	ra,4d4 <memset>
    36d8:	00009b37          	lui	s6,0x9
    36dc:	00892483          	lw	s1,8(s2)
    36e0:	00009ab7          	lui	s5,0x9
    36e4:	00009a37          	lui	s4,0x9
    36e8:	000099b7          	lui	s3,0x9
    36ec:	968b0b13          	addi	s6,s6,-1688 # 8968 <__sread>
    36f0:	9cca8a93          	addi	s5,s5,-1588 # 89cc <__swrite>
    36f4:	a54a0a13          	addi	s4,s4,-1452 # 8a54 <__sseek>
    36f8:	abc98993          	addi	s3,s3,-1348 # 8abc <__sclose>
    36fc:	000107b7          	lui	a5,0x10
    3700:	03642023          	sw	s6,32(s0)
    3704:	03542223          	sw	s5,36(s0)
    3708:	03442423          	sw	s4,40(s0)
    370c:	03342623          	sw	s3,44(s0)
    3710:	00842e23          	sw	s0,28(s0)
    3714:	00978793          	addi	a5,a5,9 # 10009 <__udivdi3+0x2d1>
    3718:	00f4a623          	sw	a5,12(s1)
    371c:	00800613          	li	a2,8
    3720:	00000593          	li	a1,0
    3724:	0604a223          	sw	zero,100(s1)
    3728:	0004a023          	sw	zero,0(s1)
    372c:	0004a223          	sw	zero,4(s1)
    3730:	0004a423          	sw	zero,8(s1)
    3734:	0004a823          	sw	zero,16(s1)
    3738:	0004aa23          	sw	zero,20(s1)
    373c:	0004ac23          	sw	zero,24(s1)
    3740:	05c48513          	addi	a0,s1,92
    3744:	d91fc0ef          	jal	ra,4d4 <memset>
    3748:	00c92403          	lw	s0,12(s2)
    374c:	000207b7          	lui	a5,0x20
    3750:	0364a023          	sw	s6,32(s1)
    3754:	0354a223          	sw	s5,36(s1)
    3758:	0344a423          	sw	s4,40(s1)
    375c:	0334a623          	sw	s3,44(s1)
    3760:	0094ae23          	sw	s1,28(s1)
    3764:	01278793          	addi	a5,a5,18 # 20012 <//.+0xa09a>
    3768:	00f42623          	sw	a5,12(s0)
    376c:	06042223          	sw	zero,100(s0)
    3770:	00042023          	sw	zero,0(s0)
    3774:	00042223          	sw	zero,4(s0)
    3778:	00042423          	sw	zero,8(s0)
    377c:	00042823          	sw	zero,16(s0)
    3780:	00042a23          	sw	zero,20(s0)
    3784:	00042c23          	sw	zero,24(s0)
    3788:	05c40513          	addi	a0,s0,92
    378c:	00800613          	li	a2,8
    3790:	00000593          	li	a1,0
    3794:	d41fc0ef          	jal	ra,4d4 <memset>
    3798:	01c12083          	lw	ra,28(sp)
    379c:	03642023          	sw	s6,32(s0)
    37a0:	03542223          	sw	s5,36(s0)
    37a4:	03442423          	sw	s4,40(s0)
    37a8:	03342623          	sw	s3,44(s0)
    37ac:	00842e23          	sw	s0,28(s0)
    37b0:	01812403          	lw	s0,24(sp)
    37b4:	00100793          	li	a5,1
    37b8:	02f92c23          	sw	a5,56(s2)
    37bc:	01412483          	lw	s1,20(sp)
    37c0:	01012903          	lw	s2,16(sp)
    37c4:	00c12983          	lw	s3,12(sp)
    37c8:	00812a03          	lw	s4,8(sp)
    37cc:	00412a83          	lw	s5,4(sp)
    37d0:	00012b03          	lw	s6,0(sp)
    37d4:	02010113          	addi	sp,sp,32
    37d8:	00008067          	ret

000037dc <__fp_unlock>:
    37dc:	00000513          	li	a0,0
    37e0:	00008067          	ret

000037e4 <__sfmoreglue>:
    37e4:	ff010113          	addi	sp,sp,-16
    37e8:	00912223          	sw	s1,4(sp)
    37ec:	06800613          	li	a2,104
    37f0:	fff58493          	addi	s1,a1,-1
    37f4:	02c484b3          	mul	s1,s1,a2
    37f8:	01212023          	sw	s2,0(sp)
    37fc:	00058913          	mv	s2,a1
    3800:	00812423          	sw	s0,8(sp)
    3804:	00112623          	sw	ra,12(sp)
    3808:	07448593          	addi	a1,s1,116
    380c:	518030ef          	jal	ra,6d24 <_malloc_r>
    3810:	00050413          	mv	s0,a0
    3814:	02050063          	beqz	a0,3834 <__sfmoreglue+0x50>
    3818:	00c50513          	addi	a0,a0,12
    381c:	00042023          	sw	zero,0(s0)
    3820:	01242223          	sw	s2,4(s0)
    3824:	00a42423          	sw	a0,8(s0)
    3828:	06848613          	addi	a2,s1,104
    382c:	00000593          	li	a1,0
    3830:	ca5fc0ef          	jal	ra,4d4 <memset>
    3834:	00c12083          	lw	ra,12(sp)
    3838:	00040513          	mv	a0,s0
    383c:	00812403          	lw	s0,8(sp)
    3840:	00412483          	lw	s1,4(sp)
    3844:	00012903          	lw	s2,0(sp)
    3848:	01010113          	addi	sp,sp,16
    384c:	00008067          	ret

00003850 <__sfp>:
    3850:	fe010113          	addi	sp,sp,-32
    3854:	01212823          	sw	s2,16(sp)
    3858:	1d01a903          	lw	s2,464(gp) # 15a88 <_global_impure_ptr>
    385c:	01312623          	sw	s3,12(sp)
    3860:	00112e23          	sw	ra,28(sp)
    3864:	03892783          	lw	a5,56(s2)
    3868:	00812c23          	sw	s0,24(sp)
    386c:	00912a23          	sw	s1,20(sp)
    3870:	00050993          	mv	s3,a0
    3874:	0a078663          	beqz	a5,3920 <__sfp+0xd0>
    3878:	2e090913          	addi	s2,s2,736
    387c:	fff00493          	li	s1,-1
    3880:	00492783          	lw	a5,4(s2)
    3884:	00892403          	lw	s0,8(s2)
    3888:	fff78793          	addi	a5,a5,-1
    388c:	0007d863          	bgez	a5,389c <__sfp+0x4c>
    3890:	0800006f          	j	3910 <__sfp+0xc0>
    3894:	06840413          	addi	s0,s0,104
    3898:	06978c63          	beq	a5,s1,3910 <__sfp+0xc0>
    389c:	00c41703          	lh	a4,12(s0)
    38a0:	fff78793          	addi	a5,a5,-1
    38a4:	fe0718e3          	bnez	a4,3894 <__sfp+0x44>
    38a8:	ffff07b7          	lui	a5,0xffff0
    38ac:	00178793          	addi	a5,a5,1 # ffff0001 <//.+0xfffda089>
    38b0:	06042223          	sw	zero,100(s0)
    38b4:	00042023          	sw	zero,0(s0)
    38b8:	00042223          	sw	zero,4(s0)
    38bc:	00042423          	sw	zero,8(s0)
    38c0:	00f42623          	sw	a5,12(s0)
    38c4:	00042823          	sw	zero,16(s0)
    38c8:	00042a23          	sw	zero,20(s0)
    38cc:	00042c23          	sw	zero,24(s0)
    38d0:	00800613          	li	a2,8
    38d4:	00000593          	li	a1,0
    38d8:	05c40513          	addi	a0,s0,92
    38dc:	bf9fc0ef          	jal	ra,4d4 <memset>
    38e0:	02042823          	sw	zero,48(s0)
    38e4:	02042a23          	sw	zero,52(s0)
    38e8:	04042223          	sw	zero,68(s0)
    38ec:	04042423          	sw	zero,72(s0)
    38f0:	01c12083          	lw	ra,28(sp)
    38f4:	00040513          	mv	a0,s0
    38f8:	01812403          	lw	s0,24(sp)
    38fc:	01412483          	lw	s1,20(sp)
    3900:	01012903          	lw	s2,16(sp)
    3904:	00c12983          	lw	s3,12(sp)
    3908:	02010113          	addi	sp,sp,32
    390c:	00008067          	ret
    3910:	00092403          	lw	s0,0(s2)
    3914:	00040c63          	beqz	s0,392c <__sfp+0xdc>
    3918:	00040913          	mv	s2,s0
    391c:	f65ff06f          	j	3880 <__sfp+0x30>
    3920:	00090513          	mv	a0,s2
    3924:	d35ff0ef          	jal	ra,3658 <__sinit.part.0>
    3928:	f51ff06f          	j	3878 <__sfp+0x28>
    392c:	00400593          	li	a1,4
    3930:	00098513          	mv	a0,s3
    3934:	eb1ff0ef          	jal	ra,37e4 <__sfmoreglue>
    3938:	00a92023          	sw	a0,0(s2)
    393c:	00050413          	mv	s0,a0
    3940:	fc051ce3          	bnez	a0,3918 <__sfp+0xc8>
    3944:	00c00793          	li	a5,12
    3948:	00f9a023          	sw	a5,0(s3)
    394c:	fa5ff06f          	j	38f0 <__sfp+0xa0>

00003950 <_cleanup>:
    3950:	1d01a503          	lw	a0,464(gp) # 15a88 <_global_impure_ptr>
    3954:	0000d5b7          	lui	a1,0xd
    3958:	e0458593          	addi	a1,a1,-508 # ce04 <_fclose_r>
    395c:	5740006f          	j	3ed0 <_fwalk_reent>

00003960 <__sinit>:
    3960:	03852783          	lw	a5,56(a0)
    3964:	00078463          	beqz	a5,396c <__sinit+0xc>
    3968:	00008067          	ret
    396c:	cedff06f          	j	3658 <__sinit.part.0>

00003970 <__sfp_lock_acquire>:
    3970:	00008067          	ret

00003974 <__sfp_lock_release>:
    3974:	00008067          	ret

00003978 <__sinit_lock_acquire>:
    3978:	00008067          	ret

0000397c <__sinit_lock_release>:
    397c:	00008067          	ret

00003980 <__fp_lock_all>:
    3980:	1d81a503          	lw	a0,472(gp) # 15a90 <_impure_ptr>
    3984:	000035b7          	lui	a1,0x3
    3988:	64458593          	addi	a1,a1,1604 # 3644 <__fp_lock>
    398c:	4a00006f          	j	3e2c <_fwalk>

00003990 <__fp_unlock_all>:
    3990:	1d81a503          	lw	a0,472(gp) # 15a90 <_impure_ptr>
    3994:	000035b7          	lui	a1,0x3
    3998:	7dc58593          	addi	a1,a1,2012 # 37dc <__fp_unlock>
    399c:	4900006f          	j	3e2c <_fwalk>

000039a0 <__libc_fini_array>:
    39a0:	ff010113          	addi	sp,sp,-16
    39a4:	00812423          	sw	s0,8(sp)
    39a8:	000157b7          	lui	a5,0x15
    39ac:	00015437          	lui	s0,0x15
    39b0:	0b440413          	addi	s0,s0,180 # 150b4 <__init_array_end>
    39b4:	0b878793          	addi	a5,a5,184 # 150b8 <__fini_array_end>
    39b8:	408787b3          	sub	a5,a5,s0
    39bc:	00912223          	sw	s1,4(sp)
    39c0:	00112623          	sw	ra,12(sp)
    39c4:	4027d493          	srai	s1,a5,0x2
    39c8:	02048063          	beqz	s1,39e8 <__libc_fini_array+0x48>
    39cc:	ffc78793          	addi	a5,a5,-4
    39d0:	00878433          	add	s0,a5,s0
    39d4:	00042783          	lw	a5,0(s0)
    39d8:	fff48493          	addi	s1,s1,-1
    39dc:	ffc40413          	addi	s0,s0,-4
    39e0:	000780e7          	jalr	a5
    39e4:	fe0498e3          	bnez	s1,39d4 <__libc_fini_array+0x34>
    39e8:	00c12083          	lw	ra,12(sp)
    39ec:	00812403          	lw	s0,8(sp)
    39f0:	00412483          	lw	s1,4(sp)
    39f4:	01010113          	addi	sp,sp,16
    39f8:	00008067          	ret

000039fc <_malloc_trim_r>:
    39fc:	fe010113          	addi	sp,sp,-32
    3a00:	01312623          	sw	s3,12(sp)
    3a04:	00812c23          	sw	s0,24(sp)
    3a08:	00912a23          	sw	s1,20(sp)
    3a0c:	01212823          	sw	s2,16(sp)
    3a10:	01412423          	sw	s4,8(sp)
    3a14:	00112e23          	sw	ra,28(sp)
    3a18:	00058a13          	mv	s4,a1
    3a1c:	00050913          	mv	s2,a0
    3a20:	dac18993          	addi	s3,gp,-596 # 15664 <__malloc_av_>
    3a24:	3dd030ef          	jal	ra,7600 <__malloc_lock>
    3a28:	0089a703          	lw	a4,8(s3)
    3a2c:	000017b7          	lui	a5,0x1
    3a30:	fef78413          	addi	s0,a5,-17 # fef <_vfprintf_r+0x9b3>
    3a34:	00472483          	lw	s1,4(a4)
    3a38:	41440433          	sub	s0,s0,s4
    3a3c:	ffc4f493          	andi	s1,s1,-4
    3a40:	00940433          	add	s0,s0,s1
    3a44:	00c45413          	srli	s0,s0,0xc
    3a48:	fff40413          	addi	s0,s0,-1
    3a4c:	00c41413          	slli	s0,s0,0xc
    3a50:	00f44e63          	blt	s0,a5,3a6c <_malloc_trim_r+0x70>
    3a54:	00000593          	li	a1,0
    3a58:	00090513          	mv	a0,s2
    3a5c:	525040ef          	jal	ra,8780 <_sbrk_r>
    3a60:	0089a783          	lw	a5,8(s3)
    3a64:	009787b3          	add	a5,a5,s1
    3a68:	02f50863          	beq	a0,a5,3a98 <_malloc_trim_r+0x9c>
    3a6c:	00090513          	mv	a0,s2
    3a70:	395030ef          	jal	ra,7604 <__malloc_unlock>
    3a74:	01c12083          	lw	ra,28(sp)
    3a78:	01812403          	lw	s0,24(sp)
    3a7c:	01412483          	lw	s1,20(sp)
    3a80:	01012903          	lw	s2,16(sp)
    3a84:	00c12983          	lw	s3,12(sp)
    3a88:	00812a03          	lw	s4,8(sp)
    3a8c:	00000513          	li	a0,0
    3a90:	02010113          	addi	sp,sp,32
    3a94:	00008067          	ret
    3a98:	408005b3          	neg	a1,s0
    3a9c:	00090513          	mv	a0,s2
    3aa0:	4e1040ef          	jal	ra,8780 <_sbrk_r>
    3aa4:	fff00793          	li	a5,-1
    3aa8:	04f50863          	beq	a0,a5,3af8 <_malloc_trim_r+0xfc>
    3aac:	21418793          	addi	a5,gp,532 # 15acc <__malloc_current_mallinfo>
    3ab0:	0007a703          	lw	a4,0(a5)
    3ab4:	0089a683          	lw	a3,8(s3)
    3ab8:	408484b3          	sub	s1,s1,s0
    3abc:	0014e493          	ori	s1,s1,1
    3ac0:	40870433          	sub	s0,a4,s0
    3ac4:	00090513          	mv	a0,s2
    3ac8:	0096a223          	sw	s1,4(a3)
    3acc:	0087a023          	sw	s0,0(a5)
    3ad0:	335030ef          	jal	ra,7604 <__malloc_unlock>
    3ad4:	01c12083          	lw	ra,28(sp)
    3ad8:	01812403          	lw	s0,24(sp)
    3adc:	01412483          	lw	s1,20(sp)
    3ae0:	01012903          	lw	s2,16(sp)
    3ae4:	00c12983          	lw	s3,12(sp)
    3ae8:	00812a03          	lw	s4,8(sp)
    3aec:	00100513          	li	a0,1
    3af0:	02010113          	addi	sp,sp,32
    3af4:	00008067          	ret
    3af8:	00000593          	li	a1,0
    3afc:	00090513          	mv	a0,s2
    3b00:	481040ef          	jal	ra,8780 <_sbrk_r>
    3b04:	0089a703          	lw	a4,8(s3)
    3b08:	00f00693          	li	a3,15
    3b0c:	40e507b3          	sub	a5,a0,a4
    3b10:	f4f6dee3          	bge	a3,a5,3a6c <_malloc_trim_r+0x70>
    3b14:	1dc1a683          	lw	a3,476(gp) # 15a94 <__malloc_sbrk_base>
    3b18:	0017e793          	ori	a5,a5,1
    3b1c:	00f72223          	sw	a5,4(a4)
    3b20:	40d50533          	sub	a0,a0,a3
    3b24:	20a1aa23          	sw	a0,532(gp) # 15acc <__malloc_current_mallinfo>
    3b28:	f45ff06f          	j	3a6c <_malloc_trim_r+0x70>

00003b2c <_free_r>:
    3b2c:	12058463          	beqz	a1,3c54 <_free_r+0x128>
    3b30:	ff010113          	addi	sp,sp,-16
    3b34:	00812423          	sw	s0,8(sp)
    3b38:	00912223          	sw	s1,4(sp)
    3b3c:	00058413          	mv	s0,a1
    3b40:	00050493          	mv	s1,a0
    3b44:	00112623          	sw	ra,12(sp)
    3b48:	2b9030ef          	jal	ra,7600 <__malloc_lock>
    3b4c:	ffc42803          	lw	a6,-4(s0)
    3b50:	ff840713          	addi	a4,s0,-8
    3b54:	ffe87793          	andi	a5,a6,-2
    3b58:	00f70633          	add	a2,a4,a5
    3b5c:	dac18593          	addi	a1,gp,-596 # 15664 <__malloc_av_>
    3b60:	00462683          	lw	a3,4(a2)
    3b64:	0085a503          	lw	a0,8(a1)
    3b68:	ffc6f693          	andi	a3,a3,-4
    3b6c:	1ac50663          	beq	a0,a2,3d18 <_free_r+0x1ec>
    3b70:	00d62223          	sw	a3,4(a2)
    3b74:	00187813          	andi	a6,a6,1
    3b78:	00d60533          	add	a0,a2,a3
    3b7c:	08081e63          	bnez	a6,3c18 <_free_r+0xec>
    3b80:	ff842303          	lw	t1,-8(s0)
    3b84:	00452803          	lw	a6,4(a0)
    3b88:	40670733          	sub	a4,a4,t1
    3b8c:	00872883          	lw	a7,8(a4)
    3b90:	db418513          	addi	a0,gp,-588 # 1566c <__malloc_av_+0x8>
    3b94:	006787b3          	add	a5,a5,t1
    3b98:	00187813          	andi	a6,a6,1
    3b9c:	12a88e63          	beq	a7,a0,3cd8 <_free_r+0x1ac>
    3ba0:	00c72303          	lw	t1,12(a4)
    3ba4:	0068a623          	sw	t1,12(a7)
    3ba8:	01132423          	sw	a7,8(t1)
    3bac:	1c080e63          	beqz	a6,3d88 <_free_r+0x25c>
    3bb0:	0017e693          	ori	a3,a5,1
    3bb4:	00d72223          	sw	a3,4(a4)
    3bb8:	00f62023          	sw	a5,0(a2)
    3bbc:	1ff00693          	li	a3,511
    3bc0:	0af6e663          	bltu	a3,a5,3c6c <_free_r+0x140>
    3bc4:	ff87f693          	andi	a3,a5,-8
    3bc8:	00868693          	addi	a3,a3,8
    3bcc:	0045a503          	lw	a0,4(a1)
    3bd0:	00d586b3          	add	a3,a1,a3
    3bd4:	0006a603          	lw	a2,0(a3)
    3bd8:	0057d813          	srli	a6,a5,0x5
    3bdc:	00100793          	li	a5,1
    3be0:	010797b3          	sll	a5,a5,a6
    3be4:	00a7e7b3          	or	a5,a5,a0
    3be8:	ff868513          	addi	a0,a3,-8
    3bec:	00a72623          	sw	a0,12(a4)
    3bf0:	00c72423          	sw	a2,8(a4)
    3bf4:	00f5a223          	sw	a5,4(a1)
    3bf8:	00e6a023          	sw	a4,0(a3)
    3bfc:	00e62623          	sw	a4,12(a2)
    3c00:	00812403          	lw	s0,8(sp)
    3c04:	00c12083          	lw	ra,12(sp)
    3c08:	00048513          	mv	a0,s1
    3c0c:	00412483          	lw	s1,4(sp)
    3c10:	01010113          	addi	sp,sp,16
    3c14:	1f10306f          	j	7604 <__malloc_unlock>
    3c18:	00452503          	lw	a0,4(a0)
    3c1c:	00157513          	andi	a0,a0,1
    3c20:	02051c63          	bnez	a0,3c58 <_free_r+0x12c>
    3c24:	00d787b3          	add	a5,a5,a3
    3c28:	db418513          	addi	a0,gp,-588 # 1566c <__malloc_av_+0x8>
    3c2c:	00862683          	lw	a3,8(a2)
    3c30:	0017e893          	ori	a7,a5,1
    3c34:	00f70833          	add	a6,a4,a5
    3c38:	16a68463          	beq	a3,a0,3da0 <_free_r+0x274>
    3c3c:	00c62603          	lw	a2,12(a2)
    3c40:	00c6a623          	sw	a2,12(a3)
    3c44:	00d62423          	sw	a3,8(a2)
    3c48:	01172223          	sw	a7,4(a4)
    3c4c:	00f82023          	sw	a5,0(a6)
    3c50:	f6dff06f          	j	3bbc <_free_r+0x90>
    3c54:	00008067          	ret
    3c58:	0017e693          	ori	a3,a5,1
    3c5c:	fed42e23          	sw	a3,-4(s0)
    3c60:	00f62023          	sw	a5,0(a2)
    3c64:	1ff00693          	li	a3,511
    3c68:	f4f6fee3          	bgeu	a3,a5,3bc4 <_free_r+0x98>
    3c6c:	0097d693          	srli	a3,a5,0x9
    3c70:	00400613          	li	a2,4
    3c74:	0ed66863          	bltu	a2,a3,3d64 <_free_r+0x238>
    3c78:	0067d693          	srli	a3,a5,0x6
    3c7c:	03968813          	addi	a6,a3,57
    3c80:	03868613          	addi	a2,a3,56
    3c84:	00381813          	slli	a6,a6,0x3
    3c88:	01058833          	add	a6,a1,a6
    3c8c:	00082683          	lw	a3,0(a6)
    3c90:	ff880813          	addi	a6,a6,-8
    3c94:	12d80463          	beq	a6,a3,3dbc <_free_r+0x290>
    3c98:	0046a603          	lw	a2,4(a3)
    3c9c:	ffc67613          	andi	a2,a2,-4
    3ca0:	00c7f663          	bgeu	a5,a2,3cac <_free_r+0x180>
    3ca4:	0086a683          	lw	a3,8(a3)
    3ca8:	fed818e3          	bne	a6,a3,3c98 <_free_r+0x16c>
    3cac:	00c6a803          	lw	a6,12(a3)
    3cb0:	01072623          	sw	a6,12(a4)
    3cb4:	00d72423          	sw	a3,8(a4)
    3cb8:	00812403          	lw	s0,8(sp)
    3cbc:	00c12083          	lw	ra,12(sp)
    3cc0:	00e82423          	sw	a4,8(a6)
    3cc4:	00048513          	mv	a0,s1
    3cc8:	00412483          	lw	s1,4(sp)
    3ccc:	00e6a623          	sw	a4,12(a3)
    3cd0:	01010113          	addi	sp,sp,16
    3cd4:	1310306f          	j	7604 <__malloc_unlock>
    3cd8:	14081263          	bnez	a6,3e1c <_free_r+0x2f0>
    3cdc:	00c62583          	lw	a1,12(a2)
    3ce0:	00862603          	lw	a2,8(a2)
    3ce4:	00f687b3          	add	a5,a3,a5
    3ce8:	00812403          	lw	s0,8(sp)
    3cec:	00b62623          	sw	a1,12(a2)
    3cf0:	00c5a423          	sw	a2,8(a1)
    3cf4:	0017e693          	ori	a3,a5,1
    3cf8:	00c12083          	lw	ra,12(sp)
    3cfc:	00d72223          	sw	a3,4(a4)
    3d00:	00048513          	mv	a0,s1
    3d04:	00f70733          	add	a4,a4,a5
    3d08:	00412483          	lw	s1,4(sp)
    3d0c:	00f72023          	sw	a5,0(a4)
    3d10:	01010113          	addi	sp,sp,16
    3d14:	0f10306f          	j	7604 <__malloc_unlock>
    3d18:	00187813          	andi	a6,a6,1
    3d1c:	00d787b3          	add	a5,a5,a3
    3d20:	02081063          	bnez	a6,3d40 <_free_r+0x214>
    3d24:	ff842503          	lw	a0,-8(s0)
    3d28:	40a70733          	sub	a4,a4,a0
    3d2c:	00c72683          	lw	a3,12(a4)
    3d30:	00872603          	lw	a2,8(a4)
    3d34:	00a787b3          	add	a5,a5,a0
    3d38:	00d62623          	sw	a3,12(a2)
    3d3c:	00c6a423          	sw	a2,8(a3)
    3d40:	0017e613          	ori	a2,a5,1
    3d44:	1e01a683          	lw	a3,480(gp) # 15a98 <__malloc_trim_threshold>
    3d48:	00c72223          	sw	a2,4(a4)
    3d4c:	00e5a423          	sw	a4,8(a1)
    3d50:	ead7e8e3          	bltu	a5,a3,3c00 <_free_r+0xd4>
    3d54:	1f01a583          	lw	a1,496(gp) # 15aa8 <__malloc_top_pad>
    3d58:	00048513          	mv	a0,s1
    3d5c:	ca1ff0ef          	jal	ra,39fc <_malloc_trim_r>
    3d60:	ea1ff06f          	j	3c00 <_free_r+0xd4>
    3d64:	01400613          	li	a2,20
    3d68:	02d67463          	bgeu	a2,a3,3d90 <_free_r+0x264>
    3d6c:	05400613          	li	a2,84
    3d70:	06d66463          	bltu	a2,a3,3dd8 <_free_r+0x2ac>
    3d74:	00c7d693          	srli	a3,a5,0xc
    3d78:	06f68813          	addi	a6,a3,111
    3d7c:	06e68613          	addi	a2,a3,110
    3d80:	00381813          	slli	a6,a6,0x3
    3d84:	f05ff06f          	j	3c88 <_free_r+0x15c>
    3d88:	00d787b3          	add	a5,a5,a3
    3d8c:	ea1ff06f          	j	3c2c <_free_r+0x100>
    3d90:	05c68813          	addi	a6,a3,92
    3d94:	05b68613          	addi	a2,a3,91
    3d98:	00381813          	slli	a6,a6,0x3
    3d9c:	eedff06f          	j	3c88 <_free_r+0x15c>
    3da0:	00e5aa23          	sw	a4,20(a1)
    3da4:	00e5a823          	sw	a4,16(a1)
    3da8:	00a72623          	sw	a0,12(a4)
    3dac:	00a72423          	sw	a0,8(a4)
    3db0:	01172223          	sw	a7,4(a4)
    3db4:	00f82023          	sw	a5,0(a6)
    3db8:	e49ff06f          	j	3c00 <_free_r+0xd4>
    3dbc:	0045a503          	lw	a0,4(a1)
    3dc0:	40265613          	srai	a2,a2,0x2
    3dc4:	00100793          	li	a5,1
    3dc8:	00c79633          	sll	a2,a5,a2
    3dcc:	00a66633          	or	a2,a2,a0
    3dd0:	00c5a223          	sw	a2,4(a1)
    3dd4:	eddff06f          	j	3cb0 <_free_r+0x184>
    3dd8:	15400613          	li	a2,340
    3ddc:	00d66c63          	bltu	a2,a3,3df4 <_free_r+0x2c8>
    3de0:	00f7d693          	srli	a3,a5,0xf
    3de4:	07868813          	addi	a6,a3,120
    3de8:	07768613          	addi	a2,a3,119
    3dec:	00381813          	slli	a6,a6,0x3
    3df0:	e99ff06f          	j	3c88 <_free_r+0x15c>
    3df4:	55400613          	li	a2,1364
    3df8:	00d66c63          	bltu	a2,a3,3e10 <_free_r+0x2e4>
    3dfc:	0127d693          	srli	a3,a5,0x12
    3e00:	07d68813          	addi	a6,a3,125
    3e04:	07c68613          	addi	a2,a3,124
    3e08:	00381813          	slli	a6,a6,0x3
    3e0c:	e7dff06f          	j	3c88 <_free_r+0x15c>
    3e10:	3f800813          	li	a6,1016
    3e14:	07e00613          	li	a2,126
    3e18:	e71ff06f          	j	3c88 <_free_r+0x15c>
    3e1c:	0017e693          	ori	a3,a5,1
    3e20:	00d72223          	sw	a3,4(a4)
    3e24:	00f62023          	sw	a5,0(a2)
    3e28:	dd9ff06f          	j	3c00 <_free_r+0xd4>

00003e2c <_fwalk>:
    3e2c:	fe010113          	addi	sp,sp,-32
    3e30:	01212823          	sw	s2,16(sp)
    3e34:	01312623          	sw	s3,12(sp)
    3e38:	01412423          	sw	s4,8(sp)
    3e3c:	01512223          	sw	s5,4(sp)
    3e40:	01612023          	sw	s6,0(sp)
    3e44:	00112e23          	sw	ra,28(sp)
    3e48:	00812c23          	sw	s0,24(sp)
    3e4c:	00912a23          	sw	s1,20(sp)
    3e50:	00058b13          	mv	s6,a1
    3e54:	2e050a93          	addi	s5,a0,736
    3e58:	00000a13          	li	s4,0
    3e5c:	00100993          	li	s3,1
    3e60:	fff00913          	li	s2,-1
    3e64:	004aa483          	lw	s1,4(s5)
    3e68:	008aa403          	lw	s0,8(s5)
    3e6c:	fff48493          	addi	s1,s1,-1
    3e70:	0204c663          	bltz	s1,3e9c <_fwalk+0x70>
    3e74:	00c45783          	lhu	a5,12(s0)
    3e78:	fff48493          	addi	s1,s1,-1
    3e7c:	00f9fc63          	bgeu	s3,a5,3e94 <_fwalk+0x68>
    3e80:	00e41783          	lh	a5,14(s0)
    3e84:	00040513          	mv	a0,s0
    3e88:	01278663          	beq	a5,s2,3e94 <_fwalk+0x68>
    3e8c:	000b00e7          	jalr	s6
    3e90:	00aa6a33          	or	s4,s4,a0
    3e94:	06840413          	addi	s0,s0,104
    3e98:	fd249ee3          	bne	s1,s2,3e74 <_fwalk+0x48>
    3e9c:	000aaa83          	lw	s5,0(s5)
    3ea0:	fc0a92e3          	bnez	s5,3e64 <_fwalk+0x38>
    3ea4:	01c12083          	lw	ra,28(sp)
    3ea8:	01812403          	lw	s0,24(sp)
    3eac:	01412483          	lw	s1,20(sp)
    3eb0:	01012903          	lw	s2,16(sp)
    3eb4:	00c12983          	lw	s3,12(sp)
    3eb8:	00412a83          	lw	s5,4(sp)
    3ebc:	00012b03          	lw	s6,0(sp)
    3ec0:	000a0513          	mv	a0,s4
    3ec4:	00812a03          	lw	s4,8(sp)
    3ec8:	02010113          	addi	sp,sp,32
    3ecc:	00008067          	ret

00003ed0 <_fwalk_reent>:
    3ed0:	fd010113          	addi	sp,sp,-48
    3ed4:	03212023          	sw	s2,32(sp)
    3ed8:	01312e23          	sw	s3,28(sp)
    3edc:	01412c23          	sw	s4,24(sp)
    3ee0:	01512a23          	sw	s5,20(sp)
    3ee4:	01612823          	sw	s6,16(sp)
    3ee8:	01712623          	sw	s7,12(sp)
    3eec:	02112623          	sw	ra,44(sp)
    3ef0:	02812423          	sw	s0,40(sp)
    3ef4:	02912223          	sw	s1,36(sp)
    3ef8:	00050a93          	mv	s5,a0
    3efc:	00058b93          	mv	s7,a1
    3f00:	2e050b13          	addi	s6,a0,736
    3f04:	00000a13          	li	s4,0
    3f08:	00100993          	li	s3,1
    3f0c:	fff00913          	li	s2,-1
    3f10:	004b2483          	lw	s1,4(s6)
    3f14:	008b2403          	lw	s0,8(s6)
    3f18:	fff48493          	addi	s1,s1,-1
    3f1c:	0204c863          	bltz	s1,3f4c <_fwalk_reent+0x7c>
    3f20:	00c45783          	lhu	a5,12(s0)
    3f24:	fff48493          	addi	s1,s1,-1
    3f28:	00f9fe63          	bgeu	s3,a5,3f44 <_fwalk_reent+0x74>
    3f2c:	00e41783          	lh	a5,14(s0)
    3f30:	00040593          	mv	a1,s0
    3f34:	000a8513          	mv	a0,s5
    3f38:	01278663          	beq	a5,s2,3f44 <_fwalk_reent+0x74>
    3f3c:	000b80e7          	jalr	s7
    3f40:	00aa6a33          	or	s4,s4,a0
    3f44:	06840413          	addi	s0,s0,104
    3f48:	fd249ce3          	bne	s1,s2,3f20 <_fwalk_reent+0x50>
    3f4c:	000b2b03          	lw	s6,0(s6)
    3f50:	fc0b10e3          	bnez	s6,3f10 <_fwalk_reent+0x40>
    3f54:	02c12083          	lw	ra,44(sp)
    3f58:	02812403          	lw	s0,40(sp)
    3f5c:	02412483          	lw	s1,36(sp)
    3f60:	02012903          	lw	s2,32(sp)
    3f64:	01c12983          	lw	s3,28(sp)
    3f68:	01412a83          	lw	s5,20(sp)
    3f6c:	01012b03          	lw	s6,16(sp)
    3f70:	00c12b83          	lw	s7,12(sp)
    3f74:	000a0513          	mv	a0,s4
    3f78:	01812a03          	lw	s4,24(sp)
    3f7c:	03010113          	addi	sp,sp,48
    3f80:	00008067          	ret

00003f84 <eshdn1>:
    3f84:	00450693          	addi	a3,a0,4
    3f88:	00000793          	li	a5,0
    3f8c:	01a50513          	addi	a0,a0,26
    3f90:	ffff8837          	lui	a6,0xffff8
    3f94:	01c0006f          	j	3fb0 <eshdn1+0x2c>
    3f98:	00179793          	slli	a5,a5,0x1
    3f9c:	00e69023          	sh	a4,0(a3)
    3fa0:	01079793          	slli	a5,a5,0x10
    3fa4:	00268693          	addi	a3,a3,2
    3fa8:	0107d793          	srli	a5,a5,0x10
    3fac:	02d50e63          	beq	a0,a3,3fe8 <eshdn1+0x64>
    3fb0:	0006d703          	lhu	a4,0(a3)
    3fb4:	00177613          	andi	a2,a4,1
    3fb8:	00060463          	beqz	a2,3fc0 <eshdn1+0x3c>
    3fbc:	0017e793          	ori	a5,a5,1
    3fc0:	00175713          	srli	a4,a4,0x1
    3fc4:	0027f613          	andi	a2,a5,2
    3fc8:	010765b3          	or	a1,a4,a6
    3fcc:	fc0606e3          	beqz	a2,3f98 <eshdn1+0x14>
    3fd0:	00179793          	slli	a5,a5,0x1
    3fd4:	00b69023          	sh	a1,0(a3)
    3fd8:	01079793          	slli	a5,a5,0x10
    3fdc:	00268693          	addi	a3,a3,2
    3fe0:	0107d793          	srli	a5,a5,0x10
    3fe4:	fcd516e3          	bne	a0,a3,3fb0 <eshdn1+0x2c>
    3fe8:	00008067          	ret

00003fec <eshup1>:
    3fec:	01850693          	addi	a3,a0,24
    3ff0:	00000713          	li	a4,0
    3ff4:	00250513          	addi	a0,a0,2
    3ff8:	01c0006f          	j	4014 <eshup1+0x28>
    3ffc:	00171713          	slli	a4,a4,0x1
    4000:	00f69023          	sh	a5,0(a3)
    4004:	01071713          	slli	a4,a4,0x10
    4008:	ffe68693          	addi	a3,a3,-2
    400c:	01075713          	srli	a4,a4,0x10
    4010:	04d50463          	beq	a0,a3,4058 <eshup1+0x6c>
    4014:	0006d783          	lhu	a5,0(a3)
    4018:	01079613          	slli	a2,a5,0x10
    401c:	41065613          	srai	a2,a2,0x10
    4020:	00179793          	slli	a5,a5,0x1
    4024:	00065463          	bgez	a2,402c <eshup1+0x40>
    4028:	00176713          	ori	a4,a4,1
    402c:	01079793          	slli	a5,a5,0x10
    4030:	0107d793          	srli	a5,a5,0x10
    4034:	00277613          	andi	a2,a4,2
    4038:	0017e593          	ori	a1,a5,1
    403c:	fc0600e3          	beqz	a2,3ffc <eshup1+0x10>
    4040:	00171713          	slli	a4,a4,0x1
    4044:	00b69023          	sh	a1,0(a3)
    4048:	01071713          	slli	a4,a4,0x10
    404c:	ffe68693          	addi	a3,a3,-2
    4050:	01075713          	srli	a4,a4,0x10
    4054:	fcd510e3          	bne	a0,a3,4014 <eshup1+0x28>
    4058:	00008067          	ret

0000405c <m16m>:
    405c:	fe010113          	addi	sp,sp,-32
    4060:	00010e37          	lui	t3,0x10
    4064:	00011d23          	sh	zero,26(sp)
    4068:	00011e23          	sh	zero,28(sp)
    406c:	01858593          	addi	a1,a1,24
    4070:	01c10793          	addi	a5,sp,28
    4074:	00810813          	addi	a6,sp,8
    4078:	fffe0e13          	addi	t3,t3,-1 # ffff <__udivdi3+0x2c7>
    407c:	0005d703          	lhu	a4,0(a1)
    4080:	ffe78793          	addi	a5,a5,-2
    4084:	ffe58593          	addi	a1,a1,-2
    4088:	02071863          	bnez	a4,40b8 <m16m+0x5c>
    408c:	fe079f23          	sh	zero,-2(a5)
    4090:	ff0796e3          	bne	a5,a6,407c <m16m+0x20>
    4094:	00460613          	addi	a2,a2,4
    4098:	01e10693          	addi	a3,sp,30
    409c:	0007d703          	lhu	a4,0(a5)
    40a0:	00278793          	addi	a5,a5,2
    40a4:	00260613          	addi	a2,a2,2
    40a8:	fee61f23          	sh	a4,-2(a2)
    40ac:	fed798e3          	bne	a5,a3,409c <m16m+0x40>
    40b0:	02010113          	addi	sp,sp,32
    40b4:	00008067          	ret
    40b8:	02a70733          	mul	a4,a4,a0
    40bc:	0027d883          	lhu	a7,2(a5)
    40c0:	0007d303          	lhu	t1,0(a5)
    40c4:	01c776b3          	and	a3,a4,t3
    40c8:	011686b3          	add	a3,a3,a7
    40cc:	01075713          	srli	a4,a4,0x10
    40d0:	0106d893          	srli	a7,a3,0x10
    40d4:	00670733          	add	a4,a4,t1
    40d8:	01170733          	add	a4,a4,a7
    40dc:	01075893          	srli	a7,a4,0x10
    40e0:	00d79123          	sh	a3,2(a5)
    40e4:	00e79023          	sh	a4,0(a5)
    40e8:	ff179f23          	sh	a7,-2(a5)
    40ec:	f90798e3          	bne	a5,a6,407c <m16m+0x20>
    40f0:	fa5ff06f          	j	4094 <m16m+0x38>

000040f4 <eisnan.part.0>:
    40f4:	01250713          	addi	a4,a0,18
    40f8:	00055783          	lhu	a5,0(a0)
    40fc:	00250513          	addi	a0,a0,2
    4100:	00079863          	bnez	a5,4110 <eisnan.part.0+0x1c>
    4104:	fee51ae3          	bne	a0,a4,40f8 <eisnan.part.0+0x4>
    4108:	00000513          	li	a0,0
    410c:	00008067          	ret
    4110:	00100513          	li	a0,1
    4114:	00008067          	ret

00004118 <eneg>:
    4118:	ff010113          	addi	sp,sp,-16
    411c:	00912223          	sw	s1,4(sp)
    4120:	01255483          	lhu	s1,18(a0)
    4124:	00812423          	sw	s0,8(sp)
    4128:	00112623          	sw	ra,12(sp)
    412c:	fff4c793          	not	a5,s1
    4130:	01179713          	slli	a4,a5,0x11
    4134:	00050413          	mv	s0,a0
    4138:	00071663          	bnez	a4,4144 <eneg+0x2c>
    413c:	fb9ff0ef          	jal	ra,40f4 <eisnan.part.0>
    4140:	00051863          	bnez	a0,4150 <eneg+0x38>
    4144:	ffff87b7          	lui	a5,0xffff8
    4148:	00f4c4b3          	xor	s1,s1,a5
    414c:	00941923          	sh	s1,18(s0)
    4150:	00c12083          	lw	ra,12(sp)
    4154:	00812403          	lw	s0,8(sp)
    4158:	00412483          	lw	s1,4(sp)
    415c:	01010113          	addi	sp,sp,16
    4160:	00008067          	ret

00004164 <eisneg>:
    4164:	ff010113          	addi	sp,sp,-16
    4168:	00812423          	sw	s0,8(sp)
    416c:	01255403          	lhu	s0,18(a0)
    4170:	00112623          	sw	ra,12(sp)
    4174:	fff44793          	not	a5,s0
    4178:	01179713          	slli	a4,a5,0x11
    417c:	00071a63          	bnez	a4,4190 <eisneg+0x2c>
    4180:	f75ff0ef          	jal	ra,40f4 <eisnan.part.0>
    4184:	00050793          	mv	a5,a0
    4188:	00000513          	li	a0,0
    418c:	00079463          	bnez	a5,4194 <eisneg+0x30>
    4190:	00f45513          	srli	a0,s0,0xf
    4194:	00c12083          	lw	ra,12(sp)
    4198:	00812403          	lw	s0,8(sp)
    419c:	01010113          	addi	sp,sp,16
    41a0:	00008067          	ret

000041a4 <emovi>:
    41a4:	01255783          	lhu	a5,18(a0)
    41a8:	fd010113          	addi	sp,sp,-48
    41ac:	02812423          	sw	s0,40(sp)
    41b0:	00f7d793          	srli	a5,a5,0xf
    41b4:	02912223          	sw	s1,36(sp)
    41b8:	02112623          	sw	ra,44(sp)
    41bc:	03212023          	sw	s2,32(sp)
    41c0:	01312e23          	sw	s3,28(sp)
    41c4:	40f007b3          	neg	a5,a5
    41c8:	00f59023          	sh	a5,0(a1)
    41cc:	01255783          	lhu	a5,18(a0)
    41d0:	00008737          	lui	a4,0x8
    41d4:	fff70713          	addi	a4,a4,-1 # 7fff <__mcmp+0xb>
    41d8:	00f777b3          	and	a5,a4,a5
    41dc:	00f59123          	sh	a5,2(a1)
    41e0:	00050493          	mv	s1,a0
    41e4:	01050413          	addi	s0,a0,16
    41e8:	04e78263          	beq	a5,a4,422c <emovi+0x88>
    41ec:	00658793          	addi	a5,a1,6
    41f0:	00059223          	sh	zero,4(a1)
    41f4:	ffe50513          	addi	a0,a0,-2
    41f8:	00045703          	lhu	a4,0(s0)
    41fc:	ffe40413          	addi	s0,s0,-2
    4200:	00278793          	addi	a5,a5,2 # ffff8002 <//.+0xfffe208a>
    4204:	fee79f23          	sh	a4,-2(a5)
    4208:	fe8518e3          	bne	a0,s0,41f8 <emovi+0x54>
    420c:	00059c23          	sh	zero,24(a1)
    4210:	02c12083          	lw	ra,44(sp)
    4214:	02812403          	lw	s0,40(sp)
    4218:	02412483          	lw	s1,36(sp)
    421c:	02012903          	lw	s2,32(sp)
    4220:	01c12983          	lw	s3,28(sp)
    4224:	03010113          	addi	sp,sp,48
    4228:	00008067          	ret
    422c:	01255703          	lhu	a4,18(a0)
    4230:	00458913          	addi	s2,a1,4
    4234:	00e7f733          	and	a4,a5,a4
    4238:	02f71c63          	bne	a4,a5,4270 <emovi+0xcc>
    423c:	00b12623          	sw	a1,12(sp)
    4240:	eb5ff0ef          	jal	ra,40f4 <eisnan.part.0>
    4244:	00c12583          	lw	a1,12(sp)
    4248:	02050463          	beqz	a0,4270 <emovi+0xcc>
    424c:	00658793          	addi	a5,a1,6
    4250:	00059223          	sh	zero,4(a1)
    4254:	ffc48513          	addi	a0,s1,-4
    4258:	00045703          	lhu	a4,0(s0)
    425c:	ffe40413          	addi	s0,s0,-2
    4260:	00278793          	addi	a5,a5,2
    4264:	fee79f23          	sh	a4,-2(a5)
    4268:	fe8518e3          	bne	a0,s0,4258 <emovi+0xb4>
    426c:	fa5ff06f          	j	4210 <emovi+0x6c>
    4270:	01a58993          	addi	s3,a1,26
    4274:	00290913          	addi	s2,s2,2
    4278:	fe091f23          	sh	zero,-2(s2)
    427c:	ff299ce3          	bne	s3,s2,4274 <emovi+0xd0>
    4280:	02c12083          	lw	ra,44(sp)
    4284:	02812403          	lw	s0,40(sp)
    4288:	02412483          	lw	s1,36(sp)
    428c:	02012903          	lw	s2,32(sp)
    4290:	01c12983          	lw	s3,28(sp)
    4294:	03010113          	addi	sp,sp,48
    4298:	00008067          	ret

0000429c <ecmp>:
    429c:	01255783          	lhu	a5,18(a0)
    42a0:	fb010113          	addi	sp,sp,-80
    42a4:	04812423          	sw	s0,72(sp)
    42a8:	fff7c793          	not	a5,a5
    42ac:	04912223          	sw	s1,68(sp)
    42b0:	04112623          	sw	ra,76(sp)
    42b4:	01179713          	slli	a4,a5,0x11
    42b8:	00050493          	mv	s1,a0
    42bc:	00058413          	mv	s0,a1
    42c0:	00071663          	bnez	a4,42cc <ecmp+0x30>
    42c4:	e31ff0ef          	jal	ra,40f4 <eisnan.part.0>
    42c8:	08051263          	bnez	a0,434c <ecmp+0xb0>
    42cc:	01245783          	lhu	a5,18(s0)
    42d0:	fff7c793          	not	a5,a5
    42d4:	01179713          	slli	a4,a5,0x11
    42d8:	06070463          	beqz	a4,4340 <ecmp+0xa4>
    42dc:	00810593          	addi	a1,sp,8
    42e0:	00048513          	mv	a0,s1
    42e4:	ec1ff0ef          	jal	ra,41a4 <emovi>
    42e8:	02410593          	addi	a1,sp,36
    42ec:	00040513          	mv	a0,s0
    42f0:	eb5ff0ef          	jal	ra,41a4 <emovi>
    42f4:	00815583          	lhu	a1,8(sp)
    42f8:	02415503          	lhu	a0,36(sp)
    42fc:	04b50c63          	beq	a0,a1,4354 <ecmp+0xb8>
    4300:	00a10793          	addi	a5,sp,10
    4304:	02610713          	addi	a4,sp,38
    4308:	02010613          	addi	a2,sp,32
    430c:	0007d683          	lhu	a3,0(a5)
    4310:	00278793          	addi	a5,a5,2
    4314:	08069863          	bnez	a3,43a4 <ecmp+0x108>
    4318:	00075683          	lhu	a3,0(a4)
    431c:	00270713          	addi	a4,a4,2
    4320:	08069263          	bnez	a3,43a4 <ecmp+0x108>
    4324:	fec794e3          	bne	a5,a2,430c <ecmp+0x70>
    4328:	00000513          	li	a0,0
    432c:	04c12083          	lw	ra,76(sp)
    4330:	04812403          	lw	s0,72(sp)
    4334:	04412483          	lw	s1,68(sp)
    4338:	05010113          	addi	sp,sp,80
    433c:	00008067          	ret
    4340:	00040513          	mv	a0,s0
    4344:	db1ff0ef          	jal	ra,40f4 <eisnan.part.0>
    4348:	f8050ae3          	beqz	a0,42dc <ecmp+0x40>
    434c:	ffe00513          	li	a0,-2
    4350:	fddff06f          	j	432c <ecmp+0x90>
    4354:	00a15603          	lhu	a2,10(sp)
    4358:	02615683          	lhu	a3,38(sp)
    435c:	00153513          	seqz	a0,a0
    4360:	00a10713          	addi	a4,sp,10
    4364:	02610793          	addi	a5,sp,38
    4368:	00151513          	slli	a0,a0,0x1
    436c:	fff50513          	addi	a0,a0,-1
    4370:	03c10593          	addi	a1,sp,60
    4374:	00278793          	addi	a5,a5,2
    4378:	00270713          	addi	a4,a4,2
    437c:	00d61e63          	bne	a2,a3,4398 <ecmp+0xfc>
    4380:	fab784e3          	beq	a5,a1,4328 <ecmp+0x8c>
    4384:	00075603          	lhu	a2,0(a4)
    4388:	0007d683          	lhu	a3,0(a5)
    438c:	00270713          	addi	a4,a4,2
    4390:	00278793          	addi	a5,a5,2
    4394:	fed606e3          	beq	a2,a3,4380 <ecmp+0xe4>
    4398:	f8c6eae3          	bltu	a3,a2,432c <ecmp+0x90>
    439c:	40a00533          	neg	a0,a0
    43a0:	f8dff06f          	j	432c <ecmp+0x90>
    43a4:	00100513          	li	a0,1
    43a8:	f80582e3          	beqz	a1,432c <ecmp+0x90>
    43ac:	fff00513          	li	a0,-1
    43b0:	f7dff06f          	j	432c <ecmp+0x90>

000043b4 <eisinf.part.0>:
    43b4:	ff010113          	addi	sp,sp,-16
    43b8:	00112623          	sw	ra,12(sp)
    43bc:	d39ff0ef          	jal	ra,40f4 <eisnan.part.0>
    43c0:	00c12083          	lw	ra,12(sp)
    43c4:	00153513          	seqz	a0,a0
    43c8:	01010113          	addi	sp,sp,16
    43cc:	00008067          	ret

000043d0 <eshift.part.0>:
    43d0:	fe010113          	addi	sp,sp,-32
    43d4:	00812c23          	sw	s0,24(sp)
    43d8:	00912a23          	sw	s1,20(sp)
    43dc:	00112e23          	sw	ra,28(sp)
    43e0:	01212823          	sw	s2,16(sp)
    43e4:	01312623          	sw	s3,12(sp)
    43e8:	00058493          	mv	s1,a1
    43ec:	00050413          	mv	s0,a0
    43f0:	0a05c463          	bltz	a1,4498 <eshift.part.0+0xc8>
    43f4:	00f00793          	li	a5,15
    43f8:	00058613          	mv	a2,a1
    43fc:	00450513          	addi	a0,a0,4
    4400:	01840693          	addi	a3,s0,24
    4404:	00f00593          	li	a1,15
    4408:	0297d463          	bge	a5,s1,4430 <eshift.part.0+0x60>
    440c:	00050793          	mv	a5,a0
    4410:	0027d703          	lhu	a4,2(a5)
    4414:	00278793          	addi	a5,a5,2
    4418:	fee79f23          	sh	a4,-2(a5)
    441c:	fed79ae3          	bne	a5,a3,4410 <eshift.part.0+0x40>
    4420:	00041c23          	sh	zero,24(s0)
    4424:	ff060613          	addi	a2,a2,-16
    4428:	fec5c2e3          	blt	a1,a2,440c <eshift.part.0+0x3c>
    442c:	00f4f493          	andi	s1,s1,15
    4430:	00700793          	li	a5,7
    4434:	0297d863          	bge	a5,s1,4464 <eshift.part.0+0x94>
    4438:	01840713          	addi	a4,s0,24
    443c:	00240593          	addi	a1,s0,2
    4440:	00000793          	li	a5,0
    4444:	00075683          	lhu	a3,0(a4)
    4448:	ffe70713          	addi	a4,a4,-2
    444c:	00869613          	slli	a2,a3,0x8
    4450:	00c7e7b3          	or	a5,a5,a2
    4454:	00f71123          	sh	a5,2(a4)
    4458:	0086d793          	srli	a5,a3,0x8
    445c:	feb714e3          	bne	a4,a1,4444 <eshift.part.0+0x74>
    4460:	ff848493          	addi	s1,s1,-8
    4464:	00048a63          	beqz	s1,4478 <eshift.part.0+0xa8>
    4468:	fff48493          	addi	s1,s1,-1
    446c:	00040513          	mv	a0,s0
    4470:	b7dff0ef          	jal	ra,3fec <eshup1>
    4474:	fe049ae3          	bnez	s1,4468 <eshift.part.0+0x98>
    4478:	00000513          	li	a0,0
    447c:	01c12083          	lw	ra,28(sp)
    4480:	01812403          	lw	s0,24(sp)
    4484:	01412483          	lw	s1,20(sp)
    4488:	01012903          	lw	s2,16(sp)
    448c:	00c12983          	lw	s3,12(sp)
    4490:	02010113          	addi	sp,sp,32
    4494:	00008067          	ret
    4498:	ff100793          	li	a5,-15
    449c:	40b00933          	neg	s2,a1
    44a0:	12f5dc63          	bge	a1,a5,45d8 <eshift.part.0+0x208>
    44a4:	01850593          	addi	a1,a0,24
    44a8:	00000993          	li	s3,0
    44ac:	00450693          	addi	a3,a0,4
    44b0:	00f00613          	li	a2,15
    44b4:	01845703          	lhu	a4,24(s0)
    44b8:	00058793          	mv	a5,a1
    44bc:	00e9e9b3          	or	s3,s3,a4
    44c0:	ffe7d703          	lhu	a4,-2(a5)
    44c4:	ffe78793          	addi	a5,a5,-2
    44c8:	00e79123          	sh	a4,2(a5)
    44cc:	fed79ae3          	bne	a5,a3,44c0 <eshift.part.0+0xf0>
    44d0:	00041223          	sh	zero,4(s0)
    44d4:	ff090913          	addi	s2,s2,-16
    44d8:	fd264ee3          	blt	a2,s2,44b4 <eshift.part.0+0xe4>
    44dc:	ff000913          	li	s2,-16
    44e0:	ff100713          	li	a4,-15
    44e4:	40990933          	sub	s2,s2,s1
    44e8:	00000793          	li	a5,0
    44ec:	0ae4c463          	blt	s1,a4,4594 <eshift.part.0+0x1c4>
    44f0:	00f90933          	add	s2,s2,a5
    44f4:	00700793          	li	a5,7
    44f8:	0527d663          	bge	a5,s2,4544 <eshift.part.0+0x174>
    44fc:	01099993          	slli	s3,s3,0x10
    4500:	4109d993          	srai	s3,s3,0x10
    4504:	01844783          	lbu	a5,24(s0)
    4508:	01a40593          	addi	a1,s0,26
    450c:	00f9e9b3          	or	s3,s3,a5
    4510:	01099993          	slli	s3,s3,0x10
    4514:	0109d993          	srli	s3,s3,0x10
    4518:	00000793          	li	a5,0
    451c:	0006d603          	lhu	a2,0(a3)
    4520:	00268693          	addi	a3,a3,2
    4524:	00865713          	srli	a4,a2,0x8
    4528:	00e7e733          	or	a4,a5,a4
    452c:	00861793          	slli	a5,a2,0x8
    4530:	01079793          	slli	a5,a5,0x10
    4534:	fee69f23          	sh	a4,-2(a3)
    4538:	0107d793          	srli	a5,a5,0x10
    453c:	feb690e3          	bne	a3,a1,451c <eshift.part.0+0x14c>
    4540:	ff890913          	addi	s2,s2,-8
    4544:	06090c63          	beqz	s2,45bc <eshift.part.0+0x1ec>
    4548:	01845783          	lhu	a5,24(s0)
    454c:	fff90913          	addi	s2,s2,-1
    4550:	00040513          	mv	a0,s0
    4554:	0017f793          	andi	a5,a5,1
    4558:	0137e9b3          	or	s3,a5,s3
    455c:	a29ff0ef          	jal	ra,3f84 <eshdn1>
    4560:	fe0914e3          	bnez	s2,4548 <eshift.part.0+0x178>
    4564:	01099793          	slli	a5,s3,0x10
    4568:	4107d793          	srai	a5,a5,0x10
    456c:	04079063          	bnez	a5,45ac <eshift.part.0+0x1dc>
    4570:	01099513          	slli	a0,s3,0x10
    4574:	01055513          	srli	a0,a0,0x10
    4578:	01c12083          	lw	ra,28(sp)
    457c:	01812403          	lw	s0,24(sp)
    4580:	01412483          	lw	s1,20(sp)
    4584:	01012903          	lw	s2,16(sp)
    4588:	00c12983          	lw	s3,12(sp)
    458c:	02010113          	addi	sp,sp,32
    4590:	00008067          	ret
    4594:	ff097793          	andi	a5,s2,-16
    4598:	40f007b3          	neg	a5,a5
    459c:	00f90933          	add	s2,s2,a5
    45a0:	00700793          	li	a5,7
    45a4:	fb27d0e3          	bge	a5,s2,4544 <eshift.part.0+0x174>
    45a8:	f55ff06f          	j	44fc <eshift.part.0+0x12c>
    45ac:	00100993          	li	s3,1
    45b0:	01099513          	slli	a0,s3,0x10
    45b4:	01055513          	srli	a0,a0,0x10
    45b8:	fc1ff06f          	j	4578 <eshift.part.0+0x1a8>
    45bc:	00098513          	mv	a0,s3
    45c0:	00099863          	bnez	s3,45d0 <eshift.part.0+0x200>
    45c4:	01051513          	slli	a0,a0,0x10
    45c8:	01055513          	srli	a0,a0,0x10
    45cc:	eb1ff06f          	j	447c <eshift.part.0+0xac>
    45d0:	00100513          	li	a0,1
    45d4:	ff1ff06f          	j	45c4 <eshift.part.0+0x1f4>
    45d8:	ff900793          	li	a5,-7
    45dc:	00000993          	li	s3,0
    45e0:	f6f5d4e3          	bge	a1,a5,4548 <eshift.part.0+0x178>
    45e4:	00440693          	addi	a3,s0,4
    45e8:	f1dff06f          	j	4504 <eshift.part.0+0x134>

000045ec <enormlz>:
    45ec:	00455783          	lhu	a5,4(a0)
    45f0:	ff010113          	addi	sp,sp,-16
    45f4:	00912223          	sw	s1,4(sp)
    45f8:	00112623          	sw	ra,12(sp)
    45fc:	00812423          	sw	s0,8(sp)
    4600:	01212023          	sw	s2,0(sp)
    4604:	00050493          	mv	s1,a0
    4608:	0c079c63          	bnez	a5,46e0 <enormlz+0xf4>
    460c:	00655703          	lhu	a4,6(a0)
    4610:	00000413          	li	s0,0
    4614:	01071793          	slli	a5,a4,0x10
    4618:	4107d793          	srai	a5,a5,0x10
    461c:	0a07c463          	bltz	a5,46c4 <enormlz+0xd8>
    4620:	01a50693          	addi	a3,a0,26
    4624:	0a000613          	li	a2,160
    4628:	02071863          	bnez	a4,4658 <enormlz+0x6c>
    462c:	00648793          	addi	a5,s1,6
    4630:	0080006f          	j	4638 <enormlz+0x4c>
    4634:	0007d703          	lhu	a4,0(a5)
    4638:	00278793          	addi	a5,a5,2
    463c:	fee79e23          	sh	a4,-4(a5)
    4640:	fef69ae3          	bne	a3,a5,4634 <enormlz+0x48>
    4644:	00049c23          	sh	zero,24(s1)
    4648:	01040413          	addi	s0,s0,16
    464c:	06c40c63          	beq	s0,a2,46c4 <enormlz+0xd8>
    4650:	0064d703          	lhu	a4,6(s1)
    4654:	fc070ce3          	beqz	a4,462c <enormlz+0x40>
    4658:	f0077793          	andi	a5,a4,-256
    465c:	04079063          	bnez	a5,469c <enormlz+0xb0>
    4660:	01848513          	addi	a0,s1,24
    4664:	00248593          	addi	a1,s1,2
    4668:	00000793          	li	a5,0
    466c:	00050713          	mv	a4,a0
    4670:	00075683          	lhu	a3,0(a4)
    4674:	ffe70713          	addi	a4,a4,-2
    4678:	00869613          	slli	a2,a3,0x8
    467c:	00c7e7b3          	or	a5,a5,a2
    4680:	00f71123          	sh	a5,2(a4)
    4684:	0086d793          	srli	a5,a3,0x8
    4688:	fee594e3          	bne	a1,a4,4670 <enormlz+0x84>
    468c:	0064d703          	lhu	a4,6(s1)
    4690:	00840413          	addi	s0,s0,8
    4694:	f0077793          	andi	a5,a4,-256
    4698:	fc0788e3          	beqz	a5,4668 <enormlz+0x7c>
    469c:	0a000913          	li	s2,160
    46a0:	0140006f          	j	46b4 <enormlz+0xc8>
    46a4:	00140413          	addi	s0,s0,1
    46a8:	945ff0ef          	jal	ra,3fec <eshup1>
    46ac:	00894c63          	blt	s2,s0,46c4 <enormlz+0xd8>
    46b0:	0064d703          	lhu	a4,6(s1)
    46b4:	01071713          	slli	a4,a4,0x10
    46b8:	41075713          	srai	a4,a4,0x10
    46bc:	00048513          	mv	a0,s1
    46c0:	fe0752e3          	bgez	a4,46a4 <enormlz+0xb8>
    46c4:	00c12083          	lw	ra,12(sp)
    46c8:	00040513          	mv	a0,s0
    46cc:	00812403          	lw	s0,8(sp)
    46d0:	00412483          	lw	s1,4(sp)
    46d4:	00012903          	lw	s2,0(sp)
    46d8:	01010113          	addi	sp,sp,16
    46dc:	00008067          	ret
    46e0:	f007f713          	andi	a4,a5,-256
    46e4:	00000413          	li	s0,0
    46e8:	04071063          	bnez	a4,4728 <enormlz+0x13c>
    46ec:	f6f00913          	li	s2,-145
    46f0:	0140006f          	j	4704 <enormlz+0x118>
    46f4:	fff40413          	addi	s0,s0,-1
    46f8:	88dff0ef          	jal	ra,3f84 <eshdn1>
    46fc:	fd2404e3          	beq	s0,s2,46c4 <enormlz+0xd8>
    4700:	0044d783          	lhu	a5,4(s1)
    4704:	00048513          	mv	a0,s1
    4708:	fe0796e3          	bnez	a5,46f4 <enormlz+0x108>
    470c:	00c12083          	lw	ra,12(sp)
    4710:	00040513          	mv	a0,s0
    4714:	00812403          	lw	s0,8(sp)
    4718:	00412483          	lw	s1,4(sp)
    471c:	00012903          	lw	s2,0(sp)
    4720:	01010113          	addi	sp,sp,16
    4724:	00008067          	ret
    4728:	00450693          	addi	a3,a0,4
    472c:	01a50593          	addi	a1,a0,26
    4730:	00000713          	li	a4,0
    4734:	0080006f          	j	473c <enormlz+0x150>
    4738:	0006d783          	lhu	a5,0(a3)
    473c:	0087d613          	srli	a2,a5,0x8
    4740:	00c76733          	or	a4,a4,a2
    4744:	00879793          	slli	a5,a5,0x8
    4748:	00e69023          	sh	a4,0(a3)
    474c:	01079713          	slli	a4,a5,0x10
    4750:	00268693          	addi	a3,a3,2
    4754:	01075713          	srli	a4,a4,0x10
    4758:	feb690e3          	bne	a3,a1,4738 <enormlz+0x14c>
    475c:	0044d783          	lhu	a5,4(s1)
    4760:	ff800413          	li	s0,-8
    4764:	f89ff06f          	j	46ec <enormlz+0x100>

00004768 <emdnorm>:
    4768:	fe010113          	addi	sp,sp,-32
    476c:	00812c23          	sw	s0,24(sp)
    4770:	00912a23          	sw	s1,20(sp)
    4774:	01212823          	sw	s2,16(sp)
    4778:	01312623          	sw	s3,12(sp)
    477c:	01412423          	sw	s4,8(sp)
    4780:	01512223          	sw	s5,4(sp)
    4784:	00068913          	mv	s2,a3
    4788:	00078493          	mv	s1,a5
    478c:	00112e23          	sw	ra,28(sp)
    4790:	00050413          	mv	s0,a0
    4794:	00058993          	mv	s3,a1
    4798:	00060a13          	mv	s4,a2
    479c:	00070a93          	mv	s5,a4
    47a0:	e4dff0ef          	jal	ra,45ec <enormlz>
    47a4:	09000793          	li	a5,144
    47a8:	40a90933          	sub	s2,s2,a0
    47ac:	16a7dc63          	bge	a5,a0,4924 <emdnorm+0x1bc>
    47b0:	000087b7          	lui	a5,0x8
    47b4:	ffe78793          	addi	a5,a5,-2 # 7ffe <__mcmp+0xa>
    47b8:	1f27da63          	bge	a5,s2,49ac <emdnorm+0x244>
    47bc:	1c0a8463          	beqz	s5,4984 <emdnorm+0x21c>
    47c0:	0044a503          	lw	a0,4(s1)
    47c4:	0004a783          	lw	a5,0(s1)
    47c8:	06f50a63          	beq	a0,a5,483c <emdnorm+0xd4>
    47cc:	01a48713          	addi	a4,s1,26
    47d0:	03448793          	addi	a5,s1,52
    47d4:	00270713          	addi	a4,a4,2
    47d8:	fe071f23          	sh	zero,-2(a4)
    47dc:	fef71ce3          	bne	a4,a5,47d4 <emdnorm+0x6c>
    47e0:	03800793          	li	a5,56
    47e4:	32f50c63          	beq	a0,a5,4b1c <emdnorm+0x3b4>
    47e8:	16a7d063          	bge	a5,a0,4948 <emdnorm+0x1e0>
    47ec:	04000793          	li	a5,64
    47f0:	2ef50c63          	beq	a0,a5,4ae8 <emdnorm+0x380>
    47f4:	07100793          	li	a5,113
    47f8:	34f51863          	bne	a0,a5,4b48 <emdnorm+0x3e0>
    47fc:	400087b7          	lui	a5,0x40008
    4800:	fff78793          	addi	a5,a5,-1 # 40007fff <//.+0x3fff2087>
    4804:	00a00713          	li	a4,10
    4808:	00f4aa23          	sw	a5,20(s1)
    480c:	ffff87b7          	lui	a5,0xffff8
    4810:	00e4a423          	sw	a4,8(s1)
    4814:	00f49c23          	sh	a5,24(s1)
    4818:	00e4a623          	sw	a4,12(s1)
    481c:	00a00793          	li	a5,10
    4820:	00008737          	lui	a4,0x8
    4824:	00878793          	addi	a5,a5,8 # ffff8008 <//.+0xfffe2090>
    4828:	00179793          	slli	a5,a5,0x1
    482c:	00f487b3          	add	a5,s1,a5
    4830:	00e79523          	sh	a4,10(a5)
    4834:	00a4a023          	sw	a0,0(s1)
    4838:	1b205863          	blez	s2,49e8 <emdnorm+0x280>
    483c:	0084a583          	lw	a1,8(s1)
    4840:	0144d783          	lhu	a5,20(s1)
    4844:	08f00813          	li	a6,143
    4848:	00159613          	slli	a2,a1,0x1
    484c:	00c40633          	add	a2,s0,a2
    4850:	00065703          	lhu	a4,0(a2)
    4854:	00f776b3          	and	a3,a4,a5
    4858:	02a84a63          	blt	a6,a0,488c <emdnorm+0x124>
    485c:	00b00813          	li	a6,11
    4860:	02b84663          	blt	a6,a1,488c <emdnorm+0x124>
    4864:	00060793          	mv	a5,a2
    4868:	01840593          	addi	a1,s0,24
    486c:	0027d703          	lhu	a4,2(a5)
    4870:	00070463          	beqz	a4,4878 <emdnorm+0x110>
    4874:	0016e693          	ori	a3,a3,1
    4878:	00079123          	sh	zero,2(a5)
    487c:	00278793          	addi	a5,a5,2
    4880:	fef596e3          	bne	a1,a5,486c <emdnorm+0x104>
    4884:	00065703          	lhu	a4,0(a2)
    4888:	0144d783          	lhu	a5,20(s1)
    488c:	fff7c793          	not	a5,a5
    4890:	00e7f7b3          	and	a5,a5,a4
    4894:	00f61023          	sh	a5,0(a2)
    4898:	0164d783          	lhu	a5,22(s1)
    489c:	00d7f733          	and	a4,a5,a3
    48a0:	04070063          	beqz	a4,48e0 <emdnorm+0x178>
    48a4:	1ad78463          	beq	a5,a3,4a4c <emdnorm+0x2e4>
    48a8:	03248613          	addi	a2,s1,50
    48ac:	01840693          	addi	a3,s0,24
    48b0:	01c48493          	addi	s1,s1,28
    48b4:	00000713          	li	a4,0
    48b8:	00065783          	lhu	a5,0(a2)
    48bc:	0006d583          	lhu	a1,0(a3)
    48c0:	ffe68693          	addi	a3,a3,-2
    48c4:	ffe60613          	addi	a2,a2,-2
    48c8:	00b787b3          	add	a5,a5,a1
    48cc:	00e787b3          	add	a5,a5,a4
    48d0:	0107d713          	srli	a4,a5,0x10
    48d4:	00f69123          	sh	a5,2(a3)
    48d8:	00177713          	andi	a4,a4,1
    48dc:	fc961ee3          	bne	a2,s1,48b8 <emdnorm+0x150>
    48e0:	19205863          	blez	s2,4a70 <emdnorm+0x308>
    48e4:	00445783          	lhu	a5,4(s0)
    48e8:	12079e63          	bnez	a5,4a24 <emdnorm+0x2bc>
    48ec:	000087b7          	lui	a5,0x8
    48f0:	00041c23          	sh	zero,24(s0)
    48f4:	ffe78793          	addi	a5,a5,-2 # 7ffe <__mcmp+0xa>
    48f8:	0927c863          	blt	a5,s2,4988 <emdnorm+0x220>
    48fc:	01241123          	sh	s2,2(s0)
    4900:	01c12083          	lw	ra,28(sp)
    4904:	01812403          	lw	s0,24(sp)
    4908:	01412483          	lw	s1,20(sp)
    490c:	01012903          	lw	s2,16(sp)
    4910:	00c12983          	lw	s3,12(sp)
    4914:	00812a03          	lw	s4,8(sp)
    4918:	00412a83          	lw	s5,4(sp)
    491c:	02010113          	addi	sp,sp,32
    4920:	00008067          	ret
    4924:	0e095463          	bgez	s2,4a0c <emdnorm+0x2a4>
    4928:	f7000793          	li	a5,-144
    492c:	08f95c63          	bge	s2,a5,49c4 <emdnorm+0x25c>
    4930:	00240793          	addi	a5,s0,2
    4934:	01a40413          	addi	s0,s0,26
    4938:	00278793          	addi	a5,a5,2
    493c:	fe079f23          	sh	zero,-2(a5)
    4940:	fe879ce3          	bne	a5,s0,4938 <emdnorm+0x1d0>
    4944:	fbdff06f          	j	4900 <emdnorm+0x198>
    4948:	01800793          	li	a5,24
    494c:	16f50863          	beq	a0,a5,4abc <emdnorm+0x354>
    4950:	03500793          	li	a5,53
    4954:	1ef51a63          	bne	a0,a5,4b48 <emdnorm+0x3e0>
    4958:	00001737          	lui	a4,0x1
    495c:	040007b7          	lui	a5,0x4000
    4960:	00600693          	li	a3,6
    4964:	7ff78793          	addi	a5,a5,2047 # 40007ff <//.+0x3fea887>
    4968:	80070713          	addi	a4,a4,-2048 # 800 <_vfprintf_r+0x1c4>
    496c:	00f4aa23          	sw	a5,20(s1)
    4970:	00d4a423          	sw	a3,8(s1)
    4974:	00e49c23          	sh	a4,24(s1)
    4978:	00d4a623          	sw	a3,12(s1)
    497c:	00600793          	li	a5,6
    4980:	ea5ff06f          	j	4824 <emdnorm+0xbc>
    4984:	00041c23          	sh	zero,24(s0)
    4988:	ffff87b7          	lui	a5,0xffff8
    498c:	fff7c793          	not	a5,a5
    4990:	00f41123          	sh	a5,2(s0)
    4994:	00440793          	addi	a5,s0,4
    4998:	01840413          	addi	s0,s0,24
    499c:	00079023          	sh	zero,0(a5) # ffff8000 <//.+0xfffe2088>
    49a0:	00278793          	addi	a5,a5,2
    49a4:	fef41ce3          	bne	s0,a5,499c <emdnorm+0x234>
    49a8:	f59ff06f          	j	4900 <emdnorm+0x198>
    49ac:	00240793          	addi	a5,s0,2
    49b0:	01a40413          	addi	s0,s0,26
    49b4:	00278793          	addi	a5,a5,2
    49b8:	fe079f23          	sh	zero,-2(a5)
    49bc:	fe879ce3          	bne	a5,s0,49b4 <emdnorm+0x24c>
    49c0:	f41ff06f          	j	4900 <emdnorm+0x198>
    49c4:	00090593          	mv	a1,s2
    49c8:	00040513          	mv	a0,s0
    49cc:	a05ff0ef          	jal	ra,43d0 <eshift.part.0>
    49d0:	00050463          	beqz	a0,49d8 <emdnorm+0x270>
    49d4:	00100993          	li	s3,1
    49d8:	0c0a8c63          	beqz	s5,4ab0 <emdnorm+0x348>
    49dc:	0044a503          	lw	a0,4(s1)
    49e0:	0004a783          	lw	a5,0(s1)
    49e4:	def514e3          	bne	a0,a5,47cc <emdnorm+0x64>
    49e8:	09000793          	li	a5,144
    49ec:	0af50463          	beq	a0,a5,4a94 <emdnorm+0x32c>
    49f0:	01845783          	lhu	a5,24(s0)
    49f4:	00040513          	mv	a0,s0
    49f8:	0017f793          	andi	a5,a5,1
    49fc:	00f9e9b3          	or	s3,s3,a5
    4a00:	d84ff0ef          	jal	ra,3f84 <eshdn1>
    4a04:	0044a503          	lw	a0,4(s1)
    4a08:	e35ff06f          	j	483c <emdnorm+0xd4>
    4a0c:	ee0a80e3          	beqz	s5,48ec <emdnorm+0x184>
    4a10:	0044a503          	lw	a0,4(s1)
    4a14:	0004a783          	lw	a5,0(s1)
    4a18:	daf51ae3          	bne	a0,a5,47cc <emdnorm+0x64>
    4a1c:	e32040e3          	bgtz	s2,483c <emdnorm+0xd4>
    4a20:	fc9ff06f          	j	49e8 <emdnorm+0x280>
    4a24:	00040513          	mv	a0,s0
    4a28:	d5cff0ef          	jal	ra,3f84 <eshdn1>
    4a2c:	000087b7          	lui	a5,0x8
    4a30:	00190913          	addi	s2,s2,1
    4a34:	00041c23          	sh	zero,24(s0)
    4a38:	ffe78793          	addi	a5,a5,-2 # 7ffe <__mcmp+0xa>
    4a3c:	f527c6e3          	blt	a5,s2,4988 <emdnorm+0x220>
    4a40:	ea095ee3          	bgez	s2,48fc <emdnorm+0x194>
    4a44:	00041123          	sh	zero,2(s0)
    4a48:	eb9ff06f          	j	4900 <emdnorm+0x198>
    4a4c:	0c099463          	bnez	s3,4b14 <emdnorm+0x3ac>
    4a50:	00c4a783          	lw	a5,12(s1)
    4a54:	0184d703          	lhu	a4,24(s1)
    4a58:	00179793          	slli	a5,a5,0x1
    4a5c:	00f407b3          	add	a5,s0,a5
    4a60:	0007d783          	lhu	a5,0(a5)
    4a64:	00e7f7b3          	and	a5,a5,a4
    4a68:	e40790e3          	bnez	a5,48a8 <emdnorm+0x140>
    4a6c:	e7204ce3          	bgtz	s2,48e4 <emdnorm+0x17c>
    4a70:	09000793          	li	a5,144
    4a74:	00f50663          	beq	a0,a5,4a80 <emdnorm+0x318>
    4a78:	00040513          	mv	a0,s0
    4a7c:	d70ff0ef          	jal	ra,3fec <eshup1>
    4a80:	00445783          	lhu	a5,4(s0)
    4a84:	fa0790e3          	bnez	a5,4a24 <emdnorm+0x2bc>
    4a88:	00041c23          	sh	zero,24(s0)
    4a8c:	fa094ce3          	bltz	s2,4a44 <emdnorm+0x2dc>
    4a90:	e6dff06f          	j	48fc <emdnorm+0x194>
    4a94:	0084a603          	lw	a2,8(s1)
    4a98:	0144d783          	lhu	a5,20(s1)
    4a9c:	00161613          	slli	a2,a2,0x1
    4aa0:	00c40633          	add	a2,s0,a2
    4aa4:	00065703          	lhu	a4,0(a2)
    4aa8:	00e7f6b3          	and	a3,a5,a4
    4aac:	de1ff06f          	j	488c <emdnorm+0x124>
    4ab0:	00041c23          	sh	zero,24(s0)
    4ab4:	00041123          	sh	zero,2(s0)
    4ab8:	e49ff06f          	j	4900 <emdnorm+0x198>
    4abc:	008007b7          	lui	a5,0x800
    4ac0:	0ff78793          	addi	a5,a5,255 # 8000ff <//.+0x7ea187>
    4ac4:	00400713          	li	a4,4
    4ac8:	00f4aa23          	sw	a5,20(s1)
    4acc:	10000793          	li	a5,256
    4ad0:	00e4a423          	sw	a4,8(s1)
    4ad4:	00f49c23          	sh	a5,24(s1)
    4ad8:	00e4a623          	sw	a4,12(s1)
    4adc:	00400793          	li	a5,4
    4ae0:	10000713          	li	a4,256
    4ae4:	d41ff06f          	j	4824 <emdnorm+0xbc>
    4ae8:	00700793          	li	a5,7
    4aec:	00f4a423          	sw	a5,8(s1)
    4af0:	800107b7          	lui	a5,0x80010
    4af4:	fff78793          	addi	a5,a5,-1 # 8000ffff <//.+0x7fffa087>
    4af8:	00f4aa23          	sw	a5,20(s1)
    4afc:	00100793          	li	a5,1
    4b00:	00f49c23          	sh	a5,24(s1)
    4b04:	00600793          	li	a5,6
    4b08:	00f4a623          	sw	a5,12(s1)
    4b0c:	00100713          	li	a4,1
    4b10:	d15ff06f          	j	4824 <emdnorm+0xbc>
    4b14:	d80a0ae3          	beqz	s4,48a8 <emdnorm+0x140>
    4b18:	dc9ff06f          	j	48e0 <emdnorm+0x178>
    4b1c:	008007b7          	lui	a5,0x800
    4b20:	0ff78793          	addi	a5,a5,255 # 8000ff <//.+0x7ea187>
    4b24:	00600713          	li	a4,6
    4b28:	00f4aa23          	sw	a5,20(s1)
    4b2c:	10000793          	li	a5,256
    4b30:	00e4a423          	sw	a4,8(s1)
    4b34:	00f49c23          	sh	a5,24(s1)
    4b38:	00e4a623          	sw	a4,12(s1)
    4b3c:	00600793          	li	a5,6
    4b40:	10000713          	li	a4,256
    4b44:	ce1ff06f          	j	4824 <emdnorm+0xbc>
    4b48:	00c00793          	li	a5,12
    4b4c:	00f4a423          	sw	a5,8(s1)
    4b50:	800107b7          	lui	a5,0x80010
    4b54:	fff78793          	addi	a5,a5,-1 # 8000ffff <//.+0x7fffa087>
    4b58:	00f4aa23          	sw	a5,20(s1)
    4b5c:	00100793          	li	a5,1
    4b60:	00f49c23          	sh	a5,24(s1)
    4b64:	00b00793          	li	a5,11
    4b68:	00f4a623          	sw	a5,12(s1)
    4b6c:	00100713          	li	a4,1
    4b70:	cb5ff06f          	j	4824 <emdnorm+0xbc>

00004b74 <eiremain>:
    4b74:	fd010113          	addi	sp,sp,-48
    4b78:	02912223          	sw	s1,36(sp)
    4b7c:	01312e23          	sw	s3,28(sp)
    4b80:	00058493          	mv	s1,a1
    4b84:	00255983          	lhu	s3,2(a0)
    4b88:	02112623          	sw	ra,44(sp)
    4b8c:	02812423          	sw	s0,40(sp)
    4b90:	03212023          	sw	s2,32(sp)
    4b94:	01412c23          	sw	s4,24(sp)
    4b98:	00060913          	mv	s2,a2
    4b9c:	01512a23          	sw	s5,20(sp)
    4ba0:	01612823          	sw	s6,16(sp)
    4ba4:	01712623          	sw	s7,12(sp)
    4ba8:	01812423          	sw	s8,8(sp)
    4bac:	01912223          	sw	s9,4(sp)
    4bb0:	01a12023          	sw	s10,0(sp)
    4bb4:	00050a13          	mv	s4,a0
    4bb8:	a35ff0ef          	jal	ra,45ec <enormlz>
    4bbc:	0024d403          	lhu	s0,2(s1)
    4bc0:	00050793          	mv	a5,a0
    4bc4:	00048513          	mv	a0,s1
    4bc8:	40f989b3          	sub	s3,s3,a5
    4bcc:	03490a93          	addi	s5,s2,52
    4bd0:	a1dff0ef          	jal	ra,45ec <enormlz>
    4bd4:	40a40433          	sub	s0,s0,a0
    4bd8:	04e90713          	addi	a4,s2,78
    4bdc:	000a8793          	mv	a5,s5
    4be0:	00278793          	addi	a5,a5,2
    4be4:	fe079f23          	sh	zero,-2(a5)
    4be8:	fee79ce3          	bne	a5,a4,4be0 <eiremain+0x6c>
    4bec:	09344a63          	blt	s0,s3,4c80 <eiremain+0x10c>
    4bf0:	004a0b93          	addi	s7,s4,4
    4bf4:	00448b13          	addi	s6,s1,4
    4bf8:	fff98993          	addi	s3,s3,-1
    4bfc:	01aa0c93          	addi	s9,s4,26
    4c00:	00248c13          	addi	s8,s1,2
    4c04:	000b0713          	mv	a4,s6
    4c08:	000b8793          	mv	a5,s7
    4c0c:	0007d603          	lhu	a2,0(a5)
    4c10:	00075683          	lhu	a3,0(a4)
    4c14:	00278793          	addi	a5,a5,2
    4c18:	00270713          	addi	a4,a4,2
    4c1c:	0ad61a63          	bne	a2,a3,4cd0 <eiremain+0x15c>
    4c20:	ff9796e3          	bne	a5,s9,4c0c <eiremain+0x98>
    4c24:	018a0613          	addi	a2,s4,24
    4c28:	01848713          	addi	a4,s1,24
    4c2c:	00000693          	li	a3,0
    4c30:	00075783          	lhu	a5,0(a4)
    4c34:	00065583          	lhu	a1,0(a2)
    4c38:	ffe70713          	addi	a4,a4,-2
    4c3c:	40d787b3          	sub	a5,a5,a3
    4c40:	40b787b3          	sub	a5,a5,a1
    4c44:	0107d693          	srli	a3,a5,0x10
    4c48:	00f71123          	sh	a5,2(a4)
    4c4c:	0016f693          	andi	a3,a3,1
    4c50:	ffe60613          	addi	a2,a2,-2
    4c54:	fcec1ee3          	bne	s8,a4,4c30 <eiremain+0xbc>
    4c58:	00100d13          	li	s10,1
    4c5c:	000a8513          	mv	a0,s5
    4c60:	b8cff0ef          	jal	ra,3fec <eshup1>
    4c64:	04c95783          	lhu	a5,76(s2)
    4c68:	fff40413          	addi	s0,s0,-1
    4c6c:	00048513          	mv	a0,s1
    4c70:	00fd6d33          	or	s10,s10,a5
    4c74:	05a91623          	sh	s10,76(s2)
    4c78:	b74ff0ef          	jal	ra,3fec <eshup1>
    4c7c:	f93414e3          	bne	s0,s3,4c04 <eiremain+0x90>
    4c80:	00040693          	mv	a3,s0
    4c84:	02812403          	lw	s0,40(sp)
    4c88:	02c12083          	lw	ra,44(sp)
    4c8c:	01c12983          	lw	s3,28(sp)
    4c90:	01812a03          	lw	s4,24(sp)
    4c94:	01412a83          	lw	s5,20(sp)
    4c98:	01012b03          	lw	s6,16(sp)
    4c9c:	00c12b83          	lw	s7,12(sp)
    4ca0:	00812c03          	lw	s8,8(sp)
    4ca4:	00412c83          	lw	s9,4(sp)
    4ca8:	00012d03          	lw	s10,0(sp)
    4cac:	00090793          	mv	a5,s2
    4cb0:	00048513          	mv	a0,s1
    4cb4:	02012903          	lw	s2,32(sp)
    4cb8:	02412483          	lw	s1,36(sp)
    4cbc:	00000713          	li	a4,0
    4cc0:	00000613          	li	a2,0
    4cc4:	00000593          	li	a1,0
    4cc8:	03010113          	addi	sp,sp,48
    4ccc:	a9dff06f          	j	4768 <emdnorm>
    4cd0:	00000d13          	li	s10,0
    4cd4:	f8c6e4e3          	bltu	a3,a2,4c5c <eiremain+0xe8>
    4cd8:	f4dff06f          	j	4c24 <eiremain+0xb0>

00004cdc <emovo.isra.0>:
    4cdc:	00055703          	lhu	a4,0(a0)
    4ce0:	00255783          	lhu	a5,2(a0)
    4ce4:	00070663          	beqz	a4,4cf0 <emovo.isra.0+0x14>
    4ce8:	00008737          	lui	a4,0x8
    4cec:	00e7e7b3          	or	a5,a5,a4
    4cf0:	00f59923          	sh	a5,18(a1)
    4cf4:	00255703          	lhu	a4,2(a0)
    4cf8:	000087b7          	lui	a5,0x8
    4cfc:	fff78793          	addi	a5,a5,-1 # 7fff <__mcmp+0xb>
    4d00:	02f70463          	beq	a4,a5,4d28 <emovo.isra.0+0x4c>
    4d04:	00650793          	addi	a5,a0,6
    4d08:	01058593          	addi	a1,a1,16
    4d0c:	01850513          	addi	a0,a0,24
    4d10:	0007d703          	lhu	a4,0(a5)
    4d14:	00278793          	addi	a5,a5,2
    4d18:	ffe58593          	addi	a1,a1,-2
    4d1c:	00e59123          	sh	a4,2(a1)
    4d20:	fea798e3          	bne	a5,a0,4d10 <emovo.isra.0+0x34>
    4d24:	00008067          	ret
    4d28:	00650793          	addi	a5,a0,6
    4d2c:	01a50513          	addi	a0,a0,26
    4d30:	0007d703          	lhu	a4,0(a5)
    4d34:	00278793          	addi	a5,a5,2
    4d38:	02071a63          	bnez	a4,4d6c <emovo.isra.0+0x90>
    4d3c:	fea79ae3          	bne	a5,a0,4d30 <emovo.isra.0+0x54>
    4d40:	01258713          	addi	a4,a1,18
    4d44:	00058793          	mv	a5,a1
    4d48:	00278793          	addi	a5,a5,2
    4d4c:	fe079f23          	sh	zero,-2(a5)
    4d50:	fef71ce3          	bne	a4,a5,4d48 <emovo.isra.0+0x6c>
    4d54:	0125d783          	lhu	a5,18(a1)
    4d58:	00008737          	lui	a4,0x8
    4d5c:	fff70713          	addi	a4,a4,-1 # 7fff <__mcmp+0xb>
    4d60:	00e7e7b3          	or	a5,a5,a4
    4d64:	00f59923          	sh	a5,18(a1)
    4d68:	00008067          	ret
    4d6c:	01058713          	addi	a4,a1,16
    4d70:	00058793          	mv	a5,a1
    4d74:	00278793          	addi	a5,a5,2
    4d78:	fe079f23          	sh	zero,-2(a5)
    4d7c:	fef71ce3          	bne	a4,a5,4d74 <emovo.isra.0+0x98>
    4d80:	ffffc7b7          	lui	a5,0xffffc
    4d84:	00f59823          	sh	a5,16(a1)
    4d88:	ffff87b7          	lui	a5,0xffff8
    4d8c:	fff7c793          	not	a5,a5
    4d90:	00f59923          	sh	a5,18(a1)
    4d94:	00008067          	ret

00004d98 <emul>:
    4d98:	f7010113          	addi	sp,sp,-144
    4d9c:	07512a23          	sw	s5,116(sp)
    4da0:	01255a83          	lhu	s5,18(a0)
    4da4:	000087b7          	lui	a5,0x8
    4da8:	fff78793          	addi	a5,a5,-1 # 7fff <__mcmp+0xb>
    4dac:	08812423          	sw	s0,136(sp)
    4db0:	08912223          	sw	s1,132(sp)
    4db4:	09212023          	sw	s2,128(sp)
    4db8:	07312e23          	sw	s3,124(sp)
    4dbc:	07612823          	sw	s6,112(sp)
    4dc0:	08112623          	sw	ra,140(sp)
    4dc4:	07412c23          	sw	s4,120(sp)
    4dc8:	07712623          	sw	s7,108(sp)
    4dcc:	07812423          	sw	s8,104(sp)
    4dd0:	07912223          	sw	s9,100(sp)
    4dd4:	0157fb33          	and	s6,a5,s5
    4dd8:	00050493          	mv	s1,a0
    4ddc:	00058913          	mv	s2,a1
    4de0:	00060413          	mv	s0,a2
    4de4:	00068993          	mv	s3,a3
    4de8:	10fb1263          	bne	s6,a5,4eec <emul+0x154>
    4dec:	b08ff0ef          	jal	ra,40f4 <eisnan.part.0>
    4df0:	28051663          	bnez	a0,507c <emul+0x2e4>
    4df4:	01295a03          	lhu	s4,18(s2)
    4df8:	014b77b3          	and	a5,s6,s4
    4dfc:	29678e63          	beq	a5,s6,5098 <emul+0x300>
    4e00:	00048513          	mv	a0,s1
    4e04:	db0ff0ef          	jal	ra,43b4 <eisinf.part.0>
    4e08:	2e050a63          	beqz	a0,50fc <emul+0x364>
    4e0c:	000145b7          	lui	a1,0x14
    4e10:	4f858593          	addi	a1,a1,1272 # 144f8 <ezero>
    4e14:	00090513          	mv	a0,s2
    4e18:	c84ff0ef          	jal	ra,429c <ecmp>
    4e1c:	36050263          	beqz	a0,5180 <emul+0x3e8>
    4e20:	01295a03          	lhu	s4,18(s2)
    4e24:	000087b7          	lui	a5,0x8
    4e28:	fff78793          	addi	a5,a5,-1 # 7fff <__mcmp+0xb>
    4e2c:	0147fa33          	and	s4,a5,s4
    4e30:	010a1a13          	slli	s4,s4,0x10
    4e34:	010a5a13          	srli	s4,s4,0x10
    4e38:	2cfa1063          	bne	s4,a5,50f8 <emul+0x360>
    4e3c:	00090513          	mv	a0,s2
    4e40:	d74ff0ef          	jal	ra,43b4 <eisinf.part.0>
    4e44:	30051c63          	bnez	a0,515c <emul+0x3c4>
    4e48:	0124d783          	lhu	a5,18(s1)
    4e4c:	00fa77b3          	and	a5,s4,a5
    4e50:	0b479463          	bne	a5,s4,4ef8 <emul+0x160>
    4e54:	00048513          	mv	a0,s1
    4e58:	d5cff0ef          	jal	ra,43b4 <eisinf.part.0>
    4e5c:	00051863          	bnez	a0,4e6c <emul+0xd4>
    4e60:	00090513          	mv	a0,s2
    4e64:	d50ff0ef          	jal	ra,43b4 <eisinf.part.0>
    4e68:	08050863          	beqz	a0,4ef8 <emul+0x160>
    4e6c:	00048513          	mv	a0,s1
    4e70:	af4ff0ef          	jal	ra,4164 <eisneg>
    4e74:	00050493          	mv	s1,a0
    4e78:	00090513          	mv	a0,s2
    4e7c:	ae8ff0ef          	jal	ra,4164 <eisneg>
    4e80:	40a484b3          	sub	s1,s1,a0
    4e84:	009034b3          	snez	s1,s1
    4e88:	00f49493          	slli	s1,s1,0xf
    4e8c:	00941923          	sh	s1,18(s0)
    4e90:	01240713          	addi	a4,s0,18
    4e94:	00040793          	mv	a5,s0
    4e98:	00278793          	addi	a5,a5,2
    4e9c:	fe079f23          	sh	zero,-2(a5)
    4ea0:	fef71ce3          	bne	a4,a5,4e98 <emul+0x100>
    4ea4:	01245783          	lhu	a5,18(s0)
    4ea8:	00008737          	lui	a4,0x8
    4eac:	fff70713          	addi	a4,a4,-1 # 7fff <__mcmp+0xb>
    4eb0:	00e7e7b3          	or	a5,a5,a4
    4eb4:	00f41923          	sh	a5,18(s0)
    4eb8:	08c12083          	lw	ra,140(sp)
    4ebc:	08812403          	lw	s0,136(sp)
    4ec0:	08412483          	lw	s1,132(sp)
    4ec4:	08012903          	lw	s2,128(sp)
    4ec8:	07c12983          	lw	s3,124(sp)
    4ecc:	07812a03          	lw	s4,120(sp)
    4ed0:	07412a83          	lw	s5,116(sp)
    4ed4:	07012b03          	lw	s6,112(sp)
    4ed8:	06c12b83          	lw	s7,108(sp)
    4edc:	06812c03          	lw	s8,104(sp)
    4ee0:	06412c83          	lw	s9,100(sp)
    4ee4:	09010113          	addi	sp,sp,144
    4ee8:	00008067          	ret
    4eec:	0125da03          	lhu	s4,18(a1)
    4ef0:	0147f733          	and	a4,a5,s4
    4ef4:	04f70a63          	beq	a4,a5,4f48 <emul+0x1b0>
    4ef8:	00048513          	mv	a0,s1
    4efc:	00c10593          	addi	a1,sp,12
    4f00:	aa4ff0ef          	jal	ra,41a4 <emovi>
    4f04:	00090513          	mv	a0,s2
    4f08:	02810593          	addi	a1,sp,40
    4f0c:	a98ff0ef          	jal	ra,41a4 <emovi>
    4f10:	00e15483          	lhu	s1,14(sp)
    4f14:	02a15903          	lhu	s2,42(sp)
    4f18:	04049c63          	bnez	s1,4f70 <emul+0x1d8>
    4f1c:	01010793          	addi	a5,sp,16
    4f20:	02410693          	addi	a3,sp,36
    4f24:	20d78863          	beq	a5,a3,5134 <emul+0x39c>
    4f28:	0007d703          	lhu	a4,0(a5)
    4f2c:	00278793          	addi	a5,a5,2
    4f30:	fe070ae3          	beqz	a4,4f24 <emul+0x18c>
    4f34:	00c10513          	addi	a0,sp,12
    4f38:	eb4ff0ef          	jal	ra,45ec <enormlz>
    4f3c:	02a15703          	lhu	a4,42(sp)
    4f40:	40a004b3          	neg	s1,a0
    4f44:	0300006f          	j	4f74 <emul+0x1dc>
    4f48:	00058513          	mv	a0,a1
    4f4c:	9a8ff0ef          	jal	ra,40f4 <eisnan.part.0>
    4f50:	ec050ae3          	beqz	a0,4e24 <emul+0x8c>
    4f54:	01490713          	addi	a4,s2,20
    4f58:	00095783          	lhu	a5,0(s2)
    4f5c:	00290913          	addi	s2,s2,2
    4f60:	00240413          	addi	s0,s0,2
    4f64:	fef41f23          	sh	a5,-2(s0)
    4f68:	fee918e3          	bne	s2,a4,4f58 <emul+0x1c0>
    4f6c:	f4dff06f          	j	4eb8 <emul+0x120>
    4f70:	00090713          	mv	a4,s2
    4f74:	00090a93          	mv	s5,s2
    4f78:	02c10793          	addi	a5,sp,44
    4f7c:	04010693          	addi	a3,sp,64
    4f80:	02071263          	bnez	a4,4fa4 <emul+0x20c>
    4f84:	1cf68263          	beq	a3,a5,5148 <emul+0x3b0>
    4f88:	0007d703          	lhu	a4,0(a5)
    4f8c:	00278793          	addi	a5,a5,2
    4f90:	fe070ae3          	beqz	a4,4f84 <emul+0x1ec>
    4f94:	02810513          	addi	a0,sp,40
    4f98:	e54ff0ef          	jal	ra,45ec <enormlz>
    4f9c:	02a15703          	lhu	a4,42(sp)
    4fa0:	40a90ab3          	sub	s5,s2,a0
    4fa4:	02815783          	lhu	a5,40(sp)
    4fa8:	03898c13          	addi	s8,s3,56
    4fac:	02e99b23          	sh	a4,54(s3)
    4fb0:	02f99a23          	sh	a5,52(s3)
    4fb4:	04e98713          	addi	a4,s3,78
    4fb8:	000c0793          	mv	a5,s8
    4fbc:	00079023          	sh	zero,0(a5)
    4fc0:	00278793          	addi	a5,a5,2
    4fc4:	fef71ce3          	bne	a4,a5,4fbc <emul+0x224>
    4fc8:	04c98a13          	addi	s4,s3,76
    4fcc:	00000b93          	li	s7,0
    4fd0:	02410913          	addi	s2,sp,36
    4fd4:	01010c93          	addi	s9,sp,16
    4fd8:	04610b13          	addi	s6,sp,70
    4fdc:	00095503          	lhu	a0,0(s2)
    4fe0:	ffe90913          	addi	s2,s2,-2
    4fe4:	0c051863          	bnez	a0,50b4 <emul+0x31c>
    4fe8:	04c9d703          	lhu	a4,76(s3)
    4fec:	000a0793          	mv	a5,s4
    4ff0:	00ebebb3          	or	s7,s7,a4
    4ff4:	ffe7d703          	lhu	a4,-2(a5)
    4ff8:	ffe78793          	addi	a5,a5,-2
    4ffc:	00e79123          	sh	a4,2(a5)
    5000:	ff879ae3          	bne	a5,s8,4ff4 <emul+0x25c>
    5004:	02099c23          	sh	zero,56(s3)
    5008:	fd991ae3          	bne	s2,s9,4fdc <emul+0x244>
    500c:	03498713          	addi	a4,s3,52
    5010:	02810793          	addi	a5,sp,40
    5014:	04210593          	addi	a1,sp,66
    5018:	00075603          	lhu	a2,0(a4)
    501c:	00278793          	addi	a5,a5,2
    5020:	00270713          	addi	a4,a4,2
    5024:	fec79f23          	sh	a2,-2(a5)
    5028:	fef598e3          	bne	a1,a5,5018 <emul+0x280>
    502c:	ffffc6b7          	lui	a3,0xffffc
    5030:	015484b3          	add	s1,s1,s5
    5034:	00268693          	addi	a3,a3,2 # ffffc002 <//.+0xfffe608a>
    5038:	000b8593          	mv	a1,s7
    503c:	02810513          	addi	a0,sp,40
    5040:	00098793          	mv	a5,s3
    5044:	04000713          	li	a4,64
    5048:	00d486b3          	add	a3,s1,a3
    504c:	00000613          	li	a2,0
    5050:	f18ff0ef          	jal	ra,4768 <emdnorm>
    5054:	02815703          	lhu	a4,40(sp)
    5058:	00c15783          	lhu	a5,12(sp)
    505c:	00040593          	mv	a1,s0
    5060:	02810513          	addi	a0,sp,40
    5064:	40e787b3          	sub	a5,a5,a4
    5068:	00f037b3          	snez	a5,a5
    506c:	40f007b3          	neg	a5,a5
    5070:	02f11423          	sh	a5,40(sp)
    5074:	c69ff0ef          	jal	ra,4cdc <emovo.isra.0>
    5078:	e41ff06f          	j	4eb8 <emul+0x120>
    507c:	01448713          	addi	a4,s1,20
    5080:	0004d783          	lhu	a5,0(s1)
    5084:	00248493          	addi	s1,s1,2
    5088:	00240413          	addi	s0,s0,2
    508c:	fef41f23          	sh	a5,-2(s0)
    5090:	fee498e3          	bne	s1,a4,5080 <emul+0x2e8>
    5094:	e25ff06f          	j	4eb8 <emul+0x120>
    5098:	00090513          	mv	a0,s2
    509c:	858ff0ef          	jal	ra,40f4 <eisnan.part.0>
    50a0:	ea051ae3          	bnez	a0,4f54 <emul+0x1bc>
    50a4:	00048513          	mv	a0,s1
    50a8:	b0cff0ef          	jal	ra,43b4 <eisinf.part.0>
    50ac:	d6050ce3          	beqz	a0,4e24 <emul+0x8c>
    50b0:	d5dff06f          	j	4e0c <emul+0x74>
    50b4:	04410613          	addi	a2,sp,68
    50b8:	02810593          	addi	a1,sp,40
    50bc:	fa1fe0ef          	jal	ra,405c <m16m>
    50c0:	000a0593          	mv	a1,s4
    50c4:	00000613          	li	a2,0
    50c8:	05c10713          	addi	a4,sp,92
    50cc:	0005d803          	lhu	a6,0(a1)
    50d0:	00075783          	lhu	a5,0(a4)
    50d4:	ffe58593          	addi	a1,a1,-2
    50d8:	ffe70713          	addi	a4,a4,-2
    50dc:	010787b3          	add	a5,a5,a6
    50e0:	00c787b3          	add	a5,a5,a2
    50e4:	0107d613          	srli	a2,a5,0x10
    50e8:	00f59123          	sh	a5,2(a1)
    50ec:	00167613          	andi	a2,a2,1
    50f0:	fd671ee3          	bne	a4,s6,50cc <emul+0x334>
    50f4:	ef5ff06f          	j	4fe8 <emul+0x250>
    50f8:	0124da83          	lhu	s5,18(s1)
    50fc:	000087b7          	lui	a5,0x8
    5100:	fff78793          	addi	a5,a5,-1 # 7fff <__mcmp+0xb>
    5104:	0157fab3          	and	s5,a5,s5
    5108:	010a9a93          	slli	s5,s5,0x10
    510c:	010ada93          	srli	s5,s5,0x10
    5110:	defa94e3          	bne	s5,a5,4ef8 <emul+0x160>
    5114:	00048513          	mv	a0,s1
    5118:	a9cff0ef          	jal	ra,43b4 <eisinf.part.0>
    511c:	d40518e3          	bnez	a0,4e6c <emul+0xd4>
    5120:	01295783          	lhu	a5,18(s2)
    5124:	fff7c793          	not	a5,a5
    5128:	01179713          	slli	a4,a5,0x11
    512c:	dc0716e3          	bnez	a4,4ef8 <emul+0x160>
    5130:	d31ff06f          	j	4e60 <emul+0xc8>
    5134:	01440793          	addi	a5,s0,20
    5138:	00240413          	addi	s0,s0,2
    513c:	fe041f23          	sh	zero,-2(s0)
    5140:	fe879ce3          	bne	a5,s0,5138 <emul+0x3a0>
    5144:	d75ff06f          	j	4eb8 <emul+0x120>
    5148:	01440793          	addi	a5,s0,20
    514c:	00240413          	addi	s0,s0,2
    5150:	fe041f23          	sh	zero,-2(s0)
    5154:	fef41ce3          	bne	s0,a5,514c <emul+0x3b4>
    5158:	d61ff06f          	j	4eb8 <emul+0x120>
    515c:	000145b7          	lui	a1,0x14
    5160:	4f858593          	addi	a1,a1,1272 # 144f8 <ezero>
    5164:	00048513          	mv	a0,s1
    5168:	934ff0ef          	jal	ra,429c <ecmp>
    516c:	00050a63          	beqz	a0,5180 <emul+0x3e8>
    5170:	0124d783          	lhu	a5,18(s1)
    5174:	00fa77b3          	and	a5,s4,a5
    5178:	f9478ee3          	beq	a5,s4,5114 <emul+0x37c>
    517c:	fa5ff06f          	j	5120 <emul+0x388>
    5180:	01040713          	addi	a4,s0,16
    5184:	00040793          	mv	a5,s0
    5188:	00278793          	addi	a5,a5,2
    518c:	fe079f23          	sh	zero,-2(a5)
    5190:	fee79ce3          	bne	a5,a4,5188 <emul+0x3f0>
    5194:	ffffc7b7          	lui	a5,0xffffc
    5198:	00f41823          	sh	a5,16(s0)
    519c:	ffff87b7          	lui	a5,0xffff8
    51a0:	fff7c793          	not	a5,a5
    51a4:	00f41923          	sh	a5,18(s0)
    51a8:	d11ff06f          	j	4eb8 <emul+0x120>

000051ac <ediv>:
    51ac:	01255783          	lhu	a5,18(a0)
    51b0:	f5010113          	addi	sp,sp,-176
    51b4:	0a812423          	sw	s0,168(sp)
    51b8:	fff7c793          	not	a5,a5
    51bc:	0a912223          	sw	s1,164(sp)
    51c0:	0b212023          	sw	s2,160(sp)
    51c4:	09312e23          	sw	s3,156(sp)
    51c8:	0a112623          	sw	ra,172(sp)
    51cc:	09412c23          	sw	s4,152(sp)
    51d0:	09512a23          	sw	s5,148(sp)
    51d4:	09612823          	sw	s6,144(sp)
    51d8:	09712623          	sw	s7,140(sp)
    51dc:	09812423          	sw	s8,136(sp)
    51e0:	09912223          	sw	s9,132(sp)
    51e4:	09a12023          	sw	s10,128(sp)
    51e8:	07b12e23          	sw	s11,124(sp)
    51ec:	01179713          	slli	a4,a5,0x11
    51f0:	00050913          	mv	s2,a0
    51f4:	00058993          	mv	s3,a1
    51f8:	00060413          	mv	s0,a2
    51fc:	00068493          	mv	s1,a3
    5200:	00071663          	bnez	a4,520c <ediv+0x60>
    5204:	ef1fe0ef          	jal	ra,40f4 <eisnan.part.0>
    5208:	3a051263          	bnez	a0,55ac <ediv+0x400>
    520c:	0129d783          	lhu	a5,18(s3)
    5210:	fff7c793          	not	a5,a5
    5214:	01179713          	slli	a4,a5,0x11
    5218:	08070e63          	beqz	a4,52b4 <ediv+0x108>
    521c:	00014a37          	lui	s4,0x14
    5220:	4f8a0593          	addi	a1,s4,1272 # 144f8 <ezero>
    5224:	00090513          	mv	a0,s2
    5228:	874ff0ef          	jal	ra,429c <ecmp>
    522c:	10050463          	beqz	a0,5334 <ediv+0x188>
    5230:	01295a03          	lhu	s4,18(s2)
    5234:	0129d703          	lhu	a4,18(s3)
    5238:	000087b7          	lui	a5,0x8
    523c:	fff78793          	addi	a5,a5,-1 # 7fff <__mcmp+0xb>
    5240:	0147fa33          	and	s4,a5,s4
    5244:	00e7fab3          	and	s5,a5,a4
    5248:	08fa1a63          	bne	s4,a5,52dc <ediv+0x130>
    524c:	00090513          	mv	a0,s2
    5250:	964ff0ef          	jal	ra,43b4 <eisinf.part.0>
    5254:	10050e63          	beqz	a0,5370 <ediv+0x1c4>
    5258:	014a9863          	bne	s5,s4,5268 <ediv+0xbc>
    525c:	00098513          	mv	a0,s3
    5260:	954ff0ef          	jal	ra,43b4 <eisinf.part.0>
    5264:	0e051063          	bnez	a0,5344 <ediv+0x198>
    5268:	01440793          	addi	a5,s0,20
    526c:	00240413          	addi	s0,s0,2
    5270:	fe041f23          	sh	zero,-2(s0)
    5274:	fef41ce3          	bne	s0,a5,526c <ediv+0xc0>
    5278:	0ac12083          	lw	ra,172(sp)
    527c:	0a812403          	lw	s0,168(sp)
    5280:	0a412483          	lw	s1,164(sp)
    5284:	0a012903          	lw	s2,160(sp)
    5288:	09c12983          	lw	s3,156(sp)
    528c:	09812a03          	lw	s4,152(sp)
    5290:	09412a83          	lw	s5,148(sp)
    5294:	09012b03          	lw	s6,144(sp)
    5298:	08c12b83          	lw	s7,140(sp)
    529c:	08812c03          	lw	s8,136(sp)
    52a0:	08412c83          	lw	s9,132(sp)
    52a4:	08012d03          	lw	s10,128(sp)
    52a8:	07c12d83          	lw	s11,124(sp)
    52ac:	0b010113          	addi	sp,sp,176
    52b0:	00008067          	ret
    52b4:	00098513          	mv	a0,s3
    52b8:	e3dfe0ef          	jal	ra,40f4 <eisnan.part.0>
    52bc:	f60500e3          	beqz	a0,521c <ediv+0x70>
    52c0:	01498713          	addi	a4,s3,20
    52c4:	0009d783          	lhu	a5,0(s3)
    52c8:	00298993          	addi	s3,s3,2
    52cc:	00240413          	addi	s0,s0,2
    52d0:	fef41f23          	sh	a5,-2(s0)
    52d4:	fee998e3          	bne	s3,a4,52c4 <ediv+0x118>
    52d8:	fa1ff06f          	j	5278 <ediv+0xcc>
    52dc:	08fa8c63          	beq	s5,a5,5374 <ediv+0x1c8>
    52e0:	00090513          	mv	a0,s2
    52e4:	01c10593          	addi	a1,sp,28
    52e8:	ebdfe0ef          	jal	ra,41a4 <emovi>
    52ec:	03810593          	addi	a1,sp,56
    52f0:	00098513          	mv	a0,s3
    52f4:	eb1fe0ef          	jal	ra,41a4 <emovi>
    52f8:	03a15b83          	lhu	s7,58(sp)
    52fc:	01e15903          	lhu	s2,30(sp)
    5300:	0c0b9863          	bnez	s7,53d0 <ediv+0x224>
    5304:	03c10793          	addi	a5,sp,60
    5308:	05010d93          	addi	s11,sp,80
    530c:	36fd8863          	beq	s11,a5,567c <ediv+0x4d0>
    5310:	0007d703          	lhu	a4,0(a5)
    5314:	00278793          	addi	a5,a5,2
    5318:	fe070ae3          	beqz	a4,530c <ediv+0x160>
    531c:	03810513          	addi	a0,sp,56
    5320:	accff0ef          	jal	ra,45ec <enormlz>
    5324:	40a007b3          	neg	a5,a0
    5328:	01e15603          	lhu	a2,30(sp)
    532c:	00f12623          	sw	a5,12(sp)
    5330:	0a80006f          	j	53d8 <ediv+0x22c>
    5334:	4f8a0593          	addi	a1,s4,1272
    5338:	00098513          	mv	a0,s3
    533c:	f61fe0ef          	jal	ra,429c <ecmp>
    5340:	ee0518e3          	bnez	a0,5230 <ediv+0x84>
    5344:	01040713          	addi	a4,s0,16
    5348:	00040793          	mv	a5,s0
    534c:	00278793          	addi	a5,a5,2
    5350:	fe079f23          	sh	zero,-2(a5)
    5354:	fee79ce3          	bne	a5,a4,534c <ediv+0x1a0>
    5358:	ffffc7b7          	lui	a5,0xffffc
    535c:	00f41823          	sh	a5,16(s0)
    5360:	ffff87b7          	lui	a5,0xffff8
    5364:	fff7c793          	not	a5,a5
    5368:	00f41923          	sh	a5,18(s0)
    536c:	f0dff06f          	j	5278 <ediv+0xcc>
    5370:	f74a98e3          	bne	s5,s4,52e0 <ediv+0x134>
    5374:	00098513          	mv	a0,s3
    5378:	83cff0ef          	jal	ra,43b4 <eisinf.part.0>
    537c:	f60502e3          	beqz	a0,52e0 <ediv+0x134>
    5380:	00090513          	mv	a0,s2
    5384:	de1fe0ef          	jal	ra,4164 <eisneg>
    5388:	00050493          	mv	s1,a0
    538c:	00098513          	mv	a0,s3
    5390:	dd5fe0ef          	jal	ra,4164 <eisneg>
    5394:	40a487b3          	sub	a5,s1,a0
    5398:	00f037b3          	snez	a5,a5
    539c:	00f79793          	slli	a5,a5,0xf
    53a0:	00f41923          	sh	a5,18(s0)
    53a4:	01240713          	addi	a4,s0,18
    53a8:	00040793          	mv	a5,s0
    53ac:	00278793          	addi	a5,a5,2 # ffff8002 <//.+0xfffe208a>
    53b0:	fe079f23          	sh	zero,-2(a5)
    53b4:	fee79ce3          	bne	a5,a4,53ac <ediv+0x200>
    53b8:	01245783          	lhu	a5,18(s0)
    53bc:	00008737          	lui	a4,0x8
    53c0:	fff70713          	addi	a4,a4,-1 # 7fff <__mcmp+0xb>
    53c4:	00e7e7b3          	or	a5,a5,a4
    53c8:	00f41923          	sh	a5,18(s0)
    53cc:	eadff06f          	j	5278 <ediv+0xcc>
    53d0:	01712623          	sw	s7,12(sp)
    53d4:	00090613          	mv	a2,s2
    53d8:	01212423          	sw	s2,8(sp)
    53dc:	02010793          	addi	a5,sp,32
    53e0:	03410693          	addi	a3,sp,52
    53e4:	02061263          	bnez	a2,5408 <ediv+0x25c>
    53e8:	2af68463          	beq	a3,a5,5690 <ediv+0x4e4>
    53ec:	0007d703          	lhu	a4,0(a5)
    53f0:	00278793          	addi	a5,a5,2
    53f4:	fe070ae3          	beqz	a4,53e8 <ediv+0x23c>
    53f8:	01c10513          	addi	a0,sp,28
    53fc:	9f0ff0ef          	jal	ra,45ec <enormlz>
    5400:	40a907b3          	sub	a5,s2,a0
    5404:	00f12423          	sw	a5,8(sp)
    5408:	03815783          	lhu	a5,56(sp)
    540c:	03a15703          	lhu	a4,58(sp)
    5410:	03848d13          	addi	s10,s1,56
    5414:	02f49a23          	sh	a5,52(s1)
    5418:	02e49b23          	sh	a4,54(s1)
    541c:	000d0793          	mv	a5,s10
    5420:	04e48913          	addi	s2,s1,78
    5424:	00278793          	addi	a5,a5,2
    5428:	fe079f23          	sh	zero,-2(a5)
    542c:	fef91ce3          	bne	s2,a5,5424 <ediv+0x278>
    5430:	03810513          	addi	a0,sp,56
    5434:	b51fe0ef          	jal	ra,3f84 <eshdn1>
    5438:	02215c03          	lhu	s8,34(sp)
    543c:	00010a37          	lui	s4,0x10
    5440:	05010d93          	addi	s11,sp,80
    5444:	010c1a93          	slli	s5,s8,0x10
    5448:	418a8ab3          	sub	s5,s5,s8
    544c:	03a10b13          	addi	s6,sp,58
    5450:	fffa0a13          	addi	s4,s4,-1 # ffff <__udivdi3+0x2c7>
    5454:	06e10c93          	addi	s9,sp,110
    5458:	05610993          	addi	s3,sp,86
    545c:	03c15783          	lhu	a5,60(sp)
    5460:	03e15703          	lhu	a4,62(sp)
    5464:	000a0b93          	mv	s7,s4
    5468:	01079793          	slli	a5,a5,0x10
    546c:	00e787b3          	add	a5,a5,a4
    5470:	00fae863          	bltu	s5,a5,5480 <ediv+0x2d4>
    5474:	0387d7b3          	divu	a5,a5,s8
    5478:	01079b93          	slli	s7,a5,0x10
    547c:	010bdb93          	srli	s7,s7,0x10
    5480:	05410613          	addi	a2,sp,84
    5484:	01c10593          	addi	a1,sp,28
    5488:	000b8513          	mv	a0,s7
    548c:	bd1fe0ef          	jal	ra,405c <m16m>
    5490:	03c10713          	addi	a4,sp,60
    5494:	05810793          	addi	a5,sp,88
    5498:	0007d583          	lhu	a1,0(a5)
    549c:	00075603          	lhu	a2,0(a4)
    54a0:	00278793          	addi	a5,a5,2
    54a4:	00270713          	addi	a4,a4,2
    54a8:	12c59063          	bne	a1,a2,55c8 <ediv+0x41c>
    54ac:	ff9796e3          	bne	a5,s9,5498 <ediv+0x2ec>
    54b0:	00000793          	li	a5,0
    54b4:	06c10593          	addi	a1,sp,108
    54b8:	000d8613          	mv	a2,s11
    54bc:	00065703          	lhu	a4,0(a2)
    54c0:	0005d803          	lhu	a6,0(a1)
    54c4:	ffe60613          	addi	a2,a2,-2
    54c8:	40f70733          	sub	a4,a4,a5
    54cc:	41070733          	sub	a4,a4,a6
    54d0:	01075793          	srli	a5,a4,0x10
    54d4:	00e61123          	sh	a4,2(a2)
    54d8:	0017f793          	andi	a5,a5,1
    54dc:	ffe58593          	addi	a1,a1,-2
    54e0:	fd661ee3          	bne	a2,s6,54bc <ediv+0x310>
    54e4:	017d1023          	sh	s7,0(s10)
    54e8:	03c10793          	addi	a5,sp,60
    54ec:	0027d703          	lhu	a4,2(a5)
    54f0:	00278793          	addi	a5,a5,2
    54f4:	fee79f23          	sh	a4,-2(a5)
    54f8:	ffb79ae3          	bne	a5,s11,54ec <ediv+0x340>
    54fc:	04011823          	sh	zero,80(sp)
    5500:	002d0d13          	addi	s10,s10,2
    5504:	f5a91ce3          	bne	s2,s10,545c <ediv+0x2b0>
    5508:	00000593          	li	a1,0
    550c:	03c10793          	addi	a5,sp,60
    5510:	05210693          	addi	a3,sp,82
    5514:	0007d703          	lhu	a4,0(a5)
    5518:	00278793          	addi	a5,a5,2
    551c:	00e5e5b3          	or	a1,a1,a4
    5520:	fed79ae3          	bne	a5,a3,5514 <ediv+0x368>
    5524:	01059793          	slli	a5,a1,0x10
    5528:	4107d793          	srai	a5,a5,0x10
    552c:	00078463          	beqz	a5,5534 <ediv+0x388>
    5530:	00100593          	li	a1,1
    5534:	01059593          	slli	a1,a1,0x10
    5538:	0105d593          	srli	a1,a1,0x10
    553c:	03448713          	addi	a4,s1,52
    5540:	03810793          	addi	a5,sp,56
    5544:	00075603          	lhu	a2,0(a4)
    5548:	00278793          	addi	a5,a5,2
    554c:	00270713          	addi	a4,a4,2
    5550:	fec79f23          	sh	a2,-2(a5)
    5554:	fef698e3          	bne	a3,a5,5544 <ediv+0x398>
    5558:	00c12783          	lw	a5,12(sp)
    555c:	00812703          	lw	a4,8(sp)
    5560:	000046b7          	lui	a3,0x4
    5564:	fff68693          	addi	a3,a3,-1 # 3fff <eshup1+0x13>
    5568:	40e78bb3          	sub	s7,a5,a4
    556c:	03810513          	addi	a0,sp,56
    5570:	00048793          	mv	a5,s1
    5574:	04000713          	li	a4,64
    5578:	00db86b3          	add	a3,s7,a3
    557c:	00000613          	li	a2,0
    5580:	9e8ff0ef          	jal	ra,4768 <emdnorm>
    5584:	03815703          	lhu	a4,56(sp)
    5588:	01c15783          	lhu	a5,28(sp)
    558c:	00040593          	mv	a1,s0
    5590:	03810513          	addi	a0,sp,56
    5594:	40e787b3          	sub	a5,a5,a4
    5598:	00f037b3          	snez	a5,a5
    559c:	40f007b3          	neg	a5,a5
    55a0:	02f11c23          	sh	a5,56(sp)
    55a4:	f38ff0ef          	jal	ra,4cdc <emovo.isra.0>
    55a8:	cd1ff06f          	j	5278 <ediv+0xcc>
    55ac:	01490713          	addi	a4,s2,20
    55b0:	00095783          	lhu	a5,0(s2)
    55b4:	00290913          	addi	s2,s2,2
    55b8:	00240413          	addi	s0,s0,2
    55bc:	fef41f23          	sh	a5,-2(s0)
    55c0:	fee918e3          	bne	s2,a4,55b0 <ediv+0x404>
    55c4:	cb5ff06f          	j	5278 <ediv+0xcc>
    55c8:	eeb674e3          	bgeu	a2,a1,54b0 <ediv+0x304>
    55cc:	fffb8793          	addi	a5,s7,-1
    55d0:	01079893          	slli	a7,a5,0x10
    55d4:	0108d893          	srli	a7,a7,0x10
    55d8:	00000793          	li	a5,0
    55dc:	03410593          	addi	a1,sp,52
    55e0:	06c10613          	addi	a2,sp,108
    55e4:	00065703          	lhu	a4,0(a2)
    55e8:	0005d803          	lhu	a6,0(a1)
    55ec:	ffe60613          	addi	a2,a2,-2
    55f0:	40f70733          	sub	a4,a4,a5
    55f4:	41070733          	sub	a4,a4,a6
    55f8:	01075793          	srli	a5,a4,0x10
    55fc:	00e61123          	sh	a4,2(a2)
    5600:	0017f793          	andi	a5,a5,1
    5604:	ffe58593          	addi	a1,a1,-2
    5608:	fd361ee3          	bne	a2,s3,55e4 <ediv+0x438>
    560c:	03c10713          	addi	a4,sp,60
    5610:	05810793          	addi	a5,sp,88
    5614:	0007d583          	lhu	a1,0(a5)
    5618:	00075603          	lhu	a2,0(a4)
    561c:	00278793          	addi	a5,a5,2
    5620:	00270713          	addi	a4,a4,2
    5624:	00c59863          	bne	a1,a2,5634 <ediv+0x488>
    5628:	ff9796e3          	bne	a5,s9,5614 <ediv+0x468>
    562c:	00088b93          	mv	s7,a7
    5630:	e81ff06f          	j	54b0 <ediv+0x304>
    5634:	feb67ce3          	bgeu	a2,a1,562c <ediv+0x480>
    5638:	ffeb8793          	addi	a5,s7,-2
    563c:	01079b93          	slli	s7,a5,0x10
    5640:	010bdb93          	srli	s7,s7,0x10
    5644:	00000613          	li	a2,0
    5648:	03410593          	addi	a1,sp,52
    564c:	06c10713          	addi	a4,sp,108
    5650:	00075783          	lhu	a5,0(a4)
    5654:	0005d803          	lhu	a6,0(a1)
    5658:	ffe70713          	addi	a4,a4,-2
    565c:	40c787b3          	sub	a5,a5,a2
    5660:	410787b3          	sub	a5,a5,a6
    5664:	0107d613          	srli	a2,a5,0x10
    5668:	00f71123          	sh	a5,2(a4)
    566c:	00167613          	andi	a2,a2,1
    5670:	ffe58593          	addi	a1,a1,-2
    5674:	fd371ee3          	bne	a4,s3,5650 <ediv+0x4a4>
    5678:	e39ff06f          	j	54b0 <ediv+0x304>
    567c:	01440793          	addi	a5,s0,20
    5680:	00240413          	addi	s0,s0,2
    5684:	fe041f23          	sh	zero,-2(s0)
    5688:	fe879ce3          	bne	a5,s0,5680 <ediv+0x4d4>
    568c:	bedff06f          	j	5278 <ediv+0xcc>
    5690:	01c15703          	lhu	a4,28(sp)
    5694:	03815783          	lhu	a5,56(sp)
    5698:	00f70463          	beq	a4,a5,56a0 <ediv+0x4f4>
    569c:	00008637          	lui	a2,0x8
    56a0:	00c41923          	sh	a2,18(s0)
    56a4:	01240713          	addi	a4,s0,18
    56a8:	00040793          	mv	a5,s0
    56ac:	00278793          	addi	a5,a5,2
    56b0:	fe079f23          	sh	zero,-2(a5)
    56b4:	fef71ce3          	bne	a4,a5,56ac <ediv+0x500>
    56b8:	01245783          	lhu	a5,18(s0)
    56bc:	00008737          	lui	a4,0x8
    56c0:	fff70713          	addi	a4,a4,-1 # 7fff <__mcmp+0xb>
    56c4:	00e7e7b3          	or	a5,a5,a4
    56c8:	00f41923          	sh	a5,18(s0)
    56cc:	badff06f          	j	5278 <ediv+0xcc>

000056d0 <e113toe.isra.0>:
    56d0:	fd010113          	addi	sp,sp,-48
    56d4:	02812423          	sw	s0,40(sp)
    56d8:	02112623          	sw	ra,44(sp)
    56dc:	00058413          	mv	s0,a1
    56e0:	00410793          	addi	a5,sp,4
    56e4:	01e10713          	addi	a4,sp,30
    56e8:	00278793          	addi	a5,a5,2
    56ec:	fe079f23          	sh	zero,-2(a5)
    56f0:	fee79ce3          	bne	a5,a4,56e8 <e113toe.isra.0+0x18>
    56f4:	00e55603          	lhu	a2,14(a0)
    56f8:	01061793          	slli	a5,a2,0x10
    56fc:	4107d793          	srai	a5,a5,0x10
    5700:	0607ca63          	bltz	a5,5774 <e113toe.isra.0+0xa4>
    5704:	000087b7          	lui	a5,0x8
    5708:	fff78793          	addi	a5,a5,-1 # 7fff <__mcmp+0xb>
    570c:	00011223          	sh	zero,4(sp)
    5710:	00f67633          	and	a2,a2,a5
    5714:	06f60c63          	beq	a2,a5,578c <e113toe.isra.0+0xbc>
    5718:	00e50793          	addi	a5,a0,14
    571c:	00c11323          	sh	a2,6(sp)
    5720:	00a10713          	addi	a4,sp,10
    5724:	ffe7d683          	lhu	a3,-2(a5)
    5728:	ffe78793          	addi	a5,a5,-2
    572c:	00270713          	addi	a4,a4,2
    5730:	fed71f23          	sh	a3,-2(a4)
    5734:	fef518e3          	bne	a0,a5,5724 <e113toe.isra.0+0x54>
    5738:	02061263          	bnez	a2,575c <e113toe.isra.0+0x8c>
    573c:	00011423          	sh	zero,8(sp)
    5740:	00040593          	mv	a1,s0
    5744:	00410513          	addi	a0,sp,4
    5748:	d94ff0ef          	jal	ra,4cdc <emovo.isra.0>
    574c:	02c12083          	lw	ra,44(sp)
    5750:	02812403          	lw	s0,40(sp)
    5754:	03010113          	addi	sp,sp,48
    5758:	00008067          	ret
    575c:	00100793          	li	a5,1
    5760:	fff00593          	li	a1,-1
    5764:	00410513          	addi	a0,sp,4
    5768:	00f11423          	sh	a5,8(sp)
    576c:	c65fe0ef          	jal	ra,43d0 <eshift.part.0>
    5770:	fd1ff06f          	j	5740 <e113toe.isra.0+0x70>
    5774:	fff00793          	li	a5,-1
    5778:	00f11223          	sh	a5,4(sp)
    577c:	000087b7          	lui	a5,0x8
    5780:	fff78793          	addi	a5,a5,-1 # 7fff <__mcmp+0xb>
    5784:	00f67633          	and	a2,a2,a5
    5788:	f8f618e3          	bne	a2,a5,5718 <e113toe.isra.0+0x48>
    578c:	00050793          	mv	a5,a0
    5790:	00e50693          	addi	a3,a0,14
    5794:	0007d703          	lhu	a4,0(a5)
    5798:	00278793          	addi	a5,a5,2
    579c:	04071c63          	bnez	a4,57f4 <e113toe.isra.0+0x124>
    57a0:	fed79ae3          	bne	a5,a3,5794 <e113toe.isra.0+0xc4>
    57a4:	01440713          	addi	a4,s0,20
    57a8:	00040793          	mv	a5,s0
    57ac:	00278793          	addi	a5,a5,2
    57b0:	fe079f23          	sh	zero,-2(a5)
    57b4:	fef71ce3          	bne	a4,a5,57ac <e113toe.isra.0+0xdc>
    57b8:	01240713          	addi	a4,s0,18
    57bc:	00040793          	mv	a5,s0
    57c0:	00278793          	addi	a5,a5,2
    57c4:	fe079f23          	sh	zero,-2(a5)
    57c8:	fef71ce3          	bne	a4,a5,57c0 <e113toe.isra.0+0xf0>
    57cc:	01245783          	lhu	a5,18(s0)
    57d0:	00008737          	lui	a4,0x8
    57d4:	fff70713          	addi	a4,a4,-1 # 7fff <__mcmp+0xb>
    57d8:	00e7e7b3          	or	a5,a5,a4
    57dc:	00f41923          	sh	a5,18(s0)
    57e0:	00e51783          	lh	a5,14(a0)
    57e4:	f607d4e3          	bgez	a5,574c <e113toe.isra.0+0x7c>
    57e8:	00040513          	mv	a0,s0
    57ec:	92dfe0ef          	jal	ra,4118 <eneg>
    57f0:	f5dff06f          	j	574c <e113toe.isra.0+0x7c>
    57f4:	01040713          	addi	a4,s0,16
    57f8:	00040793          	mv	a5,s0
    57fc:	00278793          	addi	a5,a5,2
    5800:	fe079f23          	sh	zero,-2(a5)
    5804:	fef71ce3          	bne	a4,a5,57fc <e113toe.isra.0+0x12c>
    5808:	ffffc7b7          	lui	a5,0xffffc
    580c:	00f41823          	sh	a5,16(s0)
    5810:	ffff87b7          	lui	a5,0xffff8
    5814:	fff7c793          	not	a5,a5
    5818:	00f41923          	sh	a5,18(s0)
    581c:	f31ff06f          	j	574c <e113toe.isra.0+0x7c>

00005820 <_ldtoa_r>:
    5820:	00c5a883          	lw	a7,12(a1)
    5824:	e1010113          	addi	sp,sp,-496
    5828:	0005ae83          	lw	t4,0(a1)
    582c:	0045ae03          	lw	t3,4(a1)
    5830:	0085a303          	lw	t1,8(a1)
    5834:	03112e23          	sw	a7,60(sp)
    5838:	04052583          	lw	a1,64(a0)
    583c:	fff00893          	li	a7,-1
    5840:	17112023          	sw	a7,352(sp)
    5844:	09000893          	li	a7,144
    5848:	1e812423          	sw	s0,488(sp)
    584c:	1d412c23          	sw	s4,472(sp)
    5850:	1e112623          	sw	ra,492(sp)
    5854:	1e912223          	sw	s1,484(sp)
    5858:	1f212023          	sw	s2,480(sp)
    585c:	1d312e23          	sw	s3,476(sp)
    5860:	1d512a23          	sw	s5,468(sp)
    5864:	1d612823          	sw	s6,464(sp)
    5868:	1d712623          	sw	s7,460(sp)
    586c:	1d812423          	sw	s8,456(sp)
    5870:	1d912223          	sw	s9,452(sp)
    5874:	1da12023          	sw	s10,448(sp)
    5878:	1bb12e23          	sw	s11,444(sp)
    587c:	03d12823          	sw	t4,48(sp)
    5880:	03c12a23          	sw	t3,52(sp)
    5884:	02612c23          	sw	t1,56(sp)
    5888:	17112223          	sw	a7,356(sp)
    588c:	00c12023          	sw	a2,0(sp)
    5890:	00d12423          	sw	a3,8(sp)
    5894:	00e12623          	sw	a4,12(sp)
    5898:	01012c23          	sw	a6,24(sp)
    589c:	00050a13          	mv	s4,a0
    58a0:	00078413          	mv	s0,a5
    58a4:	02058063          	beqz	a1,58c4 <_ldtoa_r+0xa4>
    58a8:	04452703          	lw	a4,68(a0)
    58ac:	00100793          	li	a5,1
    58b0:	00e797b3          	sll	a5,a5,a4
    58b4:	00e5a223          	sw	a4,4(a1)
    58b8:	00f5a423          	sw	a5,8(a1)
    58bc:	5f5010ef          	jal	ra,76b0 <_Bfree>
    58c0:	040a2023          	sw	zero,64(s4)
    58c4:	06010993          	addi	s3,sp,96
    58c8:	00098593          	mv	a1,s3
    58cc:	03010513          	addi	a0,sp,48
    58d0:	e01ff0ef          	jal	ra,56d0 <e113toe.isra.0>
    58d4:	00098513          	mv	a0,s3
    58d8:	88dfe0ef          	jal	ra,4164 <eisneg>
    58dc:	00012703          	lw	a4,0(sp)
    58e0:	00a03533          	snez	a0,a0
    58e4:	00a42023          	sw	a0,0(s0)
    58e8:	00300793          	li	a5,3
    58ec:	08f706e3          	beq	a4,a5,6178 <_ldtoa_r+0x958>
    58f0:	01400793          	li	a5,20
    58f4:	00f12223          	sw	a5,4(sp)
    58f8:	52071ae3          	bnez	a4,662c <_ldtoa_r+0xe0c>
    58fc:	07215783          	lhu	a5,114(sp)
    5900:	16412703          	lw	a4,356(sp)
    5904:	fff7c793          	not	a5,a5
    5908:	00e12a23          	sw	a4,20(sp)
    590c:	01179713          	slli	a4,a5,0x11
    5910:	00071863          	bnez	a4,5920 <_ldtoa_r+0x100>
    5914:	00098513          	mv	a0,s3
    5918:	fdcfe0ef          	jal	ra,40f4 <eisnan.part.0>
    591c:	340516e3          	bnez	a0,6468 <_ldtoa_r+0xc48>
    5920:	09000793          	li	a5,144
    5924:	16f12223          	sw	a5,356(sp)
    5928:	07c10713          	addi	a4,sp,124
    592c:	00098793          	mv	a5,s3
    5930:	07410613          	addi	a2,sp,116
    5934:	0007d683          	lhu	a3,0(a5) # ffff8000 <//.+0xfffe2088>
    5938:	00278793          	addi	a5,a5,2
    593c:	00270713          	addi	a4,a4,2
    5940:	fed71f23          	sh	a3,-2(a4)
    5944:	fec798e3          	bne	a5,a2,5934 <_ldtoa_r+0x114>
    5948:	08e15603          	lhu	a2,142(sp)
    594c:	00012823          	sw	zero,16(sp)
    5950:	01061793          	slli	a5,a2,0x10
    5954:	4107d793          	srai	a5,a5,0x10
    5958:	0007de63          	bgez	a5,5974 <_ldtoa_r+0x154>
    595c:	01161613          	slli	a2,a2,0x11
    5960:	000107b7          	lui	a5,0x10
    5964:	01165613          	srli	a2,a2,0x11
    5968:	fff78793          	addi	a5,a5,-1 # ffff <__udivdi3+0x2c7>
    596c:	08c11723          	sh	a2,142(sp)
    5970:	00f12823          	sw	a5,16(sp)
    5974:	00014b37          	lui	s6,0x14
    5978:	4f8b0d93          	addi	s11,s6,1272 # 144f8 <ezero>
    597c:	014d8c13          	addi	s8,s11,20
    5980:	00000693          	li	a3,0
    5984:	09810793          	addi	a5,sp,152
    5988:	000c0713          	mv	a4,s8
    598c:	0ac10d13          	addi	s10,sp,172
    5990:	0080006f          	j	5998 <_ldtoa_r+0x178>
    5994:	00075683          	lhu	a3,0(a4)
    5998:	00278793          	addi	a5,a5,2
    599c:	fed79f23          	sh	a3,-2(a5)
    59a0:	00270713          	addi	a4,a4,2
    59a4:	ffa798e3          	bne	a5,s10,5994 <_ldtoa_r+0x174>
    59a8:	14060463          	beqz	a2,5af0 <_ldtoa_r+0x2d0>
    59ac:	000087b7          	lui	a5,0x8
    59b0:	fff78793          	addi	a5,a5,-1 # 7fff <__mcmp+0xb>
    59b4:	4af608e3          	beq	a2,a5,6664 <_ldtoa_r+0xe44>
    59b8:	08c11783          	lh	a5,140(sp)
    59bc:	5007d0e3          	bgez	a5,66bc <_ldtoa_r+0xe9c>
    59c0:	07c10593          	addi	a1,sp,124
    59c4:	000c0513          	mv	a0,s8
    59c8:	8d5fe0ef          	jal	ra,429c <ecmp>
    59cc:	12050e63          	beqz	a0,5b08 <_ldtoa_r+0x2e8>
    59d0:	020540e3          	bltz	a0,61f0 <_ldtoa_r+0x9d0>
    59d4:	08e15783          	lhu	a5,142(sp)
    59d8:	580794e3          	bnez	a5,6760 <_ldtoa_r+0xf40>
    59dc:	08c11783          	lh	a5,140(sp)
    59e0:	00000493          	li	s1,0
    59e4:	16010913          	addi	s2,sp,352
    59e8:	0207c463          	bltz	a5,5a10 <_ldtoa_r+0x1f0>
    59ec:	118d8413          	addi	s0,s11,280
    59f0:	07c10613          	addi	a2,sp,124
    59f4:	00090693          	mv	a3,s2
    59f8:	00060593          	mv	a1,a2
    59fc:	00040513          	mv	a0,s0
    5a00:	b98ff0ef          	jal	ra,4d98 <emul>
    5a04:	08c11783          	lh	a5,140(sp)
    5a08:	fff48493          	addi	s1,s1,-1
    5a0c:	fe07d2e3          	bgez	a5,59f0 <_ldtoa_r+0x1d0>
    5a10:	0d010413          	addi	s0,sp,208
    5a14:	0e810b93          	addi	s7,sp,232
    5a18:	00040713          	mv	a4,s0
    5a1c:	07c10793          	addi	a5,sp,124
    5a20:	09010613          	addi	a2,sp,144
    5a24:	0007d683          	lhu	a3,0(a5)
    5a28:	00278793          	addi	a5,a5,2
    5a2c:	00270713          	addi	a4,a4,2
    5a30:	fed71f23          	sh	a3,-2(a4)
    5a34:	fec798e3          	bne	a5,a2,5a24 <_ldtoa_r+0x204>
    5a38:	00000693          	li	a3,0
    5a3c:	09810793          	addi	a5,sp,152
    5a40:	000c0713          	mv	a4,s8
    5a44:	0080006f          	j	5a4c <_ldtoa_r+0x22c>
    5a48:	00075683          	lhu	a3,0(a4)
    5a4c:	00278793          	addi	a5,a5,2
    5a50:	fed79f23          	sh	a3,-2(a5)
    5a54:	00270713          	addi	a4,a4,2
    5a58:	ffa798e3          	bne	a5,s10,5a48 <_ldtoa_r+0x228>
    5a5c:	028d8c93          	addi	s9,s11,40
    5a60:	12cd8d13          	addi	s10,s11,300
    5a64:	fffffab7          	lui	s5,0xfffff
    5a68:	118d8d93          	addi	s11,s11,280
    5a6c:	00c0006f          	j	5a78 <_ldtoa_r+0x258>
    5a70:	014d0d13          	addi	s10,s10,20
    5a74:	014c8c93          	addi	s9,s9,20
    5a78:	00040593          	mv	a1,s0
    5a7c:	000c0513          	mv	a0,s8
    5a80:	81dfe0ef          	jal	ra,429c <ecmp>
    5a84:	04a05863          	blez	a0,5ad4 <_ldtoa_r+0x2b4>
    5a88:	00040593          	mv	a1,s0
    5a8c:	000d0513          	mv	a0,s10
    5a90:	80dfe0ef          	jal	ra,429c <ecmp>
    5a94:	02054863          	bltz	a0,5ac4 <_ldtoa_r+0x2a4>
    5a98:	00090693          	mv	a3,s2
    5a9c:	00040613          	mv	a2,s0
    5aa0:	00040593          	mv	a1,s0
    5aa4:	000c8513          	mv	a0,s9
    5aa8:	af0ff0ef          	jal	ra,4d98 <emul>
    5aac:	09810613          	addi	a2,sp,152
    5ab0:	00090693          	mv	a3,s2
    5ab4:	00060593          	mv	a1,a2
    5ab8:	000c8513          	mv	a0,s9
    5abc:	adcff0ef          	jal	ra,4d98 <emul>
    5ac0:	015484b3          	add	s1,s1,s5
    5ac4:	01fad793          	srli	a5,s5,0x1f
    5ac8:	015787b3          	add	a5,a5,s5
    5acc:	4017da93          	srai	s5,a5,0x1
    5ad0:	fbbc90e3          	bne	s9,s11,5a70 <_ldtoa_r+0x250>
    5ad4:	09810613          	addi	a2,sp,152
    5ad8:	00090693          	mv	a3,s2
    5adc:	000c0593          	mv	a1,s8
    5ae0:	00060513          	mv	a0,a2
    5ae4:	ec8ff0ef          	jal	ra,51ac <ediv>
    5ae8:	12410a93          	addi	s5,sp,292
    5aec:	0300006f          	j	5b1c <_ldtoa_r+0x2fc>
    5af0:	07c10793          	addi	a5,sp,124
    5af4:	08e10693          	addi	a3,sp,142
    5af8:	0007d703          	lhu	a4,0(a5)
    5afc:	ec0712e3          	bnez	a4,59c0 <_ldtoa_r+0x1a0>
    5b00:	00278793          	addi	a5,a5,2
    5b04:	fef69ae3          	bne	a3,a5,5af8 <_ldtoa_r+0x2d8>
    5b08:	00000493          	li	s1,0
    5b0c:	12410a93          	addi	s5,sp,292
    5b10:	16010913          	addi	s2,sp,352
    5b14:	0d010413          	addi	s0,sp,208
    5b18:	0e810b93          	addi	s7,sp,232
    5b1c:	00040593          	mv	a1,s0
    5b20:	09810513          	addi	a0,sp,152
    5b24:	e80fe0ef          	jal	ra,41a4 <emovi>
    5b28:	09810713          	addi	a4,sp,152
    5b2c:	00040793          	mv	a5,s0
    5b30:	0007d683          	lhu	a3,0(a5)
    5b34:	00278793          	addi	a5,a5,2
    5b38:	00270713          	addi	a4,a4,2
    5b3c:	fed71f23          	sh	a3,-2(a4)
    5b40:	ff7798e3          	bne	a5,s7,5b30 <_ldtoa_r+0x310>
    5b44:	00040593          	mv	a1,s0
    5b48:	07c10513          	addi	a0,sp,124
    5b4c:	0a011823          	sh	zero,176(sp)
    5b50:	e54fe0ef          	jal	ra,41a4 <emovi>
    5b54:	07c10793          	addi	a5,sp,124
    5b58:	00045703          	lhu	a4,0(s0)
    5b5c:	00240413          	addi	s0,s0,2
    5b60:	00278793          	addi	a5,a5,2
    5b64:	fee79f23          	sh	a4,-2(a5)
    5b68:	ff7418e3          	bne	s0,s7,5b58 <_ldtoa_r+0x338>
    5b6c:	09810513          	addi	a0,sp,152
    5b70:	00090613          	mv	a2,s2
    5b74:	07c10593          	addi	a1,sp,124
    5b78:	08011a23          	sh	zero,148(sp)
    5b7c:	ff9fe0ef          	jal	ra,4b74 <eiremain>
    5b80:	1ac15503          	lhu	a0,428(sp)
    5b84:	16051a63          	bnez	a0,5cf8 <_ldtoa_r+0x4d8>
    5b88:	09410c93          	addi	s9,sp,148
    5b8c:	07e10413          	addi	s0,sp,126
    5b90:	0b610c13          	addi	s8,sp,182
    5b94:	4f8b0593          	addi	a1,s6,1272
    5b98:	07c10513          	addi	a0,sp,124
    5b9c:	f00fe0ef          	jal	ra,429c <ecmp>
    5ba0:	14050c63          	beqz	a0,5cf8 <_ldtoa_r+0x4d8>
    5ba4:	00000713          	li	a4,0
    5ba8:	000c8693          	mv	a3,s9
    5bac:	0006d783          	lhu	a5,0(a3)
    5bb0:	01079613          	slli	a2,a5,0x10
    5bb4:	41065613          	srai	a2,a2,0x10
    5bb8:	00065463          	bgez	a2,5bc0 <_ldtoa_r+0x3a0>
    5bbc:	00176713          	ori	a4,a4,1
    5bc0:	00179793          	slli	a5,a5,0x1
    5bc4:	01079793          	slli	a5,a5,0x10
    5bc8:	00277613          	andi	a2,a4,2
    5bcc:	0107d793          	srli	a5,a5,0x10
    5bd0:	00060463          	beqz	a2,5bd8 <_ldtoa_r+0x3b8>
    5bd4:	0017e793          	ori	a5,a5,1
    5bd8:	00171713          	slli	a4,a4,0x1
    5bdc:	00f69023          	sh	a5,0(a3)
    5be0:	01071713          	slli	a4,a4,0x10
    5be4:	ffe68693          	addi	a3,a3,-2
    5be8:	01075713          	srli	a4,a4,0x10
    5bec:	fc8690e3          	bne	a3,s0,5bac <_ldtoa_r+0x38c>
    5bf0:	0b410713          	addi	a4,sp,180
    5bf4:	07c10793          	addi	a5,sp,124
    5bf8:	0007d683          	lhu	a3,0(a5)
    5bfc:	00278793          	addi	a5,a5,2
    5c00:	00270713          	addi	a4,a4,2
    5c04:	fed71f23          	sh	a3,-2(a4)
    5c08:	ff9798e3          	bne	a5,s9,5bf8 <_ldtoa_r+0x3d8>
    5c0c:	0c011623          	sh	zero,204(sp)
    5c10:	00000713          	li	a4,0
    5c14:	0cc10693          	addi	a3,sp,204
    5c18:	0006d783          	lhu	a5,0(a3)
    5c1c:	01079613          	slli	a2,a5,0x10
    5c20:	41065613          	srai	a2,a2,0x10
    5c24:	00065463          	bgez	a2,5c2c <_ldtoa_r+0x40c>
    5c28:	00176713          	ori	a4,a4,1
    5c2c:	00179793          	slli	a5,a5,0x1
    5c30:	01079793          	slli	a5,a5,0x10
    5c34:	00277613          	andi	a2,a4,2
    5c38:	0107d793          	srli	a5,a5,0x10
    5c3c:	00060463          	beqz	a2,5c44 <_ldtoa_r+0x424>
    5c40:	0017e793          	ori	a5,a5,1
    5c44:	00171713          	slli	a4,a4,0x1
    5c48:	00f69023          	sh	a5,0(a3)
    5c4c:	01071713          	slli	a4,a4,0x10
    5c50:	ffe68693          	addi	a3,a3,-2
    5c54:	01075713          	srli	a4,a4,0x10
    5c58:	fd8690e3          	bne	a3,s8,5c18 <_ldtoa_r+0x3f8>
    5c5c:	00000713          	li	a4,0
    5c60:	0cc10693          	addi	a3,sp,204
    5c64:	0006d783          	lhu	a5,0(a3)
    5c68:	01079613          	slli	a2,a5,0x10
    5c6c:	41065613          	srai	a2,a2,0x10
    5c70:	00065463          	bgez	a2,5c78 <_ldtoa_r+0x458>
    5c74:	00176713          	ori	a4,a4,1
    5c78:	00179793          	slli	a5,a5,0x1
    5c7c:	01079793          	slli	a5,a5,0x10
    5c80:	00277613          	andi	a2,a4,2
    5c84:	0107d793          	srli	a5,a5,0x10
    5c88:	00060463          	beqz	a2,5c90 <_ldtoa_r+0x470>
    5c8c:	0017e793          	ori	a5,a5,1
    5c90:	00171713          	slli	a4,a4,0x1
    5c94:	00f69023          	sh	a5,0(a3)
    5c98:	01071713          	slli	a4,a4,0x10
    5c9c:	ffe68693          	addi	a3,a3,-2
    5ca0:	01075713          	srli	a4,a4,0x10
    5ca4:	fd8690e3          	bne	a3,s8,5c64 <_ldtoa_r+0x444>
    5ca8:	00000613          	li	a2,0
    5cac:	000c8693          	mv	a3,s9
    5cb0:	0cc10713          	addi	a4,sp,204
    5cb4:	0006d583          	lhu	a1,0(a3)
    5cb8:	00075783          	lhu	a5,0(a4)
    5cbc:	ffe68693          	addi	a3,a3,-2
    5cc0:	ffe70713          	addi	a4,a4,-2
    5cc4:	00b787b3          	add	a5,a5,a1
    5cc8:	00c787b3          	add	a5,a5,a2
    5ccc:	0107d613          	srli	a2,a5,0x10
    5cd0:	00f69123          	sh	a5,2(a3)
    5cd4:	00167613          	andi	a2,a2,1
    5cd8:	fd871ee3          	bne	a4,s8,5cb4 <_ldtoa_r+0x494>
    5cdc:	09810513          	addi	a0,sp,152
    5ce0:	00090613          	mv	a2,s2
    5ce4:	07c10593          	addi	a1,sp,124
    5ce8:	e8dfe0ef          	jal	ra,4b74 <eiremain>
    5cec:	1ac15503          	lhu	a0,428(sp)
    5cf0:	fff48493          	addi	s1,s1,-1
    5cf4:	ea0500e3          	beqz	a0,5b94 <_ldtoa_r+0x374>
    5cf8:	01012783          	lw	a5,16(sp)
    5cfc:	00012683          	lw	a3,0(sp)
    5d00:	00300713          	li	a4,3
    5d04:	00f037b3          	snez	a5,a5
    5d08:	40f007b3          	neg	a5,a5
    5d0c:	00d7f793          	andi	a5,a5,13
    5d10:	02078793          	addi	a5,a5,32
    5d14:	12f10223          	sb	a5,292(sp)
    5d18:	00412783          	lw	a5,4(sp)
    5d1c:	00e69463          	bne	a3,a4,5d24 <_ldtoa_r+0x504>
    5d20:	009787b3          	add	a5,a5,s1
    5d24:	02a00713          	li	a4,42
    5d28:	00078413          	mv	s0,a5
    5d2c:	00f75463          	bge	a4,a5,5d34 <_ldtoa_r+0x514>
    5d30:	02a00413          	li	s0,42
    5d34:	00a00713          	li	a4,10
    5d38:	48e50463          	beq	a0,a4,61c0 <_ldtoa_r+0x9a0>
    5d3c:	03050513          	addi	a0,a0,48
    5d40:	02e00713          	li	a4,46
    5d44:	12a102a3          	sb	a0,293(sp)
    5d48:	12e10323          	sb	a4,294(sp)
    5d4c:	1807c8e3          	bltz	a5,66dc <_ldtoa_r+0xebc>
    5d50:	12710793          	addi	a5,sp,295
    5d54:	00f12823          	sw	a5,16(sp)
    5d58:	00000c13          	li	s8,0
    5d5c:	00912e23          	sw	s1,28(sp)
    5d60:	000c0493          	mv	s1,s8
    5d64:	00090c13          	mv	s8,s2
    5d68:	01012903          	lw	s2,16(sp)
    5d6c:	0b410c93          	addi	s9,sp,180
    5d70:	09410d93          	addi	s11,sp,148
    5d74:	07e10b93          	addi	s7,sp,126
    5d78:	0b610d13          	addi	s10,sp,182
    5d7c:	00000693          	li	a3,0
    5d80:	000d8613          	mv	a2,s11
    5d84:	00065783          	lhu	a5,0(a2) # 8000 <__mcmp+0xc>
    5d88:	01079593          	slli	a1,a5,0x10
    5d8c:	4105d593          	srai	a1,a1,0x10
    5d90:	0005d463          	bgez	a1,5d98 <_ldtoa_r+0x578>
    5d94:	0016e693          	ori	a3,a3,1
    5d98:	00179793          	slli	a5,a5,0x1
    5d9c:	01079793          	slli	a5,a5,0x10
    5da0:	0026f593          	andi	a1,a3,2
    5da4:	0107d793          	srli	a5,a5,0x10
    5da8:	00058463          	beqz	a1,5db0 <_ldtoa_r+0x590>
    5dac:	0017e793          	ori	a5,a5,1
    5db0:	00169693          	slli	a3,a3,0x1
    5db4:	00f61023          	sh	a5,0(a2)
    5db8:	01069693          	slli	a3,a3,0x10
    5dbc:	ffe60613          	addi	a2,a2,-2
    5dc0:	0106d693          	srli	a3,a3,0x10
    5dc4:	fd7610e3          	bne	a2,s7,5d84 <_ldtoa_r+0x564>
    5dc8:	000c8693          	mv	a3,s9
    5dcc:	07c10793          	addi	a5,sp,124
    5dd0:	0007d603          	lhu	a2,0(a5)
    5dd4:	00278793          	addi	a5,a5,2
    5dd8:	00268693          	addi	a3,a3,2
    5ddc:	fec69f23          	sh	a2,-2(a3)
    5de0:	ffb798e3          	bne	a5,s11,5dd0 <_ldtoa_r+0x5b0>
    5de4:	0c011623          	sh	zero,204(sp)
    5de8:	00000693          	li	a3,0
    5dec:	0cc10613          	addi	a2,sp,204
    5df0:	00065783          	lhu	a5,0(a2)
    5df4:	01079593          	slli	a1,a5,0x10
    5df8:	4105d593          	srai	a1,a1,0x10
    5dfc:	0005d463          	bgez	a1,5e04 <_ldtoa_r+0x5e4>
    5e00:	0016e693          	ori	a3,a3,1
    5e04:	00179793          	slli	a5,a5,0x1
    5e08:	01079793          	slli	a5,a5,0x10
    5e0c:	0026f593          	andi	a1,a3,2
    5e10:	0107d793          	srli	a5,a5,0x10
    5e14:	00058463          	beqz	a1,5e1c <_ldtoa_r+0x5fc>
    5e18:	0017e793          	ori	a5,a5,1
    5e1c:	00169693          	slli	a3,a3,0x1
    5e20:	00f61023          	sh	a5,0(a2)
    5e24:	01069693          	slli	a3,a3,0x10
    5e28:	ffe60613          	addi	a2,a2,-2
    5e2c:	0106d693          	srli	a3,a3,0x10
    5e30:	fda610e3          	bne	a2,s10,5df0 <_ldtoa_r+0x5d0>
    5e34:	00000693          	li	a3,0
    5e38:	0cc10613          	addi	a2,sp,204
    5e3c:	00065783          	lhu	a5,0(a2)
    5e40:	01079593          	slli	a1,a5,0x10
    5e44:	4105d593          	srai	a1,a1,0x10
    5e48:	0005d463          	bgez	a1,5e50 <_ldtoa_r+0x630>
    5e4c:	0016e693          	ori	a3,a3,1
    5e50:	00179793          	slli	a5,a5,0x1
    5e54:	01079793          	slli	a5,a5,0x10
    5e58:	0026f593          	andi	a1,a3,2
    5e5c:	0107d793          	srli	a5,a5,0x10
    5e60:	00058463          	beqz	a1,5e68 <_ldtoa_r+0x648>
    5e64:	0017e793          	ori	a5,a5,1
    5e68:	00169693          	slli	a3,a3,0x1
    5e6c:	00f61023          	sh	a5,0(a2)
    5e70:	01069693          	slli	a3,a3,0x10
    5e74:	ffe60613          	addi	a2,a2,-2
    5e78:	0106d693          	srli	a3,a3,0x10
    5e7c:	fda610e3          	bne	a2,s10,5e3c <_ldtoa_r+0x61c>
    5e80:	00000593          	li	a1,0
    5e84:	000d8613          	mv	a2,s11
    5e88:	0cc10693          	addi	a3,sp,204
    5e8c:	00065503          	lhu	a0,0(a2)
    5e90:	0006d783          	lhu	a5,0(a3)
    5e94:	ffe60613          	addi	a2,a2,-2
    5e98:	ffe68693          	addi	a3,a3,-2
    5e9c:	00a787b3          	add	a5,a5,a0
    5ea0:	00b787b3          	add	a5,a5,a1
    5ea4:	0107d593          	srli	a1,a5,0x10
    5ea8:	00f61123          	sh	a5,2(a2)
    5eac:	0015f593          	andi	a1,a1,1
    5eb0:	fda69ee3          	bne	a3,s10,5e8c <_ldtoa_r+0x66c>
    5eb4:	000c0613          	mv	a2,s8
    5eb8:	07c10593          	addi	a1,sp,124
    5ebc:	09810513          	addi	a0,sp,152
    5ec0:	cb5fe0ef          	jal	ra,4b74 <eiremain>
    5ec4:	1ac15783          	lhu	a5,428(sp)
    5ec8:	009906b3          	add	a3,s2,s1
    5ecc:	00148493          	addi	s1,s1,1
    5ed0:	03078613          	addi	a2,a5,48
    5ed4:	00c68023          	sb	a2,0(a3)
    5ed8:	ea9452e3          	bge	s0,s1,5d7c <_ldtoa_r+0x55c>
    5edc:	fff44513          	not	a0,s0
    5ee0:	01012703          	lw	a4,16(sp)
    5ee4:	41f55513          	srai	a0,a0,0x1f
    5ee8:	00a47533          	and	a0,s0,a0
    5eec:	01c12483          	lw	s1,28(sp)
    5ef0:	00150913          	addi	s2,a0,1
    5ef4:	01270933          	add	s2,a4,s2
    5ef8:	00a70c33          	add	s8,a4,a0
    5efc:	00400713          	li	a4,4
    5f00:	04f75863          	bge	a4,a5,5f50 <_ldtoa_r+0x730>
    5f04:	00500713          	li	a4,5
    5f08:	7ee78263          	beq	a5,a4,66ec <_ldtoa_r+0xecc>
    5f0c:	ffe94783          	lbu	a5,-2(s2)
    5f10:	ffe90713          	addi	a4,s2,-2
    5f14:	07f7f793          	andi	a5,a5,127
    5f18:	02044663          	bltz	s0,5f44 <_ldtoa_r+0x724>
    5f1c:	02e00693          	li	a3,46
    5f20:	03800613          	li	a2,56
    5f24:	03000593          	li	a1,48
    5f28:	76d78663          	beq	a5,a3,6694 <_ldtoa_r+0xe74>
    5f2c:	78f65263          	bge	a2,a5,66b0 <_ldtoa_r+0xe90>
    5f30:	fff74783          	lbu	a5,-1(a4)
    5f34:	00b70023          	sb	a1,0(a4)
    5f38:	fff70713          	addi	a4,a4,-1
    5f3c:	07f7f793          	andi	a5,a5,127
    5f40:	fe9ff06f          	j	5f28 <_ldtoa_r+0x708>
    5f44:	03100793          	li	a5,49
    5f48:	fef90f23          	sb	a5,-2(s2)
    5f4c:	00148493          	addi	s1,s1,1
    5f50:	000145b7          	lui	a1,0x14
    5f54:	00048613          	mv	a2,s1
    5f58:	49858593          	addi	a1,a1,1176 # 14498 <zeroes.4486+0x34>
    5f5c:	000c0513          	mv	a0,s8
    5f60:	191020ef          	jal	ra,88f0 <sprintf>
    5f64:	07215783          	lhu	a5,114(sp)
    5f68:	01412703          	lw	a4,20(sp)
    5f6c:	16912823          	sw	s1,368(sp)
    5f70:	fff7c793          	not	a5,a5
    5f74:	16e12223          	sw	a4,356(sp)
    5f78:	01179713          	slli	a4,a5,0x11
    5f7c:	00071e63          	bnez	a4,5f98 <_ldtoa_r+0x778>
    5f80:	00098513          	mv	a0,s3
    5f84:	c30fe0ef          	jal	ra,43b4 <eisinf.part.0>
    5f88:	22051263          	bnez	a0,61ac <_ldtoa_r+0x98c>
    5f8c:	00098513          	mv	a0,s3
    5f90:	964fe0ef          	jal	ra,40f4 <eisnan.part.0>
    5f94:	20051c63          	bnez	a0,61ac <_ldtoa_r+0x98c>
    5f98:	00c12683          	lw	a3,12(sp)
    5f9c:	12414703          	lbu	a4,292(sp)
    5fa0:	00148793          	addi	a5,s1,1
    5fa4:	00f6a023          	sw	a5,0(a3)
    5fa8:	000a8793          	mv	a5,s5
    5fac:	02070a63          	beqz	a4,5fe0 <_ldtoa_r+0x7c0>
    5fb0:	02e00693          	li	a3,46
    5fb4:	1cd70e63          	beq	a4,a3,6190 <_ldtoa_r+0x970>
    5fb8:	0017c703          	lbu	a4,1(a5)
    5fbc:	00178793          	addi	a5,a5,1
    5fc0:	fe071ae3          	bnez	a4,5fb4 <_ldtoa_r+0x794>
    5fc4:	04500693          	li	a3,69
    5fc8:	00fae663          	bltu	s5,a5,5fd4 <_ldtoa_r+0x7b4>
    5fcc:	0140006f          	j	5fe0 <_ldtoa_r+0x7c0>
    5fd0:	01578863          	beq	a5,s5,5fe0 <_ldtoa_r+0x7c0>
    5fd4:	fff7c703          	lbu	a4,-1(a5)
    5fd8:	fff78793          	addi	a5,a5,-1
    5fdc:	fed71ae3          	bne	a4,a3,5fd0 <_ldtoa_r+0x7b0>
    5fe0:	00078023          	sb	zero,0(a5)
    5fe4:	000a8793          	mv	a5,s5
    5fe8:	02000693          	li	a3,32
    5fec:	02d00613          	li	a2,45
    5ff0:	0007c703          	lbu	a4,0(a5)
    5ff4:	00d70463          	beq	a4,a3,5ffc <_ldtoa_r+0x7dc>
    5ff8:	00c71663          	bne	a4,a2,6004 <_ldtoa_r+0x7e4>
    5ffc:	00178793          	addi	a5,a5,1
    6000:	ff1ff06f          	j	5ff0 <_ldtoa_r+0x7d0>
    6004:	000a8413          	mv	s0,s5
    6008:	00c0006f          	j	6014 <_ldtoa_r+0x7f4>
    600c:	0007c703          	lbu	a4,0(a5)
    6010:	00068413          	mv	s0,a3
    6014:	00e40023          	sb	a4,0(s0)
    6018:	00140693          	addi	a3,s0,1
    601c:	00178793          	addi	a5,a5,1
    6020:	fe0716e3          	bnez	a4,600c <_ldtoa_r+0x7ec>
    6024:	00012703          	lw	a4,0(sp)
    6028:	00200793          	li	a5,2
    602c:	fff44683          	lbu	a3,-1(s0)
    6030:	12f70863          	beq	a4,a5,6160 <_ldtoa_r+0x940>
    6034:	00412783          	lw	a5,4(sp)
    6038:	00078713          	mv	a4,a5
    603c:	0097d463          	bge	a5,s1,6044 <_ldtoa_r+0x824>
    6040:	00048713          	mv	a4,s1
    6044:	03000793          	li	a5,48
    6048:	02f69663          	bne	a3,a5,6074 <_ldtoa_r+0x854>
    604c:	415407b3          	sub	a5,s0,s5
    6050:	02f75263          	bge	a4,a5,6074 <_ldtoa_r+0x854>
    6054:	03000693          	li	a3,48
    6058:	00c0006f          	j	6064 <_ldtoa_r+0x844>
    605c:	415407b3          	sub	a5,s0,s5
    6060:	00f75a63          	bge	a4,a5,6074 <_ldtoa_r+0x854>
    6064:	ffe44783          	lbu	a5,-2(s0)
    6068:	fe040fa3          	sb	zero,-1(s0)
    606c:	fff40413          	addi	s0,s0,-1
    6070:	fed786e3          	beq	a5,a3,605c <_ldtoa_r+0x83c>
    6074:	00012703          	lw	a4,0(sp)
    6078:	00300793          	li	a5,3
    607c:	0af70463          	beq	a4,a5,6124 <_ldtoa_r+0x904>
    6080:	00812783          	lw	a5,8(sp)
    6084:	040a2223          	sw	zero,68(s4)
    6088:	00978693          	addi	a3,a5,9
    608c:	01700793          	li	a5,23
    6090:	0cd7f463          	bgeu	a5,a3,6158 <_ldtoa_r+0x938>
    6094:	00100713          	li	a4,1
    6098:	00400793          	li	a5,4
    609c:	00179793          	slli	a5,a5,0x1
    60a0:	01478613          	addi	a2,a5,20
    60a4:	00070593          	mv	a1,a4
    60a8:	00170713          	addi	a4,a4,1
    60ac:	fec6f8e3          	bgeu	a3,a2,609c <_ldtoa_r+0x87c>
    60b0:	04ba2223          	sw	a1,68(s4)
    60b4:	000a0513          	mv	a0,s4
    60b8:	550010ef          	jal	ra,7608 <_Balloc>
    60bc:	00050493          	mv	s1,a0
    60c0:	140500e3          	beqz	a0,6a00 <_ldtoa_r+0x11e0>
    60c4:	04aa2023          	sw	a0,64(s4)
    60c8:	000a8593          	mv	a1,s5
    60cc:	375020ef          	jal	ra,8c40 <strcpy>
    60d0:	01812783          	lw	a5,24(sp)
    60d4:	00078863          	beqz	a5,60e4 <_ldtoa_r+0x8c4>
    60d8:	41540433          	sub	s0,s0,s5
    60dc:	00848433          	add	s0,s1,s0
    60e0:	0087a023          	sw	s0,0(a5)
    60e4:	1ec12083          	lw	ra,492(sp)
    60e8:	1e812403          	lw	s0,488(sp)
    60ec:	1e012903          	lw	s2,480(sp)
    60f0:	1dc12983          	lw	s3,476(sp)
    60f4:	1d812a03          	lw	s4,472(sp)
    60f8:	1d412a83          	lw	s5,468(sp)
    60fc:	1d012b03          	lw	s6,464(sp)
    6100:	1cc12b83          	lw	s7,460(sp)
    6104:	1c812c03          	lw	s8,456(sp)
    6108:	1c412c83          	lw	s9,452(sp)
    610c:	1c012d03          	lw	s10,448(sp)
    6110:	1bc12d83          	lw	s11,444(sp)
    6114:	00048513          	mv	a0,s1
    6118:	1e412483          	lw	s1,484(sp)
    611c:	1f010113          	addi	sp,sp,496
    6120:	00008067          	ret
    6124:	00412783          	lw	a5,4(sp)
    6128:	009784b3          	add	s1,a5,s1
    612c:	5004c663          	bltz	s1,6638 <_ldtoa_r+0xe18>
    6130:	00c12783          	lw	a5,12(sp)
    6134:	00812703          	lw	a4,8(sp)
    6138:	0007a783          	lw	a5,0(a5)
    613c:	00f707b3          	add	a5,a4,a5
    6140:	00f12423          	sw	a5,8(sp)
    6144:	00812783          	lw	a5,8(sp)
    6148:	040a2223          	sw	zero,68(s4)
    614c:	00378693          	addi	a3,a5,3
    6150:	01700793          	li	a5,23
    6154:	f4d7e0e3          	bltu	a5,a3,6094 <_ldtoa_r+0x874>
    6158:	00000593          	li	a1,0
    615c:	f59ff06f          	j	60b4 <_ldtoa_r+0x894>
    6160:	03000793          	li	a5,48
    6164:	f0f69ee3          	bne	a3,a5,6080 <_ldtoa_r+0x860>
    6168:	415407b3          	sub	a5,s0,s5
    616c:	00100713          	li	a4,1
    6170:	eef742e3          	blt	a4,a5,6054 <_ldtoa_r+0x834>
    6174:	f0dff06f          	j	6080 <_ldtoa_r+0x860>
    6178:	00812483          	lw	s1,8(sp)
    617c:	00912223          	sw	s1,4(sp)
    6180:	02a00793          	li	a5,42
    6184:	f697dc63          	bge	a5,s1,58fc <_ldtoa_r+0xdc>
    6188:	00f12223          	sw	a5,4(sp)
    618c:	f70ff06f          	j	58fc <_ldtoa_r+0xdc>
    6190:	0007c703          	lbu	a4,0(a5)
    6194:	e20708e3          	beqz	a4,5fc4 <_ldtoa_r+0x7a4>
    6198:	0017c703          	lbu	a4,1(a5)
    619c:	00178793          	addi	a5,a5,1
    61a0:	fee78fa3          	sb	a4,-1(a5)
    61a4:	fe071ae3          	bnez	a4,6198 <_ldtoa_r+0x978>
    61a8:	e1dff06f          	j	5fc4 <_ldtoa_r+0x7a4>
    61ac:	00c12703          	lw	a4,12(sp)
    61b0:	000027b7          	lui	a5,0x2
    61b4:	70f78793          	addi	a5,a5,1807 # 270f <_vfprintf_r+0x20d3>
    61b8:	00f72023          	sw	a5,0(a4)
    61bc:	e29ff06f          	j	5fe4 <_ldtoa_r+0x7c4>
    61c0:	03100713          	li	a4,49
    61c4:	12e102a3          	sb	a4,293(sp)
    61c8:	02e00713          	li	a4,46
    61cc:	12e10323          	sb	a4,294(sp)
    61d0:	00148493          	addi	s1,s1,1
    61d4:	2af05a63          	blez	a5,6488 <_ldtoa_r+0xc68>
    61d8:	03000793          	li	a5,48
    61dc:	12f103a3          	sb	a5,295(sp)
    61e0:	12810793          	addi	a5,sp,296
    61e4:	fff40413          	addi	s0,s0,-1
    61e8:	00f12823          	sw	a5,16(sp)
    61ec:	b6dff06f          	j	5d58 <_ldtoa_r+0x538>
    61f0:	0b410c93          	addi	s9,sp,180
    61f4:	000c8713          	mv	a4,s9
    61f8:	07c10793          	addi	a5,sp,124
    61fc:	09010613          	addi	a2,sp,144
    6200:	0007d683          	lhu	a3,0(a5)
    6204:	00278793          	addi	a5,a5,2
    6208:	00270713          	addi	a4,a4,2
    620c:	fed71f23          	sh	a3,-2(a4)
    6210:	fec798e3          	bne	a5,a2,6200 <_ldtoa_r+0x9e0>
    6214:	000047b7          	lui	a5,0x4
    6218:	08e78793          	addi	a5,a5,142 # 408e <m16m+0x32>
    621c:	0cf11323          	sh	a5,198(sp)
    6220:	000087b7          	lui	a5,0x8
    6224:	fff78793          	addi	a5,a5,-1 # 7fff <__mcmp+0xb>
    6228:	00f12e23          	sw	a5,28(sp)
    622c:	ffffc7b7          	lui	a5,0xffffc
    6230:	12410a93          	addi	s5,sp,292
    6234:	0d010413          	addi	s0,sp,208
    6238:	01000e13          	li	t3,16
    623c:	0c8d8313          	addi	t1,s11,200
    6240:	00278793          	addi	a5,a5,2 # ffffc002 <//.+0xfffe608a>
    6244:	03412423          	sw	s4,40(sp)
    6248:	03512223          	sw	s5,36(sp)
    624c:	00000493          	li	s1,0
    6250:	000c8a93          	mv	s5,s9
    6254:	16010913          	addi	s2,sp,352
    6258:	00040c93          	mv	s9,s0
    625c:	0aa10b93          	addi	s7,sp,170
    6260:	02f12023          	sw	a5,32(sp)
    6264:	000e0a13          	mv	s4,t3
    6268:	00030413          	mv	s0,t1
    626c:	00090693          	mv	a3,s2
    6270:	09810613          	addi	a2,sp,152
    6274:	000a8593          	mv	a1,s5
    6278:	00040513          	mv	a0,s0
    627c:	f31fe0ef          	jal	ra,51ac <ediv>
    6280:	04c10713          	addi	a4,sp,76
    6284:	09810793          	addi	a5,sp,152
    6288:	0007d683          	lhu	a3,0(a5)
    628c:	00278793          	addi	a5,a5,2
    6290:	00270713          	addi	a4,a4,2
    6294:	fed71f23          	sh	a3,-2(a4)
    6298:	ffa798e3          	bne	a5,s10,6288 <_ldtoa_r+0xa68>
    629c:	01c12783          	lw	a5,28(sp)
    62a0:	05e15583          	lhu	a1,94(sp)
    62a4:	00f5f633          	and	a2,a1,a5
    62a8:	02012783          	lw	a5,32(sp)
    62ac:	00f60533          	add	a0,a2,a5
    62b0:	38a05e63          	blez	a0,664c <_ldtoa_r+0xe2c>
    62b4:	09000613          	li	a2,144
    62b8:	40a60633          	sub	a2,a2,a0
    62bc:	000c8713          	mv	a4,s9
    62c0:	04c10793          	addi	a5,sp,76
    62c4:	0007d683          	lhu	a3,0(a5)
    62c8:	00278793          	addi	a5,a5,2
    62cc:	00270713          	addi	a4,a4,2
    62d0:	fed71f23          	sh	a3,-2(a4)
    62d4:	ff3798e3          	bne	a5,s3,62c4 <_ldtoa_r+0xaa4>
    62d8:	06c05463          	blez	a2,6340 <_ldtoa_r+0xb20>
    62dc:	00f00793          	li	a5,15
    62e0:	000c8713          	mv	a4,s9
    62e4:	02c7dc63          	bge	a5,a2,631c <_ldtoa_r+0xafc>
    62e8:	ff060613          	addi	a2,a2,-16
    62ec:	00465693          	srli	a3,a2,0x4
    62f0:	00168713          	addi	a4,a3,1
    62f4:	00171713          	slli	a4,a4,0x1
    62f8:	00ec8733          	add	a4,s9,a4
    62fc:	000c8793          	mv	a5,s9
    6300:	00278793          	addi	a5,a5,2
    6304:	fe079f23          	sh	zero,-2(a5)
    6308:	fef71ce3          	bne	a4,a5,6300 <_ldtoa_r+0xae0>
    630c:	08000613          	li	a2,128
    6310:	40a60633          	sub	a2,a2,a0
    6314:	00469693          	slli	a3,a3,0x4
    6318:	40d60633          	sub	a2,a2,a3
    631c:	00161613          	slli	a2,a2,0x1
    6320:	00cd8633          	add	a2,s11,a2
    6324:	00075783          	lhu	a5,0(a4)
    6328:	23065683          	lhu	a3,560(a2)
    632c:	00d7f7b3          	and	a5,a5,a3
    6330:	00f71023          	sh	a5,0(a4)
    6334:	01059593          	slli	a1,a1,0x10
    6338:	4105d593          	srai	a1,a1,0x10
    633c:	1405ce63          	bltz	a1,6498 <_ldtoa_r+0xc78>
    6340:	09810793          	addi	a5,sp,152
    6344:	000c8713          	mv	a4,s9
    6348:	0007d603          	lhu	a2,0(a5)
    634c:	00075683          	lhu	a3,0(a4)
    6350:	02d61863          	bne	a2,a3,6380 <_ldtoa_r+0xb60>
    6354:	00278793          	addi	a5,a5,2
    6358:	00270713          	addi	a4,a4,2
    635c:	fefb96e3          	bne	s7,a5,6348 <_ldtoa_r+0xb28>
    6360:	000a8713          	mv	a4,s5
    6364:	09810793          	addi	a5,sp,152
    6368:	0007d683          	lhu	a3,0(a5)
    636c:	00278793          	addi	a5,a5,2
    6370:	00270713          	addi	a4,a4,2
    6374:	fed71f23          	sh	a3,-2(a4)
    6378:	ffa798e3          	bne	a5,s10,6368 <_ldtoa_r+0xb48>
    637c:	014484b3          	add	s1,s1,s4
    6380:	01440413          	addi	s0,s0,20
    6384:	12cd8793          	addi	a5,s11,300
    6388:	001a5a13          	srli	s4,s4,0x1
    638c:	eef410e3          	bne	s0,a5,626c <_ldtoa_r+0xa4c>
    6390:	0c615783          	lhu	a5,198(sp)
    6394:	08e15703          	lhu	a4,142(sp)
    6398:	000c8413          	mv	s0,s9
    639c:	02812a03          	lw	s4,40(sp)
    63a0:	00e787b3          	add	a5,a5,a4
    63a4:	ffffc737          	lui	a4,0xffffc
    63a8:	000a8c93          	mv	s9,s5
    63ac:	f7270713          	addi	a4,a4,-142 # ffffbf72 <//.+0xfffe5ffa>
    63b0:	02412a83          	lw	s5,36(sp)
    63b4:	00e787b3          	add	a5,a5,a4
    63b8:	0cf11323          	sh	a5,198(sp)
    63bc:	07c10713          	addi	a4,sp,124
    63c0:	000c8793          	mv	a5,s9
    63c4:	0c810613          	addi	a2,sp,200
    63c8:	0007d683          	lhu	a3,0(a5)
    63cc:	00278793          	addi	a5,a5,2
    63d0:	00270713          	addi	a4,a4,2
    63d4:	fed71f23          	sh	a3,-2(a4)
    63d8:	fec798e3          	bne	a5,a2,63c8 <_ldtoa_r+0xba8>
    63dc:	00000713          	li	a4,0
    63e0:	09810793          	addi	a5,sp,152
    63e4:	0080006f          	j	63ec <_ldtoa_r+0xbcc>
    63e8:	000c5703          	lhu	a4,0(s8)
    63ec:	00278793          	addi	a5,a5,2
    63f0:	fee79f23          	sh	a4,-2(a5)
    63f4:	002c0c13          	addi	s8,s8,2
    63f8:	ffa798e3          	bne	a5,s10,63e8 <_ldtoa_r+0xbc8>
    63fc:	028d8d13          	addi	s10,s11,40
    6400:	00001c37          	lui	s8,0x1
    6404:	118d8d93          	addi	s11,s11,280
    6408:	0100006f          	j	6418 <_ldtoa_r+0xbf8>
    640c:	001c5c13          	srli	s8,s8,0x1
    6410:	27bd0e63          	beq	s10,s11,668c <_ldtoa_r+0xe6c>
    6414:	014d0d13          	addi	s10,s10,20
    6418:	000c8593          	mv	a1,s9
    641c:	000d8513          	mv	a0,s11
    6420:	e7dfd0ef          	jal	ra,429c <ecmp>
    6424:	26a04463          	bgtz	a0,668c <_ldtoa_r+0xe6c>
    6428:	000c8593          	mv	a1,s9
    642c:	000d0513          	mv	a0,s10
    6430:	e6dfd0ef          	jal	ra,429c <ecmp>
    6434:	fca04ce3          	bgtz	a0,640c <_ldtoa_r+0xbec>
    6438:	00090693          	mv	a3,s2
    643c:	000c8613          	mv	a2,s9
    6440:	000c8593          	mv	a1,s9
    6444:	000d0513          	mv	a0,s10
    6448:	d65fe0ef          	jal	ra,51ac <ediv>
    644c:	09810613          	addi	a2,sp,152
    6450:	00090693          	mv	a3,s2
    6454:	00060593          	mv	a1,a2
    6458:	000d0513          	mv	a0,s10
    645c:	93dfe0ef          	jal	ra,4d98 <emul>
    6460:	018484b3          	add	s1,s1,s8
    6464:	fa9ff06f          	j	640c <_ldtoa_r+0xbec>
    6468:	12410a93          	addi	s5,sp,292
    646c:	000145b7          	lui	a1,0x14
    6470:	47458593          	addi	a1,a1,1140 # 14474 <zeroes.4486+0x10>
    6474:	000a8513          	mv	a0,s5
    6478:	000024b7          	lui	s1,0x2
    647c:	474020ef          	jal	ra,88f0 <sprintf>
    6480:	70f48493          	addi	s1,s1,1807 # 270f <_vfprintf_r+0x20d3>
    6484:	ae1ff06f          	j	5f64 <_ldtoa_r+0x744>
    6488:	12710c13          	addi	s8,sp,295
    648c:	ac0792e3          	bnez	a5,5f50 <_ldtoa_r+0x730>
    6490:	01812823          	sw	s8,16(sp)
    6494:	8c5ff06f          	j	5d58 <_ldtoa_r+0x538>
    6498:	04c10793          	addi	a5,sp,76
    649c:	000c8713          	mv	a4,s9
    64a0:	0140006f          	j	64b4 <_ldtoa_r+0xc94>
    64a4:	00278793          	addi	a5,a5,2
    64a8:	05e10693          	addi	a3,sp,94
    64ac:	00270713          	addi	a4,a4,2
    64b0:	e8f688e3          	beq	a3,a5,6340 <_ldtoa_r+0xb20>
    64b4:	0007d603          	lhu	a2,0(a5)
    64b8:	00075683          	lhu	a3,0(a4)
    64bc:	fed604e3          	beq	a2,a3,64a4 <_ldtoa_r+0xc84>
    64c0:	0e215783          	lhu	a5,226(sp)
    64c4:	01c12703          	lw	a4,28(sp)
    64c8:	00f777b3          	and	a5,a4,a5
    64cc:	00e79e63          	bne	a5,a4,64e8 <_ldtoa_r+0xcc8>
    64d0:	000c8513          	mv	a0,s9
    64d4:	c21fd0ef          	jal	ra,40f4 <eisnan.part.0>
    64d8:	e60514e3          	bnez	a0,6340 <_ldtoa_r+0xb20>
    64dc:	000c8513          	mv	a0,s9
    64e0:	ed5fd0ef          	jal	ra,43b4 <eisinf.part.0>
    64e4:	e4051ee3          	bnez	a0,6340 <_ldtoa_r+0xb20>
    64e8:	0ec10593          	addi	a1,sp,236
    64ec:	000c0513          	mv	a0,s8
    64f0:	cb5fd0ef          	jal	ra,41a4 <emovi>
    64f4:	10810593          	addi	a1,sp,264
    64f8:	000c8513          	mv	a0,s9
    64fc:	ca9fd0ef          	jal	ra,41a4 <emovi>
    6500:	0ec15603          	lhu	a2,236(sp)
    6504:	10a15503          	lhu	a0,266(sp)
    6508:	0ee15883          	lhu	a7,238(sp)
    650c:	fff64613          	not	a2,a2
    6510:	01061613          	slli	a2,a2,0x10
    6514:	01065613          	srli	a2,a2,0x10
    6518:	0ec11623          	sh	a2,236(sp)
    651c:	40a885b3          	sub	a1,a7,a0
    6520:	00050693          	mv	a3,a0
    6524:	06b05e63          	blez	a1,65a0 <_ldtoa_r+0xd80>
    6528:	02412683          	lw	a3,36(sp)
    652c:	10810713          	addi	a4,sp,264
    6530:	12010793          	addi	a5,sp,288
    6534:	00075583          	lhu	a1,0(a4)
    6538:	00270713          	addi	a4,a4,2
    653c:	00268693          	addi	a3,a3,2
    6540:	feb69f23          	sh	a1,-2(a3)
    6544:	fef718e3          	bne	a4,a5,6534 <_ldtoa_r+0xd14>
    6548:	12011e23          	sh	zero,316(sp)
    654c:	10810713          	addi	a4,sp,264
    6550:	0ec10693          	addi	a3,sp,236
    6554:	0080006f          	j	655c <_ldtoa_r+0xd3c>
    6558:	0006d603          	lhu	a2,0(a3)
    655c:	00270713          	addi	a4,a4,2
    6560:	fec71f23          	sh	a2,-2(a4)
    6564:	00268693          	addi	a3,a3,2
    6568:	fef718e3          	bne	a4,a5,6558 <_ldtoa_r+0xd38>
    656c:	02412783          	lw	a5,36(sp)
    6570:	12011023          	sh	zero,288(sp)
    6574:	0ec10713          	addi	a4,sp,236
    6578:	13c10613          	addi	a2,sp,316
    657c:	0007d683          	lhu	a3,0(a5)
    6580:	00278793          	addi	a5,a5,2
    6584:	00270713          	addi	a4,a4,2
    6588:	fed71f23          	sh	a3,-2(a4)
    658c:	fec798e3          	bne	a5,a2,657c <_ldtoa_r+0xd5c>
    6590:	10a15683          	lhu	a3,266(sp)
    6594:	411505b3          	sub	a1,a0,a7
    6598:	10011223          	sh	zero,260(sp)
    659c:	00068513          	mv	a0,a3
    65a0:	2c058c63          	beqz	a1,6878 <_ldtoa_r+0x1058>
    65a4:	02d12623          	sw	a3,44(sp)
    65a8:	f6f00793          	li	a5,-145
    65ac:	06f5c863          	blt	a1,a5,661c <_ldtoa_r+0xdfc>
    65b0:	0ec10513          	addi	a0,sp,236
    65b4:	e1dfd0ef          	jal	ra,43d0 <eshift.part.0>
    65b8:	02c12683          	lw	a3,44(sp)
    65bc:	00050593          	mv	a1,a0
    65c0:	12010793          	addi	a5,sp,288
    65c4:	10410513          	addi	a0,sp,260
    65c8:	0ec15603          	lhu	a2,236(sp)
    65cc:	10815703          	lhu	a4,264(sp)
    65d0:	36e60063          	beq	a2,a4,6930 <_ldtoa_r+0x1110>
    65d4:	00000713          	li	a4,0
    65d8:	00070613          	mv	a2,a4
    65dc:	0007d703          	lhu	a4,0(a5)
    65e0:	00055803          	lhu	a6,0(a0)
    65e4:	ffe78793          	addi	a5,a5,-2
    65e8:	40c70733          	sub	a4,a4,a2
    65ec:	41070733          	sub	a4,a4,a6
    65f0:	01075613          	srli	a2,a4,0x10
    65f4:	00e79123          	sh	a4,2(a5)
    65f8:	10a10713          	addi	a4,sp,266
    65fc:	00167613          	andi	a2,a2,1
    6600:	ffe50513          	addi	a0,a0,-2
    6604:	fce79ce3          	bne	a5,a4,65dc <_ldtoa_r+0xdbc>
    6608:	00100613          	li	a2,1
    660c:	00090793          	mv	a5,s2
    6610:	04000713          	li	a4,64
    6614:	10810513          	addi	a0,sp,264
    6618:	950fe0ef          	jal	ra,4768 <emdnorm>
    661c:	000c8593          	mv	a1,s9
    6620:	10810513          	addi	a0,sp,264
    6624:	eb8fe0ef          	jal	ra,4cdc <emovo.isra.0>
    6628:	d19ff06f          	j	6340 <_ldtoa_r+0xb20>
    662c:	00812783          	lw	a5,8(sp)
    6630:	fff78493          	addi	s1,a5,-1
    6634:	b49ff06f          	j	617c <_ldtoa_r+0x95c>
    6638:	00c12783          	lw	a5,12(sp)
    663c:	12010223          	sb	zero,292(sp)
    6640:	000a8413          	mv	s0,s5
    6644:	0007a023          	sw	zero,0(a5)
    6648:	afdff06f          	j	6144 <_ldtoa_r+0x924>
    664c:	000c8793          	mv	a5,s9
    6650:	0e410713          	addi	a4,sp,228
    6654:	00278793          	addi	a5,a5,2
    6658:	fe079f23          	sh	zero,-2(a5)
    665c:	fee79ce3          	bne	a5,a4,6654 <_ldtoa_r+0xe34>
    6660:	cd5ff06f          	j	6334 <_ldtoa_r+0xb14>
    6664:	01012783          	lw	a5,16(sp)
    6668:	12410a93          	addi	s5,sp,292
    666c:	0c078663          	beqz	a5,6738 <_ldtoa_r+0xf18>
    6670:	000145b7          	lui	a1,0x14
    6674:	47c58593          	addi	a1,a1,1148 # 1447c <zeroes.4486+0x18>
    6678:	000a8513          	mv	a0,s5
    667c:	000024b7          	lui	s1,0x2
    6680:	270020ef          	jal	ra,88f0 <sprintf>
    6684:	70f48493          	addi	s1,s1,1807 # 270f <_vfprintf_r+0x20d3>
    6688:	8ddff06f          	j	5f64 <_ldtoa_r+0x744>
    668c:	0e810b93          	addi	s7,sp,232
    6690:	c8cff06f          	j	5b1c <_ldtoa_r+0x2fc>
    6694:	fff74783          	lbu	a5,-1(a4)
    6698:	03800693          	li	a3,56
    669c:	0af6fc63          	bgeu	a3,a5,6754 <_ldtoa_r+0xf34>
    66a0:	03100793          	li	a5,49
    66a4:	00148493          	addi	s1,s1,1
    66a8:	fef70fa3          	sb	a5,-1(a4)
    66ac:	8a5ff06f          	j	5f50 <_ldtoa_r+0x730>
    66b0:	00178793          	addi	a5,a5,1
    66b4:	00f70023          	sb	a5,0(a4)
    66b8:	899ff06f          	j	5f50 <_ldtoa_r+0x730>
    66bc:	12410a93          	addi	s5,sp,292
    66c0:	000145b7          	lui	a1,0x14
    66c4:	49458593          	addi	a1,a1,1172 # 14494 <zeroes.4486+0x30>
    66c8:	000a8513          	mv	a0,s5
    66cc:	000024b7          	lui	s1,0x2
    66d0:	220020ef          	jal	ra,88f0 <sprintf>
    66d4:	70f48493          	addi	s1,s1,1807 # 270f <_vfprintf_r+0x20d3>
    66d8:	88dff06f          	j	5f64 <_ldtoa_r+0x744>
    66dc:	1ac15783          	lhu	a5,428(sp)
    66e0:	12610c13          	addi	s8,sp,294
    66e4:	12710913          	addi	s2,sp,295
    66e8:	815ff06f          	j	5efc <_ldtoa_r+0x6dc>
    66ec:	09810593          	addi	a1,sp,152
    66f0:	07c10513          	addi	a0,sp,124
    66f4:	de8fe0ef          	jal	ra,4cdc <emovo.isra.0>
    66f8:	4f8b0593          	addi	a1,s6,1272
    66fc:	09810513          	addi	a0,sp,152
    6700:	b9dfd0ef          	jal	ra,429c <ecmp>
    6704:	800514e3          	bnez	a0,5f0c <_ldtoa_r+0x6ec>
    6708:	840444e3          	bltz	s0,5f50 <_ldtoa_r+0x730>
    670c:	ffe94783          	lbu	a5,-2(s2)
    6710:	fd278713          	addi	a4,a5,-46
    6714:	00173713          	seqz	a4,a4
    6718:	fff74713          	not	a4,a4
    671c:	00ec0733          	add	a4,s8,a4
    6720:	00074703          	lbu	a4,0(a4)
    6724:	00177713          	andi	a4,a4,1
    6728:	820704e3          	beqz	a4,5f50 <_ldtoa_r+0x730>
    672c:	ffe90713          	addi	a4,s2,-2
    6730:	07f7f793          	andi	a5,a5,127
    6734:	fe8ff06f          	j	5f1c <_ldtoa_r+0x6fc>
    6738:	000145b7          	lui	a1,0x14
    673c:	48858593          	addi	a1,a1,1160 # 14488 <zeroes.4486+0x24>
    6740:	000a8513          	mv	a0,s5
    6744:	000024b7          	lui	s1,0x2
    6748:	1a8020ef          	jal	ra,88f0 <sprintf>
    674c:	70f48493          	addi	s1,s1,1807 # 270f <_vfprintf_r+0x20d3>
    6750:	815ff06f          	j	5f64 <_ldtoa_r+0x744>
    6754:	00178793          	addi	a5,a5,1
    6758:	fef70fa3          	sb	a5,-1(a4)
    675c:	ff4ff06f          	j	5f50 <_ldtoa_r+0x730>
    6760:	0d010413          	addi	s0,sp,208
    6764:	00040593          	mv	a1,s0
    6768:	07c10513          	addi	a0,sp,124
    676c:	00004cb7          	lui	s9,0x4
    6770:	a35fd0ef          	jal	ra,41a4 <emovi>
    6774:	00000493          	li	s1,0
    6778:	0e810b93          	addi	s7,sp,232
    677c:	0cc10913          	addi	s2,sp,204
    6780:	0d210a93          	addi	s5,sp,210
    6784:	ffec8c93          	addi	s9,s9,-2 # 3ffe <eshup1+0x12>
    6788:	0e815783          	lhu	a5,232(sp)
    678c:	0077f793          	andi	a5,a5,7
    6790:	0c079a63          	bnez	a5,6864 <_ldtoa_r+0x1044>
    6794:	0b410713          	addi	a4,sp,180
    6798:	00040793          	mv	a5,s0
    679c:	0007d683          	lhu	a3,0(a5)
    67a0:	00278793          	addi	a5,a5,2
    67a4:	00270713          	addi	a4,a4,2
    67a8:	fed71f23          	sh	a3,-2(a4)
    67ac:	ff7798e3          	bne	a5,s7,679c <_ldtoa_r+0xf7c>
    67b0:	0b410513          	addi	a0,sp,180
    67b4:	0c011623          	sh	zero,204(sp)
    67b8:	fccfd0ef          	jal	ra,3f84 <eshdn1>
    67bc:	0b410513          	addi	a0,sp,180
    67c0:	fc4fd0ef          	jal	ra,3f84 <eshdn1>
    67c4:	00000613          	li	a2,0
    67c8:	00090693          	mv	a3,s2
    67cc:	000b8713          	mv	a4,s7
    67d0:	0006d583          	lhu	a1,0(a3)
    67d4:	00075783          	lhu	a5,0(a4)
    67d8:	ffe68693          	addi	a3,a3,-2
    67dc:	ffe70713          	addi	a4,a4,-2
    67e0:	00b787b3          	add	a5,a5,a1
    67e4:	00c787b3          	add	a5,a5,a2
    67e8:	0107d613          	srli	a2,a5,0x10
    67ec:	00f69123          	sh	a5,2(a3)
    67f0:	00167613          	andi	a2,a2,1
    67f4:	fd571ee3          	bne	a4,s5,67d0 <_ldtoa_r+0xfb0>
    67f8:	0b615783          	lhu	a5,182(sp)
    67fc:	0b815703          	lhu	a4,184(sp)
    6800:	00378793          	addi	a5,a5,3
    6804:	0af11b23          	sh	a5,182(sp)
    6808:	02070063          	beqz	a4,6828 <_ldtoa_r+0x1008>
    680c:	0b410513          	addi	a0,sp,180
    6810:	f74fd0ef          	jal	ra,3f84 <eshdn1>
    6814:	0b615783          	lhu	a5,182(sp)
    6818:	0b815703          	lhu	a4,184(sp)
    681c:	00178793          	addi	a5,a5,1
    6820:	0af11b23          	sh	a5,182(sp)
    6824:	fe0714e3          	bnez	a4,680c <_ldtoa_r+0xfec>
    6828:	0cc15783          	lhu	a5,204(sp)
    682c:	02079c63          	bnez	a5,6864 <_ldtoa_r+0x1044>
    6830:	0b615783          	lhu	a5,182(sp)
    6834:	02fce863          	bltu	s9,a5,6864 <_ldtoa_r+0x1044>
    6838:	00040713          	mv	a4,s0
    683c:	0b410793          	addi	a5,sp,180
    6840:	0007d683          	lhu	a3,0(a5)
    6844:	00278793          	addi	a5,a5,2
    6848:	00270713          	addi	a4,a4,2
    684c:	fed71f23          	sh	a3,-2(a4)
    6850:	ff2798e3          	bne	a5,s2,6840 <_ldtoa_r+0x1020>
    6854:	0e011423          	sh	zero,232(sp)
    6858:	fff48493          	addi	s1,s1,-1
    685c:	fd500793          	li	a5,-43
    6860:	f2f494e3          	bne	s1,a5,6788 <_ldtoa_r+0xf68>
    6864:	07c10593          	addi	a1,sp,124
    6868:	00040513          	mv	a0,s0
    686c:	c70fe0ef          	jal	ra,4cdc <emovo.isra.0>
    6870:	16010913          	addi	s2,sp,352
    6874:	9a4ff06f          	j	5a18 <_ldtoa_r+0x1f8>
    6878:	10c10713          	addi	a4,sp,268
    687c:	0f010793          	addi	a5,sp,240
    6880:	0007d883          	lhu	a7,0(a5)
    6884:	00075603          	lhu	a2,0(a4)
    6888:	00278793          	addi	a5,a5,2
    688c:	00270713          	addi	a4,a4,2
    6890:	02c89863          	bne	a7,a2,68c0 <_ldtoa_r+0x10a0>
    6894:	10610613          	addi	a2,sp,262
    6898:	fec794e3          	bne	a5,a2,6880 <_ldtoa_r+0x1060>
    689c:	0ec15703          	lhu	a4,236(sp)
    68a0:	10815783          	lhu	a5,264(sp)
    68a4:	02f70663          	beq	a4,a5,68d0 <_ldtoa_r+0x10b0>
    68a8:	000c8793          	mv	a5,s9
    68ac:	0e410713          	addi	a4,sp,228
    68b0:	00278793          	addi	a5,a5,2
    68b4:	fe079f23          	sh	zero,-2(a5)
    68b8:	fee79ce3          	bne	a5,a4,68b0 <_ldtoa_r+0x1090>
    68bc:	a85ff06f          	j	6340 <_ldtoa_r+0xb20>
    68c0:	0d166263          	bltu	a2,a7,6984 <_ldtoa_r+0x1164>
    68c4:	12010793          	addi	a5,sp,288
    68c8:	10410513          	addi	a0,sp,260
    68cc:	cfdff06f          	j	65c8 <_ldtoa_r+0xda8>
    68d0:	00068713          	mv	a4,a3
    68d4:	08069a63          	bnez	a3,6968 <_ldtoa_r+0x1148>
    68d8:	10e11783          	lh	a5,270(sp)
    68dc:	0807c663          	bltz	a5,6968 <_ldtoa_r+0x1148>
    68e0:	12010693          	addi	a3,sp,288
    68e4:	0006d783          	lhu	a5,0(a3)
    68e8:	01079613          	slli	a2,a5,0x10
    68ec:	41065613          	srai	a2,a2,0x10
    68f0:	00065463          	bgez	a2,68f8 <_ldtoa_r+0x10d8>
    68f4:	00176713          	ori	a4,a4,1
    68f8:	00179793          	slli	a5,a5,0x1
    68fc:	01079793          	slli	a5,a5,0x10
    6900:	00277613          	andi	a2,a4,2
    6904:	0107d793          	srli	a5,a5,0x10
    6908:	00060463          	beqz	a2,6910 <_ldtoa_r+0x10f0>
    690c:	0017e793          	ori	a5,a5,1
    6910:	00171713          	slli	a4,a4,0x1
    6914:	00f69023          	sh	a5,0(a3)
    6918:	01071713          	slli	a4,a4,0x10
    691c:	ffe68693          	addi	a3,a3,-2
    6920:	10a10793          	addi	a5,sp,266
    6924:	01075713          	srli	a4,a4,0x10
    6928:	faf69ee3          	bne	a3,a5,68e4 <_ldtoa_r+0x10c4>
    692c:	cf1ff06f          	j	661c <_ldtoa_r+0xdfc>
    6930:	00000713          	li	a4,0
    6934:	0ee10313          	addi	t1,sp,238
    6938:	0007d803          	lhu	a6,0(a5)
    693c:	00055603          	lhu	a2,0(a0)
    6940:	ffe78793          	addi	a5,a5,-2
    6944:	ffe50513          	addi	a0,a0,-2
    6948:	01060633          	add	a2,a2,a6
    694c:	00e60733          	add	a4,a2,a4
    6950:	01075613          	srli	a2,a4,0x10
    6954:	00e79123          	sh	a4,2(a5)
    6958:	00167713          	andi	a4,a2,1
    695c:	fc651ee3          	bne	a0,t1,6938 <_ldtoa_r+0x1118>
    6960:	00000613          	li	a2,0
    6964:	ca9ff06f          	j	660c <_ldtoa_r+0xdec>
    6968:	10c10613          	addi	a2,sp,268
    696c:	12010793          	addi	a5,sp,288
    6970:	08071263          	bnez	a4,69f4 <_ldtoa_r+0x11d4>
    6974:	08c78263          	beq	a5,a2,69f8 <_ldtoa_r+0x11d8>
    6978:	00065703          	lhu	a4,0(a2)
    697c:	00260613          	addi	a2,a2,2
    6980:	ff1ff06f          	j	6970 <_ldtoa_r+0x1150>
    6984:	02412603          	lw	a2,36(sp)
    6988:	10810713          	addi	a4,sp,264
    698c:	12010793          	addi	a5,sp,288
    6990:	00075503          	lhu	a0,0(a4)
    6994:	00270713          	addi	a4,a4,2
    6998:	00260613          	addi	a2,a2,2
    699c:	fea61f23          	sh	a0,-2(a2)
    69a0:	fef718e3          	bne	a4,a5,6990 <_ldtoa_r+0x1170>
    69a4:	12011e23          	sh	zero,316(sp)
    69a8:	10810613          	addi	a2,sp,264
    69ac:	0ec10713          	addi	a4,sp,236
    69b0:	10410513          	addi	a0,sp,260
    69b4:	00075803          	lhu	a6,0(a4)
    69b8:	00270713          	addi	a4,a4,2
    69bc:	00260613          	addi	a2,a2,2
    69c0:	ff061f23          	sh	a6,-2(a2)
    69c4:	fea718e3          	bne	a4,a0,69b4 <_ldtoa_r+0x1194>
    69c8:	02412703          	lw	a4,36(sp)
    69cc:	12011023          	sh	zero,288(sp)
    69d0:	0ec10893          	addi	a7,sp,236
    69d4:	13c10613          	addi	a2,sp,316
    69d8:	00075803          	lhu	a6,0(a4)
    69dc:	00270713          	addi	a4,a4,2
    69e0:	00288893          	addi	a7,a7,2
    69e4:	ff089f23          	sh	a6,-2(a7)
    69e8:	fec718e3          	bne	a4,a2,69d8 <_ldtoa_r+0x11b8>
    69ec:	10011223          	sh	zero,260(sp)
    69f0:	bd9ff06f          	j	65c8 <_ldtoa_r+0xda8>
    69f4:	00168513          	addi	a0,a3,1
    69f8:	10a11523          	sh	a0,266(sp)
    69fc:	c21ff06f          	j	661c <_ldtoa_r+0xdfc>
    6a00:	000146b7          	lui	a3,0x14
    6a04:	000015b7          	lui	a1,0x1
    6a08:	00014537          	lui	a0,0x14
    6a0c:	49c68693          	addi	a3,a3,1180 # 1449c <zeroes.4486+0x38>
    6a10:	00000613          	li	a2,0
    6a14:	b6e58593          	addi	a1,a1,-1170 # b6e <_vfprintf_r+0x532>
    6a18:	4b050513          	addi	a0,a0,1200 # 144b0 <zeroes.4486+0x4c>
    6a1c:	260060ef          	jal	ra,cc7c <__assert_func>

00006a20 <_ldcheck>:
    6a20:	00852703          	lw	a4,8(a0)
    6a24:	00c52783          	lw	a5,12(a0)
    6a28:	00052603          	lw	a2,0(a0)
    6a2c:	00452683          	lw	a3,4(a0)
    6a30:	fc010113          	addi	sp,sp,-64
    6a34:	00010513          	mv	a0,sp
    6a38:	01410593          	addi	a1,sp,20
    6a3c:	00e12423          	sw	a4,8(sp)
    6a40:	00f12623          	sw	a5,12(sp)
    6a44:	02112e23          	sw	ra,60(sp)
    6a48:	00c12023          	sw	a2,0(sp)
    6a4c:	00d12223          	sw	a3,4(sp)
    6a50:	c81fe0ef          	jal	ra,56d0 <e113toe.isra.0>
    6a54:	02615783          	lhu	a5,38(sp)
    6a58:	00000513          	li	a0,0
    6a5c:	fff7c793          	not	a5,a5
    6a60:	01179713          	slli	a4,a5,0x11
    6a64:	00071a63          	bnez	a4,6a78 <_ldcheck+0x58>
    6a68:	01410513          	addi	a0,sp,20
    6a6c:	e88fd0ef          	jal	ra,40f4 <eisnan.part.0>
    6a70:	00153513          	seqz	a0,a0
    6a74:	00150513          	addi	a0,a0,1
    6a78:	03c12083          	lw	ra,60(sp)
    6a7c:	04010113          	addi	sp,sp,64
    6a80:	00008067          	ret

00006a84 <__localeconv_l>:
    6a84:	0f050513          	addi	a0,a0,240
    6a88:	00008067          	ret

00006a8c <_localeconv_r>:
    6a8c:	d3018513          	addi	a0,gp,-720 # 155e8 <__global_locale+0xf0>
    6a90:	00008067          	ret

00006a94 <localeconv>:
    6a94:	d3018513          	addi	a0,gp,-720 # 155e8 <__global_locale+0xf0>
    6a98:	00008067          	ret

00006a9c <_setlocale_r>:
    6a9c:	ff010113          	addi	sp,sp,-16
    6aa0:	00112623          	sw	ra,12(sp)
    6aa4:	00812423          	sw	s0,8(sp)
    6aa8:	00912223          	sw	s1,4(sp)
    6aac:	02060c63          	beqz	a2,6ae4 <_setlocale_r+0x48>
    6ab0:	000145b7          	lui	a1,0x14
    6ab4:	75058593          	addi	a1,a1,1872 # 14750 <bmask+0x28>
    6ab8:	00060513          	mv	a0,a2
    6abc:	00060413          	mv	s0,a2
    6ac0:	004020ef          	jal	ra,8ac4 <strcmp>
    6ac4:	000144b7          	lui	s1,0x14
    6ac8:	02051263          	bnez	a0,6aec <_setlocale_r+0x50>
    6acc:	74c48513          	addi	a0,s1,1868 # 1474c <bmask+0x24>
    6ad0:	00c12083          	lw	ra,12(sp)
    6ad4:	00812403          	lw	s0,8(sp)
    6ad8:	00412483          	lw	s1,4(sp)
    6adc:	01010113          	addi	sp,sp,16
    6ae0:	00008067          	ret
    6ae4:	000144b7          	lui	s1,0x14
    6ae8:	fe5ff06f          	j	6acc <_setlocale_r+0x30>
    6aec:	74c48593          	addi	a1,s1,1868 # 1474c <bmask+0x24>
    6af0:	00040513          	mv	a0,s0
    6af4:	7d1010ef          	jal	ra,8ac4 <strcmp>
    6af8:	fc050ae3          	beqz	a0,6acc <_setlocale_r+0x30>
    6afc:	000155b7          	lui	a1,0x15
    6b00:	bf458593          	addi	a1,a1,-1036 # 14bf4 <zeroes.4462+0x1c>
    6b04:	00040513          	mv	a0,s0
    6b08:	7bd010ef          	jal	ra,8ac4 <strcmp>
    6b0c:	fc0500e3          	beqz	a0,6acc <_setlocale_r+0x30>
    6b10:	00000513          	li	a0,0
    6b14:	fbdff06f          	j	6ad0 <_setlocale_r+0x34>

00006b18 <__locale_mb_cur_max>:
    6b18:	d681c503          	lbu	a0,-664(gp) # 15620 <__global_locale+0x128>
    6b1c:	00008067          	ret

00006b20 <setlocale>:
    6b20:	00050793          	mv	a5,a0
    6b24:	1d81a503          	lw	a0,472(gp) # 15a90 <_impure_ptr>
    6b28:	00058613          	mv	a2,a1
    6b2c:	00078593          	mv	a1,a5
    6b30:	f6dff06f          	j	6a9c <_setlocale_r>

00006b34 <__swhatbuf_r>:
    6b34:	f9010113          	addi	sp,sp,-112
    6b38:	06812423          	sw	s0,104(sp)
    6b3c:	00058413          	mv	s0,a1
    6b40:	00e59583          	lh	a1,14(a1)
    6b44:	06912223          	sw	s1,100(sp)
    6b48:	07212023          	sw	s2,96(sp)
    6b4c:	06112623          	sw	ra,108(sp)
    6b50:	00060493          	mv	s1,a2
    6b54:	00068913          	mv	s2,a3
    6b58:	0405ca63          	bltz	a1,6bac <__swhatbuf_r+0x78>
    6b5c:	00810613          	addi	a2,sp,8
    6b60:	618060ef          	jal	ra,d178 <_fstat_r>
    6b64:	04054463          	bltz	a0,6bac <__swhatbuf_r+0x78>
    6b68:	00c12703          	lw	a4,12(sp)
    6b6c:	0000f7b7          	lui	a5,0xf
    6b70:	06c12083          	lw	ra,108(sp)
    6b74:	00e7f7b3          	and	a5,a5,a4
    6b78:	ffffe737          	lui	a4,0xffffe
    6b7c:	00e787b3          	add	a5,a5,a4
    6b80:	06812403          	lw	s0,104(sp)
    6b84:	0017b793          	seqz	a5,a5
    6b88:	00f92023          	sw	a5,0(s2)
    6b8c:	40000793          	li	a5,1024
    6b90:	00f4a023          	sw	a5,0(s1)
    6b94:	00001537          	lui	a0,0x1
    6b98:	06412483          	lw	s1,100(sp)
    6b9c:	06012903          	lw	s2,96(sp)
    6ba0:	80050513          	addi	a0,a0,-2048 # 800 <_vfprintf_r+0x1c4>
    6ba4:	07010113          	addi	sp,sp,112
    6ba8:	00008067          	ret
    6bac:	00c45783          	lhu	a5,12(s0)
    6bb0:	00092023          	sw	zero,0(s2)
    6bb4:	0807f793          	andi	a5,a5,128
    6bb8:	02078463          	beqz	a5,6be0 <__swhatbuf_r+0xac>
    6bbc:	06c12083          	lw	ra,108(sp)
    6bc0:	06812403          	lw	s0,104(sp)
    6bc4:	04000793          	li	a5,64
    6bc8:	00f4a023          	sw	a5,0(s1)
    6bcc:	06012903          	lw	s2,96(sp)
    6bd0:	06412483          	lw	s1,100(sp)
    6bd4:	00000513          	li	a0,0
    6bd8:	07010113          	addi	sp,sp,112
    6bdc:	00008067          	ret
    6be0:	06c12083          	lw	ra,108(sp)
    6be4:	06812403          	lw	s0,104(sp)
    6be8:	40000793          	li	a5,1024
    6bec:	00f4a023          	sw	a5,0(s1)
    6bf0:	06012903          	lw	s2,96(sp)
    6bf4:	06412483          	lw	s1,100(sp)
    6bf8:	00000513          	li	a0,0
    6bfc:	07010113          	addi	sp,sp,112
    6c00:	00008067          	ret

00006c04 <__smakebuf_r>:
    6c04:	00c5d783          	lhu	a5,12(a1)
    6c08:	fe010113          	addi	sp,sp,-32
    6c0c:	00812c23          	sw	s0,24(sp)
    6c10:	00112e23          	sw	ra,28(sp)
    6c14:	00912a23          	sw	s1,20(sp)
    6c18:	01212823          	sw	s2,16(sp)
    6c1c:	0027f793          	andi	a5,a5,2
    6c20:	00058413          	mv	s0,a1
    6c24:	02078863          	beqz	a5,6c54 <__smakebuf_r+0x50>
    6c28:	04358793          	addi	a5,a1,67
    6c2c:	00f5a023          	sw	a5,0(a1)
    6c30:	00f5a823          	sw	a5,16(a1)
    6c34:	00100793          	li	a5,1
    6c38:	00f5aa23          	sw	a5,20(a1)
    6c3c:	01c12083          	lw	ra,28(sp)
    6c40:	01812403          	lw	s0,24(sp)
    6c44:	01412483          	lw	s1,20(sp)
    6c48:	01012903          	lw	s2,16(sp)
    6c4c:	02010113          	addi	sp,sp,32
    6c50:	00008067          	ret
    6c54:	00c10693          	addi	a3,sp,12
    6c58:	00810613          	addi	a2,sp,8
    6c5c:	00050493          	mv	s1,a0
    6c60:	ed5ff0ef          	jal	ra,6b34 <__swhatbuf_r>
    6c64:	00812583          	lw	a1,8(sp)
    6c68:	00050913          	mv	s2,a0
    6c6c:	00048513          	mv	a0,s1
    6c70:	0b4000ef          	jal	ra,6d24 <_malloc_r>
    6c74:	00c41783          	lh	a5,12(s0)
    6c78:	04050863          	beqz	a0,6cc8 <__smakebuf_r+0xc4>
    6c7c:	00003737          	lui	a4,0x3
    6c80:	64c70713          	addi	a4,a4,1612 # 364c <_cleanup_r>
    6c84:	02e4ae23          	sw	a4,60(s1)
    6c88:	00812703          	lw	a4,8(sp)
    6c8c:	00c12683          	lw	a3,12(sp)
    6c90:	0807e793          	ori	a5,a5,128
    6c94:	00f41623          	sh	a5,12(s0)
    6c98:	00a42023          	sw	a0,0(s0)
    6c9c:	00a42823          	sw	a0,16(s0)
    6ca0:	00e42a23          	sw	a4,20(s0)
    6ca4:	04069863          	bnez	a3,6cf4 <__smakebuf_r+0xf0>
    6ca8:	0127e7b3          	or	a5,a5,s2
    6cac:	01c12083          	lw	ra,28(sp)
    6cb0:	00f41623          	sh	a5,12(s0)
    6cb4:	01812403          	lw	s0,24(sp)
    6cb8:	01412483          	lw	s1,20(sp)
    6cbc:	01012903          	lw	s2,16(sp)
    6cc0:	02010113          	addi	sp,sp,32
    6cc4:	00008067          	ret
    6cc8:	2007f713          	andi	a4,a5,512
    6ccc:	f60718e3          	bnez	a4,6c3c <__smakebuf_r+0x38>
    6cd0:	ffc7f793          	andi	a5,a5,-4
    6cd4:	0027e793          	ori	a5,a5,2
    6cd8:	04340713          	addi	a4,s0,67
    6cdc:	00f41623          	sh	a5,12(s0)
    6ce0:	00100793          	li	a5,1
    6ce4:	00e42023          	sw	a4,0(s0)
    6ce8:	00e42823          	sw	a4,16(s0)
    6cec:	00f42a23          	sw	a5,20(s0)
    6cf0:	f4dff06f          	j	6c3c <__smakebuf_r+0x38>
    6cf4:	00e41583          	lh	a1,14(s0)
    6cf8:	00048513          	mv	a0,s1
    6cfc:	179060ef          	jal	ra,d674 <_isatty_r>
    6d00:	00051663          	bnez	a0,6d0c <__smakebuf_r+0x108>
    6d04:	00c41783          	lh	a5,12(s0)
    6d08:	fa1ff06f          	j	6ca8 <__smakebuf_r+0xa4>
    6d0c:	00c45703          	lhu	a4,12(s0)
    6d10:	ffc77713          	andi	a4,a4,-4
    6d14:	00176713          	ori	a4,a4,1
    6d18:	01071793          	slli	a5,a4,0x10
    6d1c:	4107d793          	srai	a5,a5,0x10
    6d20:	f89ff06f          	j	6ca8 <__smakebuf_r+0xa4>

00006d24 <_malloc_r>:
    6d24:	fd010113          	addi	sp,sp,-48
    6d28:	01312e23          	sw	s3,28(sp)
    6d2c:	02112623          	sw	ra,44(sp)
    6d30:	02812423          	sw	s0,40(sp)
    6d34:	02912223          	sw	s1,36(sp)
    6d38:	03212023          	sw	s2,32(sp)
    6d3c:	01412c23          	sw	s4,24(sp)
    6d40:	01512a23          	sw	s5,20(sp)
    6d44:	01612823          	sw	s6,16(sp)
    6d48:	01712623          	sw	s7,12(sp)
    6d4c:	01812423          	sw	s8,8(sp)
    6d50:	01912223          	sw	s9,4(sp)
    6d54:	00b58793          	addi	a5,a1,11
    6d58:	01600713          	li	a4,22
    6d5c:	00050993          	mv	s3,a0
    6d60:	06f76463          	bltu	a4,a5,6dc8 <_malloc_r+0xa4>
    6d64:	01000793          	li	a5,16
    6d68:	1eb7e263          	bltu	a5,a1,6f4c <_malloc_r+0x228>
    6d6c:	095000ef          	jal	ra,7600 <__malloc_lock>
    6d70:	01000493          	li	s1,16
    6d74:	00200613          	li	a2,2
    6d78:	01800793          	li	a5,24
    6d7c:	dac18913          	addi	s2,gp,-596 # 15664 <__malloc_av_>
    6d80:	00f907b3          	add	a5,s2,a5
    6d84:	0047a403          	lw	s0,4(a5) # f004 <_svfiprintf_r+0xdb0>
    6d88:	ff878713          	addi	a4,a5,-8
    6d8c:	20e40863          	beq	s0,a4,6f9c <_malloc_r+0x278>
    6d90:	00442783          	lw	a5,4(s0)
    6d94:	00c42683          	lw	a3,12(s0)
    6d98:	00842603          	lw	a2,8(s0)
    6d9c:	ffc7f793          	andi	a5,a5,-4
    6da0:	00f407b3          	add	a5,s0,a5
    6da4:	0047a703          	lw	a4,4(a5)
    6da8:	00d62623          	sw	a3,12(a2)
    6dac:	00c6a423          	sw	a2,8(a3)
    6db0:	00176713          	ori	a4,a4,1
    6db4:	00098513          	mv	a0,s3
    6db8:	00e7a223          	sw	a4,4(a5)
    6dbc:	049000ef          	jal	ra,7604 <__malloc_unlock>
    6dc0:	00840513          	addi	a0,s0,8
    6dc4:	1940006f          	j	6f58 <_malloc_r+0x234>
    6dc8:	ff87f493          	andi	s1,a5,-8
    6dcc:	1807c063          	bltz	a5,6f4c <_malloc_r+0x228>
    6dd0:	16b4ee63          	bltu	s1,a1,6f4c <_malloc_r+0x228>
    6dd4:	02d000ef          	jal	ra,7600 <__malloc_lock>
    6dd8:	1f700793          	li	a5,503
    6ddc:	4497fa63          	bgeu	a5,s1,7230 <_malloc_r+0x50c>
    6de0:	0094d793          	srli	a5,s1,0x9
    6de4:	1a078463          	beqz	a5,6f8c <_malloc_r+0x268>
    6de8:	00400713          	li	a4,4
    6dec:	3cf76063          	bltu	a4,a5,71ac <_malloc_r+0x488>
    6df0:	0064d793          	srli	a5,s1,0x6
    6df4:	03978613          	addi	a2,a5,57
    6df8:	03878513          	addi	a0,a5,56
    6dfc:	00361693          	slli	a3,a2,0x3
    6e00:	dac18913          	addi	s2,gp,-596 # 15664 <__malloc_av_>
    6e04:	00d906b3          	add	a3,s2,a3
    6e08:	0046a403          	lw	s0,4(a3)
    6e0c:	ff868693          	addi	a3,a3,-8
    6e10:	02868663          	beq	a3,s0,6e3c <_malloc_r+0x118>
    6e14:	00f00593          	li	a1,15
    6e18:	0100006f          	j	6e28 <_malloc_r+0x104>
    6e1c:	32075263          	bgez	a4,7140 <_malloc_r+0x41c>
    6e20:	00c42403          	lw	s0,12(s0)
    6e24:	00868c63          	beq	a3,s0,6e3c <_malloc_r+0x118>
    6e28:	00442783          	lw	a5,4(s0)
    6e2c:	ffc7f793          	andi	a5,a5,-4
    6e30:	40978733          	sub	a4,a5,s1
    6e34:	fee5d4e3          	bge	a1,a4,6e1c <_malloc_r+0xf8>
    6e38:	00050613          	mv	a2,a0
    6e3c:	01092403          	lw	s0,16(s2)
    6e40:	00890893          	addi	a7,s2,8
    6e44:	17140863          	beq	s0,a7,6fb4 <_malloc_r+0x290>
    6e48:	00442503          	lw	a0,4(s0)
    6e4c:	00f00693          	li	a3,15
    6e50:	ffc57513          	andi	a0,a0,-4
    6e54:	409507b3          	sub	a5,a0,s1
    6e58:	40f6c263          	blt	a3,a5,725c <_malloc_r+0x538>
    6e5c:	01192a23          	sw	a7,20(s2)
    6e60:	01192823          	sw	a7,16(s2)
    6e64:	3c07dc63          	bgez	a5,723c <_malloc_r+0x518>
    6e68:	1ff00793          	li	a5,511
    6e6c:	2ea7e063          	bltu	a5,a0,714c <_malloc_r+0x428>
    6e70:	ff857793          	andi	a5,a0,-8
    6e74:	00878793          	addi	a5,a5,8
    6e78:	00492583          	lw	a1,4(s2)
    6e7c:	00f907b3          	add	a5,s2,a5
    6e80:	0007a683          	lw	a3,0(a5)
    6e84:	00555513          	srli	a0,a0,0x5
    6e88:	00100713          	li	a4,1
    6e8c:	00a71733          	sll	a4,a4,a0
    6e90:	00b76733          	or	a4,a4,a1
    6e94:	ff878593          	addi	a1,a5,-8
    6e98:	00b42623          	sw	a1,12(s0)
    6e9c:	00d42423          	sw	a3,8(s0)
    6ea0:	00e92223          	sw	a4,4(s2)
    6ea4:	0087a023          	sw	s0,0(a5)
    6ea8:	0086a623          	sw	s0,12(a3)
    6eac:	40265793          	srai	a5,a2,0x2
    6eb0:	00100593          	li	a1,1
    6eb4:	00f595b3          	sll	a1,a1,a5
    6eb8:	10b76863          	bltu	a4,a1,6fc8 <_malloc_r+0x2a4>
    6ebc:	00e5f7b3          	and	a5,a1,a4
    6ec0:	02079463          	bnez	a5,6ee8 <_malloc_r+0x1c4>
    6ec4:	00159593          	slli	a1,a1,0x1
    6ec8:	ffc67613          	andi	a2,a2,-4
    6ecc:	00e5f7b3          	and	a5,a1,a4
    6ed0:	00460613          	addi	a2,a2,4
    6ed4:	00079a63          	bnez	a5,6ee8 <_malloc_r+0x1c4>
    6ed8:	00159593          	slli	a1,a1,0x1
    6edc:	00e5f7b3          	and	a5,a1,a4
    6ee0:	00460613          	addi	a2,a2,4
    6ee4:	fe078ae3          	beqz	a5,6ed8 <_malloc_r+0x1b4>
    6ee8:	00f00813          	li	a6,15
    6eec:	00361313          	slli	t1,a2,0x3
    6ef0:	00690333          	add	t1,s2,t1
    6ef4:	00030513          	mv	a0,t1
    6ef8:	00c52783          	lw	a5,12(a0)
    6efc:	00060e13          	mv	t3,a2
    6f00:	2cf50863          	beq	a0,a5,71d0 <_malloc_r+0x4ac>
    6f04:	0047a703          	lw	a4,4(a5)
    6f08:	00078413          	mv	s0,a5
    6f0c:	00c7a783          	lw	a5,12(a5)
    6f10:	ffc77713          	andi	a4,a4,-4
    6f14:	409706b3          	sub	a3,a4,s1
    6f18:	2cd84863          	blt	a6,a3,71e8 <_malloc_r+0x4c4>
    6f1c:	fe06c2e3          	bltz	a3,6f00 <_malloc_r+0x1dc>
    6f20:	00e40733          	add	a4,s0,a4
    6f24:	00472683          	lw	a3,4(a4)
    6f28:	00842603          	lw	a2,8(s0)
    6f2c:	00098513          	mv	a0,s3
    6f30:	0016e693          	ori	a3,a3,1
    6f34:	00d72223          	sw	a3,4(a4)
    6f38:	00f62623          	sw	a5,12(a2)
    6f3c:	00c7a423          	sw	a2,8(a5)
    6f40:	6c4000ef          	jal	ra,7604 <__malloc_unlock>
    6f44:	00840513          	addi	a0,s0,8
    6f48:	0100006f          	j	6f58 <_malloc_r+0x234>
    6f4c:	00c00793          	li	a5,12
    6f50:	00f9a023          	sw	a5,0(s3)
    6f54:	00000513          	li	a0,0
    6f58:	02c12083          	lw	ra,44(sp)
    6f5c:	02812403          	lw	s0,40(sp)
    6f60:	02412483          	lw	s1,36(sp)
    6f64:	02012903          	lw	s2,32(sp)
    6f68:	01c12983          	lw	s3,28(sp)
    6f6c:	01812a03          	lw	s4,24(sp)
    6f70:	01412a83          	lw	s5,20(sp)
    6f74:	01012b03          	lw	s6,16(sp)
    6f78:	00c12b83          	lw	s7,12(sp)
    6f7c:	00812c03          	lw	s8,8(sp)
    6f80:	00412c83          	lw	s9,4(sp)
    6f84:	03010113          	addi	sp,sp,48
    6f88:	00008067          	ret
    6f8c:	20000693          	li	a3,512
    6f90:	04000613          	li	a2,64
    6f94:	03f00513          	li	a0,63
    6f98:	e69ff06f          	j	6e00 <_malloc_r+0xdc>
    6f9c:	00c7a403          	lw	s0,12(a5)
    6fa0:	00260613          	addi	a2,a2,2
    6fa4:	de8796e3          	bne	a5,s0,6d90 <_malloc_r+0x6c>
    6fa8:	01092403          	lw	s0,16(s2)
    6fac:	00890893          	addi	a7,s2,8
    6fb0:	e9141ce3          	bne	s0,a7,6e48 <_malloc_r+0x124>
    6fb4:	00492703          	lw	a4,4(s2)
    6fb8:	40265793          	srai	a5,a2,0x2
    6fbc:	00100593          	li	a1,1
    6fc0:	00f595b3          	sll	a1,a1,a5
    6fc4:	eeb77ce3          	bgeu	a4,a1,6ebc <_malloc_r+0x198>
    6fc8:	00892403          	lw	s0,8(s2)
    6fcc:	00442a83          	lw	s5,4(s0)
    6fd0:	ffcafb13          	andi	s6,s5,-4
    6fd4:	009b6863          	bltu	s6,s1,6fe4 <_malloc_r+0x2c0>
    6fd8:	409b07b3          	sub	a5,s6,s1
    6fdc:	00f00713          	li	a4,15
    6fe0:	12f74c63          	blt	a4,a5,7118 <_malloc_r+0x3f4>
    6fe4:	1f01aa83          	lw	s5,496(gp) # 15aa8 <__malloc_top_pad>
    6fe8:	1dc1a703          	lw	a4,476(gp) # 15a94 <__malloc_sbrk_base>
    6fec:	fff00793          	li	a5,-1
    6ff0:	01640a33          	add	s4,s0,s6
    6ff4:	01548ab3          	add	s5,s1,s5
    6ff8:	34f70463          	beq	a4,a5,7340 <_malloc_r+0x61c>
    6ffc:	000017b7          	lui	a5,0x1
    7000:	00f78793          	addi	a5,a5,15 # 100f <_vfprintf_r+0x9d3>
    7004:	00fa8ab3          	add	s5,s5,a5
    7008:	fffff7b7          	lui	a5,0xfffff
    700c:	00fafab3          	and	s5,s5,a5
    7010:	000a8593          	mv	a1,s5
    7014:	00098513          	mv	a0,s3
    7018:	768010ef          	jal	ra,8780 <_sbrk_r>
    701c:	fff00793          	li	a5,-1
    7020:	00050b93          	mv	s7,a0
    7024:	28f50663          	beq	a0,a5,72b0 <_malloc_r+0x58c>
    7028:	29456263          	bltu	a0,s4,72ac <_malloc_r+0x588>
    702c:	21418c13          	addi	s8,gp,532 # 15acc <__malloc_current_mallinfo>
    7030:	000c2583          	lw	a1,0(s8) # 1000 <_vfprintf_r+0x9c4>
    7034:	00ba85b3          	add	a1,s5,a1
    7038:	00bc2023          	sw	a1,0(s8)
    703c:	00058793          	mv	a5,a1
    7040:	38aa0e63          	beq	s4,a0,73dc <_malloc_r+0x6b8>
    7044:	1dc1a683          	lw	a3,476(gp) # 15a94 <__malloc_sbrk_base>
    7048:	fff00713          	li	a4,-1
    704c:	3ae68663          	beq	a3,a4,73f8 <_malloc_r+0x6d4>
    7050:	414b8a33          	sub	s4,s7,s4
    7054:	00fa07b3          	add	a5,s4,a5
    7058:	00fc2023          	sw	a5,0(s8)
    705c:	007bfc93          	andi	s9,s7,7
    7060:	300c8263          	beqz	s9,7364 <_malloc_r+0x640>
    7064:	000017b7          	lui	a5,0x1
    7068:	419b8bb3          	sub	s7,s7,s9
    706c:	00878593          	addi	a1,a5,8 # 1008 <_vfprintf_r+0x9cc>
    7070:	008b8b93          	addi	s7,s7,8
    7074:	419585b3          	sub	a1,a1,s9
    7078:	015b8ab3          	add	s5,s7,s5
    707c:	fff78793          	addi	a5,a5,-1
    7080:	415585b3          	sub	a1,a1,s5
    7084:	00f5fa33          	and	s4,a1,a5
    7088:	000a0593          	mv	a1,s4
    708c:	00098513          	mv	a0,s3
    7090:	6f0010ef          	jal	ra,8780 <_sbrk_r>
    7094:	fff00793          	li	a5,-1
    7098:	3af50a63          	beq	a0,a5,744c <_malloc_r+0x728>
    709c:	41750533          	sub	a0,a0,s7
    70a0:	01450ab3          	add	s5,a0,s4
    70a4:	000c2583          	lw	a1,0(s8)
    70a8:	01792423          	sw	s7,8(s2)
    70ac:	001aea93          	ori	s5,s5,1
    70b0:	00ba05b3          	add	a1,s4,a1
    70b4:	00bc2023          	sw	a1,0(s8)
    70b8:	015ba223          	sw	s5,4(s7)
    70bc:	35240263          	beq	s0,s2,7400 <_malloc_r+0x6dc>
    70c0:	00f00693          	li	a3,15
    70c4:	3566f263          	bgeu	a3,s6,7408 <_malloc_r+0x6e4>
    70c8:	00442703          	lw	a4,4(s0)
    70cc:	ff4b0793          	addi	a5,s6,-12
    70d0:	ff87f793          	andi	a5,a5,-8
    70d4:	00177713          	andi	a4,a4,1
    70d8:	00f76733          	or	a4,a4,a5
    70dc:	00e42223          	sw	a4,4(s0)
    70e0:	00500613          	li	a2,5
    70e4:	00f40733          	add	a4,s0,a5
    70e8:	00c72223          	sw	a2,4(a4)
    70ec:	00c72423          	sw	a2,8(a4)
    70f0:	36f6e863          	bltu	a3,a5,7460 <_malloc_r+0x73c>
    70f4:	004baa83          	lw	s5,4(s7)
    70f8:	000b8413          	mv	s0,s7
    70fc:	1ec1a703          	lw	a4,492(gp) # 15aa4 <__malloc_max_sbrked_mem>
    7100:	00b77463          	bgeu	a4,a1,7108 <_malloc_r+0x3e4>
    7104:	1eb1a623          	sw	a1,492(gp) # 15aa4 <__malloc_max_sbrked_mem>
    7108:	1e81a703          	lw	a4,488(gp) # 15aa0 <__malloc_max_total_mem>
    710c:	1ab77663          	bgeu	a4,a1,72b8 <_malloc_r+0x594>
    7110:	1eb1a423          	sw	a1,488(gp) # 15aa0 <__malloc_max_total_mem>
    7114:	1a40006f          	j	72b8 <_malloc_r+0x594>
    7118:	0014e713          	ori	a4,s1,1
    711c:	00e42223          	sw	a4,4(s0)
    7120:	009404b3          	add	s1,s0,s1
    7124:	00992423          	sw	s1,8(s2)
    7128:	0017e793          	ori	a5,a5,1
    712c:	00098513          	mv	a0,s3
    7130:	00f4a223          	sw	a5,4(s1)
    7134:	4d0000ef          	jal	ra,7604 <__malloc_unlock>
    7138:	00840513          	addi	a0,s0,8
    713c:	e1dff06f          	j	6f58 <_malloc_r+0x234>
    7140:	00c42683          	lw	a3,12(s0)
    7144:	00842603          	lw	a2,8(s0)
    7148:	c59ff06f          	j	6da0 <_malloc_r+0x7c>
    714c:	00955793          	srli	a5,a0,0x9
    7150:	00400713          	li	a4,4
    7154:	14f77263          	bgeu	a4,a5,7298 <_malloc_r+0x574>
    7158:	01400713          	li	a4,20
    715c:	22f76a63          	bltu	a4,a5,7390 <_malloc_r+0x66c>
    7160:	05c78693          	addi	a3,a5,92
    7164:	05b78593          	addi	a1,a5,91
    7168:	00369693          	slli	a3,a3,0x3
    716c:	00d906b3          	add	a3,s2,a3
    7170:	0006a783          	lw	a5,0(a3)
    7174:	ff868693          	addi	a3,a3,-8
    7178:	1cf68863          	beq	a3,a5,7348 <_malloc_r+0x624>
    717c:	0047a703          	lw	a4,4(a5)
    7180:	ffc77713          	andi	a4,a4,-4
    7184:	00e57663          	bgeu	a0,a4,7190 <_malloc_r+0x46c>
    7188:	0087a783          	lw	a5,8(a5)
    718c:	fef698e3          	bne	a3,a5,717c <_malloc_r+0x458>
    7190:	00c7a683          	lw	a3,12(a5)
    7194:	00492703          	lw	a4,4(s2)
    7198:	00d42623          	sw	a3,12(s0)
    719c:	00f42423          	sw	a5,8(s0)
    71a0:	0086a423          	sw	s0,8(a3)
    71a4:	0087a623          	sw	s0,12(a5)
    71a8:	d05ff06f          	j	6eac <_malloc_r+0x188>
    71ac:	01400713          	li	a4,20
    71b0:	12f77663          	bgeu	a4,a5,72dc <_malloc_r+0x5b8>
    71b4:	05400713          	li	a4,84
    71b8:	1ef76a63          	bltu	a4,a5,73ac <_malloc_r+0x688>
    71bc:	00c4d793          	srli	a5,s1,0xc
    71c0:	06f78613          	addi	a2,a5,111
    71c4:	06e78513          	addi	a0,a5,110
    71c8:	00361693          	slli	a3,a2,0x3
    71cc:	c35ff06f          	j	6e00 <_malloc_r+0xdc>
    71d0:	001e0e13          	addi	t3,t3,1
    71d4:	003e7793          	andi	a5,t3,3
    71d8:	00850513          	addi	a0,a0,8
    71dc:	10078e63          	beqz	a5,72f8 <_malloc_r+0x5d4>
    71e0:	00c52783          	lw	a5,12(a0)
    71e4:	d1dff06f          	j	6f00 <_malloc_r+0x1dc>
    71e8:	00842603          	lw	a2,8(s0)
    71ec:	0014e593          	ori	a1,s1,1
    71f0:	00b42223          	sw	a1,4(s0)
    71f4:	00f62623          	sw	a5,12(a2)
    71f8:	00c7a423          	sw	a2,8(a5)
    71fc:	009404b3          	add	s1,s0,s1
    7200:	00992a23          	sw	s1,20(s2)
    7204:	00992823          	sw	s1,16(s2)
    7208:	0016e793          	ori	a5,a3,1
    720c:	0114a623          	sw	a7,12(s1)
    7210:	0114a423          	sw	a7,8(s1)
    7214:	00f4a223          	sw	a5,4(s1)
    7218:	00e40733          	add	a4,s0,a4
    721c:	00098513          	mv	a0,s3
    7220:	00d72023          	sw	a3,0(a4)
    7224:	3e0000ef          	jal	ra,7604 <__malloc_unlock>
    7228:	00840513          	addi	a0,s0,8
    722c:	d2dff06f          	j	6f58 <_malloc_r+0x234>
    7230:	0034d613          	srli	a2,s1,0x3
    7234:	00848793          	addi	a5,s1,8
    7238:	b45ff06f          	j	6d7c <_malloc_r+0x58>
    723c:	00a40733          	add	a4,s0,a0
    7240:	00472783          	lw	a5,4(a4)
    7244:	00098513          	mv	a0,s3
    7248:	0017e793          	ori	a5,a5,1
    724c:	00f72223          	sw	a5,4(a4)
    7250:	3b4000ef          	jal	ra,7604 <__malloc_unlock>
    7254:	00840513          	addi	a0,s0,8
    7258:	d01ff06f          	j	6f58 <_malloc_r+0x234>
    725c:	0014e713          	ori	a4,s1,1
    7260:	00e42223          	sw	a4,4(s0)
    7264:	009404b3          	add	s1,s0,s1
    7268:	00992a23          	sw	s1,20(s2)
    726c:	00992823          	sw	s1,16(s2)
    7270:	0017e713          	ori	a4,a5,1
    7274:	0114a623          	sw	a7,12(s1)
    7278:	0114a423          	sw	a7,8(s1)
    727c:	00e4a223          	sw	a4,4(s1)
    7280:	00a40533          	add	a0,s0,a0
    7284:	00f52023          	sw	a5,0(a0)
    7288:	00098513          	mv	a0,s3
    728c:	378000ef          	jal	ra,7604 <__malloc_unlock>
    7290:	00840513          	addi	a0,s0,8
    7294:	cc5ff06f          	j	6f58 <_malloc_r+0x234>
    7298:	00655793          	srli	a5,a0,0x6
    729c:	03978693          	addi	a3,a5,57
    72a0:	03878593          	addi	a1,a5,56
    72a4:	00369693          	slli	a3,a3,0x3
    72a8:	ec5ff06f          	j	716c <_malloc_r+0x448>
    72ac:	11240e63          	beq	s0,s2,73c8 <_malloc_r+0x6a4>
    72b0:	00892403          	lw	s0,8(s2)
    72b4:	00442a83          	lw	s5,4(s0)
    72b8:	ffcafa93          	andi	s5,s5,-4
    72bc:	409a87b3          	sub	a5,s5,s1
    72c0:	009ae663          	bltu	s5,s1,72cc <_malloc_r+0x5a8>
    72c4:	00f00713          	li	a4,15
    72c8:	e4f748e3          	blt	a4,a5,7118 <_malloc_r+0x3f4>
    72cc:	00098513          	mv	a0,s3
    72d0:	334000ef          	jal	ra,7604 <__malloc_unlock>
    72d4:	00000513          	li	a0,0
    72d8:	c81ff06f          	j	6f58 <_malloc_r+0x234>
    72dc:	05c78613          	addi	a2,a5,92
    72e0:	05b78513          	addi	a0,a5,91
    72e4:	00361693          	slli	a3,a2,0x3
    72e8:	b19ff06f          	j	6e00 <_malloc_r+0xdc>
    72ec:	00832783          	lw	a5,8(t1)
    72f0:	fff60613          	addi	a2,a2,-1
    72f4:	1c679063          	bne	a5,t1,74b4 <_malloc_r+0x790>
    72f8:	00367793          	andi	a5,a2,3
    72fc:	ff830313          	addi	t1,t1,-8
    7300:	fe0796e3          	bnez	a5,72ec <_malloc_r+0x5c8>
    7304:	00492703          	lw	a4,4(s2)
    7308:	fff5c793          	not	a5,a1
    730c:	00e7f7b3          	and	a5,a5,a4
    7310:	00f92223          	sw	a5,4(s2)
    7314:	00159593          	slli	a1,a1,0x1
    7318:	cab7e8e3          	bltu	a5,a1,6fc8 <_malloc_r+0x2a4>
    731c:	ca0586e3          	beqz	a1,6fc8 <_malloc_r+0x2a4>
    7320:	00f5f733          	and	a4,a1,a5
    7324:	00071a63          	bnez	a4,7338 <_malloc_r+0x614>
    7328:	00159593          	slli	a1,a1,0x1
    732c:	00f5f733          	and	a4,a1,a5
    7330:	004e0e13          	addi	t3,t3,4
    7334:	fe070ae3          	beqz	a4,7328 <_malloc_r+0x604>
    7338:	000e0613          	mv	a2,t3
    733c:	bb1ff06f          	j	6eec <_malloc_r+0x1c8>
    7340:	010a8a93          	addi	s5,s5,16 # fffff010 <//.+0xfffe9098>
    7344:	ccdff06f          	j	7010 <_malloc_r+0x2ec>
    7348:	00492503          	lw	a0,4(s2)
    734c:	4025d593          	srai	a1,a1,0x2
    7350:	00100713          	li	a4,1
    7354:	00b71733          	sll	a4,a4,a1
    7358:	00a76733          	or	a4,a4,a0
    735c:	00e92223          	sw	a4,4(s2)
    7360:	e39ff06f          	j	7198 <_malloc_r+0x474>
    7364:	015b85b3          	add	a1,s7,s5
    7368:	40b005b3          	neg	a1,a1
    736c:	01459a13          	slli	s4,a1,0x14
    7370:	014a5a13          	srli	s4,s4,0x14
    7374:	000a0593          	mv	a1,s4
    7378:	00098513          	mv	a0,s3
    737c:	404010ef          	jal	ra,8780 <_sbrk_r>
    7380:	fff00793          	li	a5,-1
    7384:	d0f51ce3          	bne	a0,a5,709c <_malloc_r+0x378>
    7388:	00000a13          	li	s4,0
    738c:	d19ff06f          	j	70a4 <_malloc_r+0x380>
    7390:	05400713          	li	a4,84
    7394:	08f76063          	bltu	a4,a5,7414 <_malloc_r+0x6f0>
    7398:	00c55793          	srli	a5,a0,0xc
    739c:	06f78693          	addi	a3,a5,111
    73a0:	06e78593          	addi	a1,a5,110
    73a4:	00369693          	slli	a3,a3,0x3
    73a8:	dc5ff06f          	j	716c <_malloc_r+0x448>
    73ac:	15400713          	li	a4,340
    73b0:	08f76063          	bltu	a4,a5,7430 <_malloc_r+0x70c>
    73b4:	00f4d793          	srli	a5,s1,0xf
    73b8:	07878613          	addi	a2,a5,120
    73bc:	07778513          	addi	a0,a5,119
    73c0:	00361693          	slli	a3,a2,0x3
    73c4:	a3dff06f          	j	6e00 <_malloc_r+0xdc>
    73c8:	21418c13          	addi	s8,gp,532 # 15acc <__malloc_current_mallinfo>
    73cc:	000c2783          	lw	a5,0(s8)
    73d0:	00fa87b3          	add	a5,s5,a5
    73d4:	00fc2023          	sw	a5,0(s8)
    73d8:	c6dff06f          	j	7044 <_malloc_r+0x320>
    73dc:	014a1713          	slli	a4,s4,0x14
    73e0:	c60712e3          	bnez	a4,7044 <_malloc_r+0x320>
    73e4:	00892403          	lw	s0,8(s2)
    73e8:	015b0ab3          	add	s5,s6,s5
    73ec:	001aea93          	ori	s5,s5,1
    73f0:	01542223          	sw	s5,4(s0)
    73f4:	d09ff06f          	j	70fc <_malloc_r+0x3d8>
    73f8:	1d71ae23          	sw	s7,476(gp) # 15a94 <__malloc_sbrk_base>
    73fc:	c61ff06f          	j	705c <_malloc_r+0x338>
    7400:	000b8413          	mv	s0,s7
    7404:	cf9ff06f          	j	70fc <_malloc_r+0x3d8>
    7408:	00100793          	li	a5,1
    740c:	00fba223          	sw	a5,4(s7)
    7410:	ebdff06f          	j	72cc <_malloc_r+0x5a8>
    7414:	15400713          	li	a4,340
    7418:	06f76263          	bltu	a4,a5,747c <_malloc_r+0x758>
    741c:	00f55793          	srli	a5,a0,0xf
    7420:	07878693          	addi	a3,a5,120
    7424:	07778593          	addi	a1,a5,119
    7428:	00369693          	slli	a3,a3,0x3
    742c:	d41ff06f          	j	716c <_malloc_r+0x448>
    7430:	55400713          	li	a4,1364
    7434:	06f76263          	bltu	a4,a5,7498 <_malloc_r+0x774>
    7438:	0124d793          	srli	a5,s1,0x12
    743c:	07d78613          	addi	a2,a5,125
    7440:	07c78513          	addi	a0,a5,124
    7444:	00361693          	slli	a3,a2,0x3
    7448:	9b9ff06f          	j	6e00 <_malloc_r+0xdc>
    744c:	ff8c8c93          	addi	s9,s9,-8
    7450:	019a8ab3          	add	s5,s5,s9
    7454:	417a8ab3          	sub	s5,s5,s7
    7458:	00000a13          	li	s4,0
    745c:	c49ff06f          	j	70a4 <_malloc_r+0x380>
    7460:	00840593          	addi	a1,s0,8
    7464:	00098513          	mv	a0,s3
    7468:	ec4fc0ef          	jal	ra,3b2c <_free_r>
    746c:	00892403          	lw	s0,8(s2)
    7470:	000c2583          	lw	a1,0(s8)
    7474:	00442a83          	lw	s5,4(s0)
    7478:	c85ff06f          	j	70fc <_malloc_r+0x3d8>
    747c:	55400713          	li	a4,1364
    7480:	02f76463          	bltu	a4,a5,74a8 <_malloc_r+0x784>
    7484:	01255793          	srli	a5,a0,0x12
    7488:	07d78693          	addi	a3,a5,125
    748c:	07c78593          	addi	a1,a5,124
    7490:	00369693          	slli	a3,a3,0x3
    7494:	cd9ff06f          	j	716c <_malloc_r+0x448>
    7498:	3f800693          	li	a3,1016
    749c:	07f00613          	li	a2,127
    74a0:	07e00513          	li	a0,126
    74a4:	95dff06f          	j	6e00 <_malloc_r+0xdc>
    74a8:	3f800693          	li	a3,1016
    74ac:	07e00593          	li	a1,126
    74b0:	cbdff06f          	j	716c <_malloc_r+0x448>
    74b4:	00492783          	lw	a5,4(s2)
    74b8:	e5dff06f          	j	7314 <_malloc_r+0x5f0>

000074bc <_mbtowc_r>:
    74bc:	d241a303          	lw	t1,-732(gp) # 155dc <__global_locale+0xe4>
    74c0:	00030067          	jr	t1

000074c4 <__ascii_mbtowc>:
    74c4:	02058063          	beqz	a1,74e4 <__ascii_mbtowc+0x20>
    74c8:	04060263          	beqz	a2,750c <__ascii_mbtowc+0x48>
    74cc:	04068863          	beqz	a3,751c <__ascii_mbtowc+0x58>
    74d0:	00064783          	lbu	a5,0(a2)
    74d4:	00f5a023          	sw	a5,0(a1)
    74d8:	00064503          	lbu	a0,0(a2)
    74dc:	00a03533          	snez	a0,a0
    74e0:	00008067          	ret
    74e4:	ff010113          	addi	sp,sp,-16
    74e8:	00c10593          	addi	a1,sp,12
    74ec:	02060463          	beqz	a2,7514 <__ascii_mbtowc+0x50>
    74f0:	02068a63          	beqz	a3,7524 <__ascii_mbtowc+0x60>
    74f4:	00064783          	lbu	a5,0(a2)
    74f8:	00f5a023          	sw	a5,0(a1)
    74fc:	00064503          	lbu	a0,0(a2)
    7500:	00a03533          	snez	a0,a0
    7504:	01010113          	addi	sp,sp,16
    7508:	00008067          	ret
    750c:	00000513          	li	a0,0
    7510:	00008067          	ret
    7514:	00000513          	li	a0,0
    7518:	fedff06f          	j	7504 <__ascii_mbtowc+0x40>
    751c:	ffe00513          	li	a0,-2
    7520:	00008067          	ret
    7524:	ffe00513          	li	a0,-2
    7528:	fddff06f          	j	7504 <__ascii_mbtowc+0x40>

0000752c <memchr>:
    752c:	00357793          	andi	a5,a0,3
    7530:	0ff5f693          	andi	a3,a1,255
    7534:	02078a63          	beqz	a5,7568 <memchr+0x3c>
    7538:	fff60793          	addi	a5,a2,-1
    753c:	02060e63          	beqz	a2,7578 <memchr+0x4c>
    7540:	fff00613          	li	a2,-1
    7544:	0180006f          	j	755c <memchr+0x30>
    7548:	00150513          	addi	a0,a0,1
    754c:	00357713          	andi	a4,a0,3
    7550:	00070e63          	beqz	a4,756c <memchr+0x40>
    7554:	fff78793          	addi	a5,a5,-1
    7558:	02c78063          	beq	a5,a2,7578 <memchr+0x4c>
    755c:	00054703          	lbu	a4,0(a0)
    7560:	fed714e3          	bne	a4,a3,7548 <memchr+0x1c>
    7564:	00008067          	ret
    7568:	00060793          	mv	a5,a2
    756c:	00300713          	li	a4,3
    7570:	02f76663          	bltu	a4,a5,759c <memchr+0x70>
    7574:	00079663          	bnez	a5,7580 <memchr+0x54>
    7578:	00000513          	li	a0,0
    757c:	00008067          	ret
    7580:	00f507b3          	add	a5,a0,a5
    7584:	00c0006f          	j	7590 <memchr+0x64>
    7588:	00150513          	addi	a0,a0,1
    758c:	fea786e3          	beq	a5,a0,7578 <memchr+0x4c>
    7590:	00054703          	lbu	a4,0(a0)
    7594:	fed71ae3          	bne	a4,a3,7588 <memchr+0x5c>
    7598:	00008067          	ret
    759c:	00010737          	lui	a4,0x10
    75a0:	00859893          	slli	a7,a1,0x8
    75a4:	fff70713          	addi	a4,a4,-1 # ffff <__udivdi3+0x2c7>
    75a8:	00e8f8b3          	and	a7,a7,a4
    75ac:	0ff5f593          	andi	a1,a1,255
    75b0:	00b8e5b3          	or	a1,a7,a1
    75b4:	01059893          	slli	a7,a1,0x10
    75b8:	00b8e8b3          	or	a7,a7,a1
    75bc:	feff0837          	lui	a6,0xfeff0
    75c0:	808085b7          	lui	a1,0x80808
    75c4:	eff80813          	addi	a6,a6,-257 # fefefeff <//.+0xfefd9f87>
    75c8:	08058593          	addi	a1,a1,128 # 80808080 <//.+0x807f2108>
    75cc:	00300313          	li	t1,3
    75d0:	00052703          	lw	a4,0(a0)
    75d4:	00e8c733          	xor	a4,a7,a4
    75d8:	01070633          	add	a2,a4,a6
    75dc:	fff74713          	not	a4,a4
    75e0:	00e67733          	and	a4,a2,a4
    75e4:	00b77733          	and	a4,a4,a1
    75e8:	f8071ce3          	bnez	a4,7580 <memchr+0x54>
    75ec:	ffc78793          	addi	a5,a5,-4
    75f0:	00450513          	addi	a0,a0,4
    75f4:	fcf36ee3          	bltu	t1,a5,75d0 <memchr+0xa4>
    75f8:	f80794e3          	bnez	a5,7580 <memchr+0x54>
    75fc:	f7dff06f          	j	7578 <memchr+0x4c>

00007600 <__malloc_lock>:
    7600:	00008067          	ret

00007604 <__malloc_unlock>:
    7604:	00008067          	ret

00007608 <_Balloc>:
    7608:	04c52783          	lw	a5,76(a0)
    760c:	ff010113          	addi	sp,sp,-16
    7610:	00812423          	sw	s0,8(sp)
    7614:	00912223          	sw	s1,4(sp)
    7618:	00112623          	sw	ra,12(sp)
    761c:	01212023          	sw	s2,0(sp)
    7620:	00050413          	mv	s0,a0
    7624:	00058493          	mv	s1,a1
    7628:	02078e63          	beqz	a5,7664 <_Balloc+0x5c>
    762c:	00249513          	slli	a0,s1,0x2
    7630:	00a787b3          	add	a5,a5,a0
    7634:	0007a503          	lw	a0,0(a5)
    7638:	04050663          	beqz	a0,7684 <_Balloc+0x7c>
    763c:	00052703          	lw	a4,0(a0)
    7640:	00e7a023          	sw	a4,0(a5)
    7644:	00052823          	sw	zero,16(a0)
    7648:	00052623          	sw	zero,12(a0)
    764c:	00c12083          	lw	ra,12(sp)
    7650:	00812403          	lw	s0,8(sp)
    7654:	00412483          	lw	s1,4(sp)
    7658:	00012903          	lw	s2,0(sp)
    765c:	01010113          	addi	sp,sp,16
    7660:	00008067          	ret
    7664:	02100613          	li	a2,33
    7668:	00400593          	li	a1,4
    766c:	68c050ef          	jal	ra,ccf8 <_calloc_r>
    7670:	04a42623          	sw	a0,76(s0)
    7674:	00050793          	mv	a5,a0
    7678:	fa051ae3          	bnez	a0,762c <_Balloc+0x24>
    767c:	00000513          	li	a0,0
    7680:	fcdff06f          	j	764c <_Balloc+0x44>
    7684:	00100913          	li	s2,1
    7688:	00991933          	sll	s2,s2,s1
    768c:	00590613          	addi	a2,s2,5
    7690:	00261613          	slli	a2,a2,0x2
    7694:	00100593          	li	a1,1
    7698:	00040513          	mv	a0,s0
    769c:	65c050ef          	jal	ra,ccf8 <_calloc_r>
    76a0:	fc050ee3          	beqz	a0,767c <_Balloc+0x74>
    76a4:	00952223          	sw	s1,4(a0)
    76a8:	01252423          	sw	s2,8(a0)
    76ac:	f99ff06f          	j	7644 <_Balloc+0x3c>

000076b0 <_Bfree>:
    76b0:	02058063          	beqz	a1,76d0 <_Bfree+0x20>
    76b4:	0045a703          	lw	a4,4(a1)
    76b8:	04c52783          	lw	a5,76(a0)
    76bc:	00271713          	slli	a4,a4,0x2
    76c0:	00e787b3          	add	a5,a5,a4
    76c4:	0007a703          	lw	a4,0(a5)
    76c8:	00e5a023          	sw	a4,0(a1)
    76cc:	00b7a023          	sw	a1,0(a5)
    76d0:	00008067          	ret

000076d4 <__multadd>:
    76d4:	fe010113          	addi	sp,sp,-32
    76d8:	00912a23          	sw	s1,20(sp)
    76dc:	0105a483          	lw	s1,16(a1)
    76e0:	00010337          	lui	t1,0x10
    76e4:	00812c23          	sw	s0,24(sp)
    76e8:	01212823          	sw	s2,16(sp)
    76ec:	01312623          	sw	s3,12(sp)
    76f0:	00112e23          	sw	ra,28(sp)
    76f4:	01412423          	sw	s4,8(sp)
    76f8:	00058913          	mv	s2,a1
    76fc:	00050993          	mv	s3,a0
    7700:	00068413          	mv	s0,a3
    7704:	01458813          	addi	a6,a1,20
    7708:	00000893          	li	a7,0
    770c:	fff30313          	addi	t1,t1,-1 # ffff <__udivdi3+0x2c7>
    7710:	00082783          	lw	a5,0(a6)
    7714:	00480813          	addi	a6,a6,4
    7718:	00188893          	addi	a7,a7,1
    771c:	0067f6b3          	and	a3,a5,t1
    7720:	02c686b3          	mul	a3,a3,a2
    7724:	0107d793          	srli	a5,a5,0x10
    7728:	02c787b3          	mul	a5,a5,a2
    772c:	008686b3          	add	a3,a3,s0
    7730:	0106de13          	srli	t3,a3,0x10
    7734:	0066f733          	and	a4,a3,t1
    7738:	01c786b3          	add	a3,a5,t3
    773c:	01069793          	slli	a5,a3,0x10
    7740:	00e78733          	add	a4,a5,a4
    7744:	fee82e23          	sw	a4,-4(a6)
    7748:	0106d413          	srli	s0,a3,0x10
    774c:	fc98c2e3          	blt	a7,s1,7710 <__multadd+0x3c>
    7750:	02040263          	beqz	s0,7774 <__multadd+0xa0>
    7754:	00892783          	lw	a5,8(s2)
    7758:	04f4d063          	bge	s1,a5,7798 <__multadd+0xc4>
    775c:	00448793          	addi	a5,s1,4
    7760:	00279793          	slli	a5,a5,0x2
    7764:	00f907b3          	add	a5,s2,a5
    7768:	0087a223          	sw	s0,4(a5)
    776c:	00148493          	addi	s1,s1,1
    7770:	00992823          	sw	s1,16(s2)
    7774:	01c12083          	lw	ra,28(sp)
    7778:	01812403          	lw	s0,24(sp)
    777c:	01412483          	lw	s1,20(sp)
    7780:	00c12983          	lw	s3,12(sp)
    7784:	00812a03          	lw	s4,8(sp)
    7788:	00090513          	mv	a0,s2
    778c:	01012903          	lw	s2,16(sp)
    7790:	02010113          	addi	sp,sp,32
    7794:	00008067          	ret
    7798:	00492583          	lw	a1,4(s2)
    779c:	00098513          	mv	a0,s3
    77a0:	00158593          	addi	a1,a1,1
    77a4:	e65ff0ef          	jal	ra,7608 <_Balloc>
    77a8:	00050a13          	mv	s4,a0
    77ac:	04050c63          	beqz	a0,7804 <__multadd+0x130>
    77b0:	01092603          	lw	a2,16(s2)
    77b4:	00c90593          	addi	a1,s2,12
    77b8:	00c50513          	addi	a0,a0,12
    77bc:	00260613          	addi	a2,a2,2
    77c0:	00261613          	slli	a2,a2,0x2
    77c4:	775050ef          	jal	ra,d738 <memcpy>
    77c8:	00492703          	lw	a4,4(s2)
    77cc:	04c9a783          	lw	a5,76(s3)
    77d0:	00271713          	slli	a4,a4,0x2
    77d4:	00e787b3          	add	a5,a5,a4
    77d8:	0007a703          	lw	a4,0(a5)
    77dc:	00e92023          	sw	a4,0(s2)
    77e0:	0127a023          	sw	s2,0(a5)
    77e4:	00448793          	addi	a5,s1,4
    77e8:	000a0913          	mv	s2,s4
    77ec:	00279793          	slli	a5,a5,0x2
    77f0:	00f907b3          	add	a5,s2,a5
    77f4:	0087a223          	sw	s0,4(a5)
    77f8:	00148493          	addi	s1,s1,1
    77fc:	00992823          	sw	s1,16(s2)
    7800:	f75ff06f          	j	7774 <__multadd+0xa0>
    7804:	000146b7          	lui	a3,0x14
    7808:	00014537          	lui	a0,0x14
    780c:	49c68693          	addi	a3,a3,1180 # 1449c <zeroes.4486+0x38>
    7810:	00000613          	li	a2,0
    7814:	0b500593          	li	a1,181
    7818:	75c50513          	addi	a0,a0,1884 # 1475c <bmask+0x34>
    781c:	460050ef          	jal	ra,cc7c <__assert_func>

00007820 <__s2b>:
    7820:	fe010113          	addi	sp,sp,-32
    7824:	00812c23          	sw	s0,24(sp)
    7828:	00912a23          	sw	s1,20(sp)
    782c:	01212823          	sw	s2,16(sp)
    7830:	01312623          	sw	s3,12(sp)
    7834:	01412423          	sw	s4,8(sp)
    7838:	00868813          	addi	a6,a3,8
    783c:	00900793          	li	a5,9
    7840:	00112e23          	sw	ra,28(sp)
    7844:	01512223          	sw	s5,4(sp)
    7848:	02f84833          	div	a6,a6,a5
    784c:	00068993          	mv	s3,a3
    7850:	00050913          	mv	s2,a0
    7854:	00058413          	mv	s0,a1
    7858:	00060a13          	mv	s4,a2
    785c:	00070493          	mv	s1,a4
    7860:	0cd7d863          	bge	a5,a3,7930 <__s2b+0x110>
    7864:	00100793          	li	a5,1
    7868:	00000593          	li	a1,0
    786c:	00179793          	slli	a5,a5,0x1
    7870:	00158593          	addi	a1,a1,1
    7874:	ff07cce3          	blt	a5,a6,786c <__s2b+0x4c>
    7878:	00090513          	mv	a0,s2
    787c:	d8dff0ef          	jal	ra,7608 <_Balloc>
    7880:	00050593          	mv	a1,a0
    7884:	0a050a63          	beqz	a0,7938 <__s2b+0x118>
    7888:	00100793          	li	a5,1
    788c:	00f52823          	sw	a5,16(a0)
    7890:	00952a23          	sw	s1,20(a0)
    7894:	00900793          	li	a5,9
    7898:	0947d663          	bge	a5,s4,7924 <__s2b+0x104>
    789c:	00940a93          	addi	s5,s0,9
    78a0:	000a8493          	mv	s1,s5
    78a4:	01440433          	add	s0,s0,s4
    78a8:	0004c683          	lbu	a3,0(s1)
    78ac:	00a00613          	li	a2,10
    78b0:	00090513          	mv	a0,s2
    78b4:	fd068693          	addi	a3,a3,-48
    78b8:	e1dff0ef          	jal	ra,76d4 <__multadd>
    78bc:	00148493          	addi	s1,s1,1
    78c0:	00050593          	mv	a1,a0
    78c4:	fe8492e3          	bne	s1,s0,78a8 <__s2b+0x88>
    78c8:	ff8a0413          	addi	s0,s4,-8
    78cc:	008a8433          	add	s0,s5,s0
    78d0:	033a5663          	bge	s4,s3,78fc <__s2b+0xdc>
    78d4:	414989b3          	sub	s3,s3,s4
    78d8:	013409b3          	add	s3,s0,s3
    78dc:	00044683          	lbu	a3,0(s0)
    78e0:	00a00613          	li	a2,10
    78e4:	00090513          	mv	a0,s2
    78e8:	fd068693          	addi	a3,a3,-48
    78ec:	de9ff0ef          	jal	ra,76d4 <__multadd>
    78f0:	00140413          	addi	s0,s0,1
    78f4:	00050593          	mv	a1,a0
    78f8:	fe8992e3          	bne	s3,s0,78dc <__s2b+0xbc>
    78fc:	01c12083          	lw	ra,28(sp)
    7900:	01812403          	lw	s0,24(sp)
    7904:	01412483          	lw	s1,20(sp)
    7908:	01012903          	lw	s2,16(sp)
    790c:	00c12983          	lw	s3,12(sp)
    7910:	00812a03          	lw	s4,8(sp)
    7914:	00412a83          	lw	s5,4(sp)
    7918:	00058513          	mv	a0,a1
    791c:	02010113          	addi	sp,sp,32
    7920:	00008067          	ret
    7924:	00a40413          	addi	s0,s0,10
    7928:	00900a13          	li	s4,9
    792c:	fa5ff06f          	j	78d0 <__s2b+0xb0>
    7930:	00000593          	li	a1,0
    7934:	f45ff06f          	j	7878 <__s2b+0x58>
    7938:	000146b7          	lui	a3,0x14
    793c:	00014537          	lui	a0,0x14
    7940:	49c68693          	addi	a3,a3,1180 # 1449c <zeroes.4486+0x38>
    7944:	00000613          	li	a2,0
    7948:	0ce00593          	li	a1,206
    794c:	75c50513          	addi	a0,a0,1884 # 1475c <bmask+0x34>
    7950:	32c050ef          	jal	ra,cc7c <__assert_func>

00007954 <__hi0bits>:
    7954:	ffff0737          	lui	a4,0xffff0
    7958:	00e57733          	and	a4,a0,a4
    795c:	00050793          	mv	a5,a0
    7960:	00000513          	li	a0,0
    7964:	00071663          	bnez	a4,7970 <__hi0bits+0x1c>
    7968:	01079793          	slli	a5,a5,0x10
    796c:	01000513          	li	a0,16
    7970:	ff000737          	lui	a4,0xff000
    7974:	00e7f733          	and	a4,a5,a4
    7978:	00071663          	bnez	a4,7984 <__hi0bits+0x30>
    797c:	00850513          	addi	a0,a0,8
    7980:	00879793          	slli	a5,a5,0x8
    7984:	f0000737          	lui	a4,0xf0000
    7988:	00e7f733          	and	a4,a5,a4
    798c:	00071663          	bnez	a4,7998 <__hi0bits+0x44>
    7990:	00450513          	addi	a0,a0,4
    7994:	00479793          	slli	a5,a5,0x4
    7998:	c0000737          	lui	a4,0xc0000
    799c:	00e7f733          	and	a4,a5,a4
    79a0:	00071663          	bnez	a4,79ac <__hi0bits+0x58>
    79a4:	00250513          	addi	a0,a0,2
    79a8:	00279793          	slli	a5,a5,0x2
    79ac:	0007c863          	bltz	a5,79bc <__hi0bits+0x68>
    79b0:	00179713          	slli	a4,a5,0x1
    79b4:	00150513          	addi	a0,a0,1
    79b8:	00075463          	bgez	a4,79c0 <__hi0bits+0x6c>
    79bc:	00008067          	ret
    79c0:	02000513          	li	a0,32
    79c4:	00008067          	ret

000079c8 <__lo0bits>:
    79c8:	00052783          	lw	a5,0(a0)
    79cc:	00050713          	mv	a4,a0
    79d0:	0077f693          	andi	a3,a5,7
    79d4:	02068463          	beqz	a3,79fc <__lo0bits+0x34>
    79d8:	0017f693          	andi	a3,a5,1
    79dc:	00000513          	li	a0,0
    79e0:	04069e63          	bnez	a3,7a3c <__lo0bits+0x74>
    79e4:	0027f693          	andi	a3,a5,2
    79e8:	0a068863          	beqz	a3,7a98 <__lo0bits+0xd0>
    79ec:	0017d793          	srli	a5,a5,0x1
    79f0:	00f72023          	sw	a5,0(a4) # c0000000 <//.+0xbffea088>
    79f4:	00100513          	li	a0,1
    79f8:	00008067          	ret
    79fc:	01079693          	slli	a3,a5,0x10
    7a00:	0106d693          	srli	a3,a3,0x10
    7a04:	00000513          	li	a0,0
    7a08:	06068e63          	beqz	a3,7a84 <__lo0bits+0xbc>
    7a0c:	0ff7f693          	andi	a3,a5,255
    7a10:	06068063          	beqz	a3,7a70 <__lo0bits+0xa8>
    7a14:	00f7f693          	andi	a3,a5,15
    7a18:	04068263          	beqz	a3,7a5c <__lo0bits+0x94>
    7a1c:	0037f693          	andi	a3,a5,3
    7a20:	02068463          	beqz	a3,7a48 <__lo0bits+0x80>
    7a24:	0017f693          	andi	a3,a5,1
    7a28:	00069c63          	bnez	a3,7a40 <__lo0bits+0x78>
    7a2c:	0017d793          	srli	a5,a5,0x1
    7a30:	00150513          	addi	a0,a0,1
    7a34:	00079663          	bnez	a5,7a40 <__lo0bits+0x78>
    7a38:	02000513          	li	a0,32
    7a3c:	00008067          	ret
    7a40:	00f72023          	sw	a5,0(a4)
    7a44:	00008067          	ret
    7a48:	0027d793          	srli	a5,a5,0x2
    7a4c:	0017f693          	andi	a3,a5,1
    7a50:	00250513          	addi	a0,a0,2
    7a54:	fe0696e3          	bnez	a3,7a40 <__lo0bits+0x78>
    7a58:	fd5ff06f          	j	7a2c <__lo0bits+0x64>
    7a5c:	0047d793          	srli	a5,a5,0x4
    7a60:	0037f693          	andi	a3,a5,3
    7a64:	00450513          	addi	a0,a0,4
    7a68:	fa069ee3          	bnez	a3,7a24 <__lo0bits+0x5c>
    7a6c:	fddff06f          	j	7a48 <__lo0bits+0x80>
    7a70:	0087d793          	srli	a5,a5,0x8
    7a74:	00f7f693          	andi	a3,a5,15
    7a78:	00850513          	addi	a0,a0,8
    7a7c:	fa0690e3          	bnez	a3,7a1c <__lo0bits+0x54>
    7a80:	fddff06f          	j	7a5c <__lo0bits+0x94>
    7a84:	0107d793          	srli	a5,a5,0x10
    7a88:	0ff7f693          	andi	a3,a5,255
    7a8c:	01000513          	li	a0,16
    7a90:	f80692e3          	bnez	a3,7a14 <__lo0bits+0x4c>
    7a94:	fddff06f          	j	7a70 <__lo0bits+0xa8>
    7a98:	0027d793          	srli	a5,a5,0x2
    7a9c:	00f72023          	sw	a5,0(a4)
    7aa0:	00200513          	li	a0,2
    7aa4:	00008067          	ret

00007aa8 <__i2b>:
    7aa8:	ff010113          	addi	sp,sp,-16
    7aac:	00812423          	sw	s0,8(sp)
    7ab0:	00058413          	mv	s0,a1
    7ab4:	00100593          	li	a1,1
    7ab8:	00112623          	sw	ra,12(sp)
    7abc:	b4dff0ef          	jal	ra,7608 <_Balloc>
    7ac0:	02050063          	beqz	a0,7ae0 <__i2b+0x38>
    7ac4:	00c12083          	lw	ra,12(sp)
    7ac8:	00852a23          	sw	s0,20(a0)
    7acc:	00812403          	lw	s0,8(sp)
    7ad0:	00100713          	li	a4,1
    7ad4:	00e52823          	sw	a4,16(a0)
    7ad8:	01010113          	addi	sp,sp,16
    7adc:	00008067          	ret
    7ae0:	000146b7          	lui	a3,0x14
    7ae4:	00014537          	lui	a0,0x14
    7ae8:	49c68693          	addi	a3,a3,1180 # 1449c <zeroes.4486+0x38>
    7aec:	00000613          	li	a2,0
    7af0:	14000593          	li	a1,320
    7af4:	75c50513          	addi	a0,a0,1884 # 1475c <bmask+0x34>
    7af8:	184050ef          	jal	ra,cc7c <__assert_func>

00007afc <__multiply>:
    7afc:	fe010113          	addi	sp,sp,-32
    7b00:	01212823          	sw	s2,16(sp)
    7b04:	01312623          	sw	s3,12(sp)
    7b08:	0105a903          	lw	s2,16(a1)
    7b0c:	01062983          	lw	s3,16(a2)
    7b10:	00912a23          	sw	s1,20(sp)
    7b14:	01412423          	sw	s4,8(sp)
    7b18:	00112e23          	sw	ra,28(sp)
    7b1c:	00812c23          	sw	s0,24(sp)
    7b20:	00058a13          	mv	s4,a1
    7b24:	00060493          	mv	s1,a2
    7b28:	01394c63          	blt	s2,s3,7b40 <__multiply+0x44>
    7b2c:	00098713          	mv	a4,s3
    7b30:	00058493          	mv	s1,a1
    7b34:	00090993          	mv	s3,s2
    7b38:	00060a13          	mv	s4,a2
    7b3c:	00070913          	mv	s2,a4
    7b40:	0084a783          	lw	a5,8(s1)
    7b44:	0044a583          	lw	a1,4(s1)
    7b48:	01298433          	add	s0,s3,s2
    7b4c:	0087a7b3          	slt	a5,a5,s0
    7b50:	00f585b3          	add	a1,a1,a5
    7b54:	ab5ff0ef          	jal	ra,7608 <_Balloc>
    7b58:	1a050c63          	beqz	a0,7d10 <__multiply+0x214>
    7b5c:	01450313          	addi	t1,a0,20
    7b60:	00241893          	slli	a7,s0,0x2
    7b64:	011308b3          	add	a7,t1,a7
    7b68:	00030793          	mv	a5,t1
    7b6c:	01137863          	bgeu	t1,a7,7b7c <__multiply+0x80>
    7b70:	0007a023          	sw	zero,0(a5)
    7b74:	00478793          	addi	a5,a5,4
    7b78:	ff17ece3          	bltu	a5,a7,7b70 <__multiply+0x74>
    7b7c:	014a0813          	addi	a6,s4,20
    7b80:	00291e13          	slli	t3,s2,0x2
    7b84:	01448e93          	addi	t4,s1,20
    7b88:	00299593          	slli	a1,s3,0x2
    7b8c:	01c80e33          	add	t3,a6,t3
    7b90:	00be85b3          	add	a1,t4,a1
    7b94:	0bc87c63          	bgeu	a6,t3,7c4c <__multiply+0x150>
    7b98:	01548793          	addi	a5,s1,21
    7b9c:	00400f13          	li	t5,4
    7ba0:	14f5fe63          	bgeu	a1,a5,7cfc <__multiply+0x200>
    7ba4:	00010637          	lui	a2,0x10
    7ba8:	fff60613          	addi	a2,a2,-1 # ffff <__udivdi3+0x2c7>
    7bac:	0100006f          	j	7bbc <__multiply+0xc0>
    7bb0:	00480813          	addi	a6,a6,4
    7bb4:	00430313          	addi	t1,t1,4
    7bb8:	09c87a63          	bgeu	a6,t3,7c4c <__multiply+0x150>
    7bbc:	00082f83          	lw	t6,0(a6)
    7bc0:	00cff4b3          	and	s1,t6,a2
    7bc4:	0c049463          	bnez	s1,7c8c <__multiply+0x190>
    7bc8:	010fdf93          	srli	t6,t6,0x10
    7bcc:	fe0f82e3          	beqz	t6,7bb0 <__multiply+0xb4>
    7bd0:	00032703          	lw	a4,0(t1)
    7bd4:	00030293          	mv	t0,t1
    7bd8:	000e8693          	mv	a3,t4
    7bdc:	00070493          	mv	s1,a4
    7be0:	00000393          	li	t2,0
    7be4:	0006a783          	lw	a5,0(a3)
    7be8:	0104d993          	srli	s3,s1,0x10
    7bec:	00c77733          	and	a4,a4,a2
    7bf0:	00c7f7b3          	and	a5,a5,a2
    7bf4:	03f787b3          	mul	a5,a5,t6
    7bf8:	0042a483          	lw	s1,4(t0) # 58c <memset+0xb8>
    7bfc:	00428293          	addi	t0,t0,4
    7c00:	00468693          	addi	a3,a3,4
    7c04:	00c4f933          	and	s2,s1,a2
    7c08:	013787b3          	add	a5,a5,s3
    7c0c:	007787b3          	add	a5,a5,t2
    7c10:	01079393          	slli	t2,a5,0x10
    7c14:	00e3e733          	or	a4,t2,a4
    7c18:	fee2ae23          	sw	a4,-4(t0)
    7c1c:	ffe6d703          	lhu	a4,-2(a3)
    7c20:	0107d793          	srli	a5,a5,0x10
    7c24:	03f70733          	mul	a4,a4,t6
    7c28:	01270733          	add	a4,a4,s2
    7c2c:	00f70733          	add	a4,a4,a5
    7c30:	01075393          	srli	t2,a4,0x10
    7c34:	fab6e8e3          	bltu	a3,a1,7be4 <__multiply+0xe8>
    7c38:	01e307b3          	add	a5,t1,t5
    7c3c:	00e7a023          	sw	a4,0(a5)
    7c40:	00480813          	addi	a6,a6,4
    7c44:	00430313          	addi	t1,t1,4
    7c48:	f7c86ae3          	bltu	a6,t3,7bbc <__multiply+0xc0>
    7c4c:	00804863          	bgtz	s0,7c5c <__multiply+0x160>
    7c50:	0180006f          	j	7c68 <__multiply+0x16c>
    7c54:	fff40413          	addi	s0,s0,-1
    7c58:	00040863          	beqz	s0,7c68 <__multiply+0x16c>
    7c5c:	ffc8a783          	lw	a5,-4(a7)
    7c60:	ffc88893          	addi	a7,a7,-4
    7c64:	fe0788e3          	beqz	a5,7c54 <__multiply+0x158>
    7c68:	01c12083          	lw	ra,28(sp)
    7c6c:	00852823          	sw	s0,16(a0)
    7c70:	01812403          	lw	s0,24(sp)
    7c74:	01412483          	lw	s1,20(sp)
    7c78:	01012903          	lw	s2,16(sp)
    7c7c:	00c12983          	lw	s3,12(sp)
    7c80:	00812a03          	lw	s4,8(sp)
    7c84:	02010113          	addi	sp,sp,32
    7c88:	00008067          	ret
    7c8c:	00030393          	mv	t2,t1
    7c90:	000e8293          	mv	t0,t4
    7c94:	00000913          	li	s2,0
    7c98:	0002a703          	lw	a4,0(t0)
    7c9c:	0003af83          	lw	t6,0(t2)
    7ca0:	00438393          	addi	t2,t2,4
    7ca4:	00c776b3          	and	a3,a4,a2
    7ca8:	029686b3          	mul	a3,a3,s1
    7cac:	01075793          	srli	a5,a4,0x10
    7cb0:	00cff733          	and	a4,t6,a2
    7cb4:	010fdf93          	srli	t6,t6,0x10
    7cb8:	00428293          	addi	t0,t0,4
    7cbc:	029787b3          	mul	a5,a5,s1
    7cc0:	00e686b3          	add	a3,a3,a4
    7cc4:	012686b3          	add	a3,a3,s2
    7cc8:	0106d713          	srli	a4,a3,0x10
    7ccc:	00c6f6b3          	and	a3,a3,a2
    7cd0:	01f787b3          	add	a5,a5,t6
    7cd4:	00e787b3          	add	a5,a5,a4
    7cd8:	01079713          	slli	a4,a5,0x10
    7cdc:	00d766b3          	or	a3,a4,a3
    7ce0:	fed3ae23          	sw	a3,-4(t2)
    7ce4:	0107d913          	srli	s2,a5,0x10
    7ce8:	fab2e8e3          	bltu	t0,a1,7c98 <__multiply+0x19c>
    7cec:	01e307b3          	add	a5,t1,t5
    7cf0:	0127a023          	sw	s2,0(a5)
    7cf4:	00082f83          	lw	t6,0(a6)
    7cf8:	ed1ff06f          	j	7bc8 <__multiply+0xcc>
    7cfc:	40958f33          	sub	t5,a1,s1
    7d00:	febf0f13          	addi	t5,t5,-21
    7d04:	ffcf7f13          	andi	t5,t5,-4
    7d08:	004f0f13          	addi	t5,t5,4
    7d0c:	e99ff06f          	j	7ba4 <__multiply+0xa8>
    7d10:	000146b7          	lui	a3,0x14
    7d14:	00014537          	lui	a0,0x14
    7d18:	49c68693          	addi	a3,a3,1180 # 1449c <zeroes.4486+0x38>
    7d1c:	00000613          	li	a2,0
    7d20:	15d00593          	li	a1,349
    7d24:	75c50513          	addi	a0,a0,1884 # 1475c <bmask+0x34>
    7d28:	755040ef          	jal	ra,cc7c <__assert_func>

00007d2c <__pow5mult>:
    7d2c:	fe010113          	addi	sp,sp,-32
    7d30:	00812c23          	sw	s0,24(sp)
    7d34:	01312623          	sw	s3,12(sp)
    7d38:	01412423          	sw	s4,8(sp)
    7d3c:	00112e23          	sw	ra,28(sp)
    7d40:	00912a23          	sw	s1,20(sp)
    7d44:	01212823          	sw	s2,16(sp)
    7d48:	00367793          	andi	a5,a2,3
    7d4c:	00060413          	mv	s0,a2
    7d50:	00050993          	mv	s3,a0
    7d54:	00058a13          	mv	s4,a1
    7d58:	0c079463          	bnez	a5,7e20 <__pow5mult+0xf4>
    7d5c:	40245413          	srai	s0,s0,0x2
    7d60:	000a0913          	mv	s2,s4
    7d64:	06040863          	beqz	s0,7dd4 <__pow5mult+0xa8>
    7d68:	0489a483          	lw	s1,72(s3)
    7d6c:	0c048e63          	beqz	s1,7e48 <__pow5mult+0x11c>
    7d70:	00147793          	andi	a5,s0,1
    7d74:	000a0913          	mv	s2,s4
    7d78:	02079063          	bnez	a5,7d98 <__pow5mult+0x6c>
    7d7c:	40145413          	srai	s0,s0,0x1
    7d80:	04040a63          	beqz	s0,7dd4 <__pow5mult+0xa8>
    7d84:	0004a503          	lw	a0,0(s1)
    7d88:	06050863          	beqz	a0,7df8 <__pow5mult+0xcc>
    7d8c:	00050493          	mv	s1,a0
    7d90:	00147793          	andi	a5,s0,1
    7d94:	fe0784e3          	beqz	a5,7d7c <__pow5mult+0x50>
    7d98:	00048613          	mv	a2,s1
    7d9c:	00090593          	mv	a1,s2
    7da0:	00098513          	mv	a0,s3
    7da4:	d59ff0ef          	jal	ra,7afc <__multiply>
    7da8:	06090863          	beqz	s2,7e18 <__pow5mult+0xec>
    7dac:	00492703          	lw	a4,4(s2)
    7db0:	04c9a783          	lw	a5,76(s3)
    7db4:	40145413          	srai	s0,s0,0x1
    7db8:	00271713          	slli	a4,a4,0x2
    7dbc:	00e787b3          	add	a5,a5,a4
    7dc0:	0007a703          	lw	a4,0(a5)
    7dc4:	00e92023          	sw	a4,0(s2)
    7dc8:	0127a023          	sw	s2,0(a5)
    7dcc:	00050913          	mv	s2,a0
    7dd0:	fa041ae3          	bnez	s0,7d84 <__pow5mult+0x58>
    7dd4:	01c12083          	lw	ra,28(sp)
    7dd8:	01812403          	lw	s0,24(sp)
    7ddc:	01412483          	lw	s1,20(sp)
    7de0:	00c12983          	lw	s3,12(sp)
    7de4:	00812a03          	lw	s4,8(sp)
    7de8:	00090513          	mv	a0,s2
    7dec:	01012903          	lw	s2,16(sp)
    7df0:	02010113          	addi	sp,sp,32
    7df4:	00008067          	ret
    7df8:	00048613          	mv	a2,s1
    7dfc:	00048593          	mv	a1,s1
    7e00:	00098513          	mv	a0,s3
    7e04:	cf9ff0ef          	jal	ra,7afc <__multiply>
    7e08:	00a4a023          	sw	a0,0(s1)
    7e0c:	00052023          	sw	zero,0(a0)
    7e10:	00050493          	mv	s1,a0
    7e14:	f7dff06f          	j	7d90 <__pow5mult+0x64>
    7e18:	00050913          	mv	s2,a0
    7e1c:	f61ff06f          	j	7d7c <__pow5mult+0x50>
    7e20:	fff78793          	addi	a5,a5,-1
    7e24:	00014737          	lui	a4,0x14
    7e28:	7a870713          	addi	a4,a4,1960 # 147a8 <p05.3296>
    7e2c:	00279793          	slli	a5,a5,0x2
    7e30:	00f707b3          	add	a5,a4,a5
    7e34:	0007a603          	lw	a2,0(a5)
    7e38:	00000693          	li	a3,0
    7e3c:	899ff0ef          	jal	ra,76d4 <__multadd>
    7e40:	00050a13          	mv	s4,a0
    7e44:	f19ff06f          	j	7d5c <__pow5mult+0x30>
    7e48:	27100593          	li	a1,625
    7e4c:	00098513          	mv	a0,s3
    7e50:	c59ff0ef          	jal	ra,7aa8 <__i2b>
    7e54:	04a9a423          	sw	a0,72(s3)
    7e58:	00050493          	mv	s1,a0
    7e5c:	00052023          	sw	zero,0(a0)
    7e60:	f11ff06f          	j	7d70 <__pow5mult+0x44>

00007e64 <__lshift>:
    7e64:	fe010113          	addi	sp,sp,-32
    7e68:	01412423          	sw	s4,8(sp)
    7e6c:	0105aa03          	lw	s4,16(a1)
    7e70:	0085a783          	lw	a5,8(a1)
    7e74:	01312623          	sw	s3,12(sp)
    7e78:	40565993          	srai	s3,a2,0x5
    7e7c:	01498a33          	add	s4,s3,s4
    7e80:	00812c23          	sw	s0,24(sp)
    7e84:	00912a23          	sw	s1,20(sp)
    7e88:	01212823          	sw	s2,16(sp)
    7e8c:	01512223          	sw	s5,4(sp)
    7e90:	00112e23          	sw	ra,28(sp)
    7e94:	001a0913          	addi	s2,s4,1
    7e98:	00058493          	mv	s1,a1
    7e9c:	00060413          	mv	s0,a2
    7ea0:	0045a583          	lw	a1,4(a1)
    7ea4:	00050a93          	mv	s5,a0
    7ea8:	0127d863          	bge	a5,s2,7eb8 <__lshift+0x54>
    7eac:	00179793          	slli	a5,a5,0x1
    7eb0:	00158593          	addi	a1,a1,1
    7eb4:	ff27cce3          	blt	a5,s2,7eac <__lshift+0x48>
    7eb8:	000a8513          	mv	a0,s5
    7ebc:	f4cff0ef          	jal	ra,7608 <_Balloc>
    7ec0:	10050c63          	beqz	a0,7fd8 <__lshift+0x174>
    7ec4:	01450813          	addi	a6,a0,20
    7ec8:	03305463          	blez	s3,7ef0 <__lshift+0x8c>
    7ecc:	00598993          	addi	s3,s3,5
    7ed0:	00299993          	slli	s3,s3,0x2
    7ed4:	01350733          	add	a4,a0,s3
    7ed8:	00080793          	mv	a5,a6
    7edc:	00478793          	addi	a5,a5,4
    7ee0:	fe07ae23          	sw	zero,-4(a5)
    7ee4:	fee79ce3          	bne	a5,a4,7edc <__lshift+0x78>
    7ee8:	fec98993          	addi	s3,s3,-20
    7eec:	01380833          	add	a6,a6,s3
    7ef0:	0104a703          	lw	a4,16(s1)
    7ef4:	01448793          	addi	a5,s1,20
    7ef8:	01f47313          	andi	t1,s0,31
    7efc:	00271613          	slli	a2,a4,0x2
    7f00:	00c78633          	add	a2,a5,a2
    7f04:	0a030463          	beqz	t1,7fac <__lshift+0x148>
    7f08:	02000593          	li	a1,32
    7f0c:	406585b3          	sub	a1,a1,t1
    7f10:	00080893          	mv	a7,a6
    7f14:	00000693          	li	a3,0
    7f18:	0007a703          	lw	a4,0(a5)
    7f1c:	00488893          	addi	a7,a7,4
    7f20:	00478793          	addi	a5,a5,4
    7f24:	00671733          	sll	a4,a4,t1
    7f28:	00d76733          	or	a4,a4,a3
    7f2c:	fee8ae23          	sw	a4,-4(a7)
    7f30:	ffc7a703          	lw	a4,-4(a5)
    7f34:	00b756b3          	srl	a3,a4,a1
    7f38:	fec7e0e3          	bltu	a5,a2,7f18 <__lshift+0xb4>
    7f3c:	01548713          	addi	a4,s1,21
    7f40:	00400793          	li	a5,4
    7f44:	00e66a63          	bltu	a2,a4,7f58 <__lshift+0xf4>
    7f48:	409607b3          	sub	a5,a2,s1
    7f4c:	feb78793          	addi	a5,a5,-21
    7f50:	ffc7f793          	andi	a5,a5,-4
    7f54:	00478793          	addi	a5,a5,4
    7f58:	00f80833          	add	a6,a6,a5
    7f5c:	00d82023          	sw	a3,0(a6)
    7f60:	00068463          	beqz	a3,7f68 <__lshift+0x104>
    7f64:	00090a13          	mv	s4,s2
    7f68:	0044a703          	lw	a4,4(s1)
    7f6c:	04caa783          	lw	a5,76(s5)
    7f70:	01c12083          	lw	ra,28(sp)
    7f74:	00271713          	slli	a4,a4,0x2
    7f78:	00e787b3          	add	a5,a5,a4
    7f7c:	0007a703          	lw	a4,0(a5)
    7f80:	01452823          	sw	s4,16(a0)
    7f84:	01812403          	lw	s0,24(sp)
    7f88:	00e4a023          	sw	a4,0(s1)
    7f8c:	0097a023          	sw	s1,0(a5)
    7f90:	01012903          	lw	s2,16(sp)
    7f94:	01412483          	lw	s1,20(sp)
    7f98:	00c12983          	lw	s3,12(sp)
    7f9c:	00812a03          	lw	s4,8(sp)
    7fa0:	00412a83          	lw	s5,4(sp)
    7fa4:	02010113          	addi	sp,sp,32
    7fa8:	00008067          	ret
    7fac:	0007a703          	lw	a4,0(a5)
    7fb0:	00478793          	addi	a5,a5,4
    7fb4:	00480813          	addi	a6,a6,4
    7fb8:	fee82e23          	sw	a4,-4(a6)
    7fbc:	fac7f6e3          	bgeu	a5,a2,7f68 <__lshift+0x104>
    7fc0:	0007a703          	lw	a4,0(a5)
    7fc4:	00478793          	addi	a5,a5,4
    7fc8:	00480813          	addi	a6,a6,4
    7fcc:	fee82e23          	sw	a4,-4(a6)
    7fd0:	fcc7eee3          	bltu	a5,a2,7fac <__lshift+0x148>
    7fd4:	f95ff06f          	j	7f68 <__lshift+0x104>
    7fd8:	000146b7          	lui	a3,0x14
    7fdc:	00014537          	lui	a0,0x14
    7fe0:	49c68693          	addi	a3,a3,1180 # 1449c <zeroes.4486+0x38>
    7fe4:	00000613          	li	a2,0
    7fe8:	1d900593          	li	a1,473
    7fec:	75c50513          	addi	a0,a0,1884 # 1475c <bmask+0x34>
    7ff0:	48d040ef          	jal	ra,cc7c <__assert_func>

00007ff4 <__mcmp>:
    7ff4:	01052703          	lw	a4,16(a0)
    7ff8:	0105a783          	lw	a5,16(a1)
    7ffc:	00050813          	mv	a6,a0
    8000:	40f70533          	sub	a0,a4,a5
    8004:	04f71263          	bne	a4,a5,8048 <__mcmp+0x54>
    8008:	00279793          	slli	a5,a5,0x2
    800c:	01480813          	addi	a6,a6,20
    8010:	01458593          	addi	a1,a1,20
    8014:	00f80733          	add	a4,a6,a5
    8018:	00f587b3          	add	a5,a1,a5
    801c:	0080006f          	j	8024 <__mcmp+0x30>
    8020:	02e87463          	bgeu	a6,a4,8048 <__mcmp+0x54>
    8024:	ffc72683          	lw	a3,-4(a4)
    8028:	ffc7a603          	lw	a2,-4(a5)
    802c:	ffc70713          	addi	a4,a4,-4
    8030:	ffc78793          	addi	a5,a5,-4
    8034:	fec686e3          	beq	a3,a2,8020 <__mcmp+0x2c>
    8038:	00c6b6b3          	sltu	a3,a3,a2
    803c:	40d00533          	neg	a0,a3
    8040:	00156513          	ori	a0,a0,1
    8044:	00008067          	ret
    8048:	00008067          	ret

0000804c <__mdiff>:
    804c:	0105a783          	lw	a5,16(a1)
    8050:	01062703          	lw	a4,16(a2)
    8054:	ff010113          	addi	sp,sp,-16
    8058:	00812423          	sw	s0,8(sp)
    805c:	00912223          	sw	s1,4(sp)
    8060:	01212023          	sw	s2,0(sp)
    8064:	00112623          	sw	ra,12(sp)
    8068:	00058493          	mv	s1,a1
    806c:	00060413          	mv	s0,a2
    8070:	40e78933          	sub	s2,a5,a4
    8074:	1ae79463          	bne	a5,a4,821c <__mdiff+0x1d0>
    8078:	00271693          	slli	a3,a4,0x2
    807c:	01458593          	addi	a1,a1,20
    8080:	01460713          	addi	a4,a2,20
    8084:	00d587b3          	add	a5,a1,a3
    8088:	00d70733          	add	a4,a4,a3
    808c:	0080006f          	j	8094 <__mdiff+0x48>
    8090:	18f5fc63          	bgeu	a1,a5,8228 <__mdiff+0x1dc>
    8094:	ffc7a603          	lw	a2,-4(a5)
    8098:	ffc72683          	lw	a3,-4(a4)
    809c:	ffc78793          	addi	a5,a5,-4
    80a0:	ffc70713          	addi	a4,a4,-4
    80a4:	fed606e3          	beq	a2,a3,8090 <__mdiff+0x44>
    80a8:	16d66063          	bltu	a2,a3,8208 <__mdiff+0x1bc>
    80ac:	0044a583          	lw	a1,4(s1)
    80b0:	d58ff0ef          	jal	ra,7608 <_Balloc>
    80b4:	1a050263          	beqz	a0,8258 <__mdiff+0x20c>
    80b8:	0104ae03          	lw	t3,16(s1)
    80bc:	01042283          	lw	t0,16(s0)
    80c0:	01448f93          	addi	t6,s1,20
    80c4:	002e1e93          	slli	t4,t3,0x2
    80c8:	01440813          	addi	a6,s0,20
    80cc:	00229293          	slli	t0,t0,0x2
    80d0:	01450393          	addi	t2,a0,20
    80d4:	000108b7          	lui	a7,0x10
    80d8:	01252623          	sw	s2,12(a0)
    80dc:	01df8eb3          	add	t4,t6,t4
    80e0:	005802b3          	add	t0,a6,t0
    80e4:	00038f13          	mv	t5,t2
    80e8:	000f8313          	mv	t1,t6
    80ec:	00000793          	li	a5,0
    80f0:	fff88893          	addi	a7,a7,-1 # ffff <__udivdi3+0x2c7>
    80f4:	00032703          	lw	a4,0(t1)
    80f8:	00082583          	lw	a1,0(a6)
    80fc:	004f0f13          	addi	t5,t5,4
    8100:	011776b3          	and	a3,a4,a7
    8104:	00f686b3          	add	a3,a3,a5
    8108:	0115f7b3          	and	a5,a1,a7
    810c:	40f686b3          	sub	a3,a3,a5
    8110:	0105d593          	srli	a1,a1,0x10
    8114:	01075793          	srli	a5,a4,0x10
    8118:	40b787b3          	sub	a5,a5,a1
    811c:	4106d713          	srai	a4,a3,0x10
    8120:	00e787b3          	add	a5,a5,a4
    8124:	01079713          	slli	a4,a5,0x10
    8128:	0116f6b3          	and	a3,a3,a7
    812c:	00d766b3          	or	a3,a4,a3
    8130:	00480813          	addi	a6,a6,4
    8134:	fedf2e23          	sw	a3,-4(t5)
    8138:	00430313          	addi	t1,t1,4
    813c:	4107d793          	srai	a5,a5,0x10
    8140:	fa586ae3          	bltu	a6,t0,80f4 <__mdiff+0xa8>
    8144:	408285b3          	sub	a1,t0,s0
    8148:	feb58593          	addi	a1,a1,-21
    814c:	01540413          	addi	s0,s0,21
    8150:	0025d593          	srli	a1,a1,0x2
    8154:	00000713          	li	a4,0
    8158:	0082e463          	bltu	t0,s0,8160 <__mdiff+0x114>
    815c:	00259713          	slli	a4,a1,0x2
    8160:	00e38733          	add	a4,t2,a4
    8164:	00400813          	li	a6,4
    8168:	0082e663          	bltu	t0,s0,8174 <__mdiff+0x128>
    816c:	00158593          	addi	a1,a1,1
    8170:	00259813          	slli	a6,a1,0x2
    8174:	010f8fb3          	add	t6,t6,a6
    8178:	010383b3          	add	t2,t2,a6
    817c:	05dffe63          	bgeu	t6,t4,81d8 <__mdiff+0x18c>
    8180:	000108b7          	lui	a7,0x10
    8184:	00038813          	mv	a6,t2
    8188:	000f8593          	mv	a1,t6
    818c:	fff88893          	addi	a7,a7,-1 # ffff <__udivdi3+0x2c7>
    8190:	0005a703          	lw	a4,0(a1)
    8194:	00480813          	addi	a6,a6,4
    8198:	00458593          	addi	a1,a1,4
    819c:	01177633          	and	a2,a4,a7
    81a0:	00f60633          	add	a2,a2,a5
    81a4:	41065693          	srai	a3,a2,0x10
    81a8:	01075793          	srli	a5,a4,0x10
    81ac:	00d787b3          	add	a5,a5,a3
    81b0:	01079693          	slli	a3,a5,0x10
    81b4:	01167633          	and	a2,a2,a7
    81b8:	00c6e6b3          	or	a3,a3,a2
    81bc:	fed82e23          	sw	a3,-4(a6)
    81c0:	4107d793          	srai	a5,a5,0x10
    81c4:	fdd5e6e3          	bltu	a1,t4,8190 <__mdiff+0x144>
    81c8:	fffe8713          	addi	a4,t4,-1
    81cc:	41f70fb3          	sub	t6,a4,t6
    81d0:	ffcff713          	andi	a4,t6,-4
    81d4:	00e38733          	add	a4,t2,a4
    81d8:	00069a63          	bnez	a3,81ec <__mdiff+0x1a0>
    81dc:	ffc72783          	lw	a5,-4(a4)
    81e0:	fffe0e13          	addi	t3,t3,-1
    81e4:	ffc70713          	addi	a4,a4,-4
    81e8:	fe078ae3          	beqz	a5,81dc <__mdiff+0x190>
    81ec:	00c12083          	lw	ra,12(sp)
    81f0:	00812403          	lw	s0,8(sp)
    81f4:	01c52823          	sw	t3,16(a0)
    81f8:	00412483          	lw	s1,4(sp)
    81fc:	00012903          	lw	s2,0(sp)
    8200:	01010113          	addi	sp,sp,16
    8204:	00008067          	ret
    8208:	00048793          	mv	a5,s1
    820c:	00100913          	li	s2,1
    8210:	00040493          	mv	s1,s0
    8214:	00078413          	mv	s0,a5
    8218:	e95ff06f          	j	80ac <__mdiff+0x60>
    821c:	fe0946e3          	bltz	s2,8208 <__mdiff+0x1bc>
    8220:	00000913          	li	s2,0
    8224:	e89ff06f          	j	80ac <__mdiff+0x60>
    8228:	00000593          	li	a1,0
    822c:	bdcff0ef          	jal	ra,7608 <_Balloc>
    8230:	04050263          	beqz	a0,8274 <__mdiff+0x228>
    8234:	00c12083          	lw	ra,12(sp)
    8238:	00812403          	lw	s0,8(sp)
    823c:	00100793          	li	a5,1
    8240:	00f52823          	sw	a5,16(a0)
    8244:	00052a23          	sw	zero,20(a0)
    8248:	00412483          	lw	s1,4(sp)
    824c:	00012903          	lw	s2,0(sp)
    8250:	01010113          	addi	sp,sp,16
    8254:	00008067          	ret
    8258:	000146b7          	lui	a3,0x14
    825c:	00014537          	lui	a0,0x14
    8260:	49c68693          	addi	a3,a3,1180 # 1449c <zeroes.4486+0x38>
    8264:	00000613          	li	a2,0
    8268:	24000593          	li	a1,576
    826c:	75c50513          	addi	a0,a0,1884 # 1475c <bmask+0x34>
    8270:	20d040ef          	jal	ra,cc7c <__assert_func>
    8274:	000146b7          	lui	a3,0x14
    8278:	00014537          	lui	a0,0x14
    827c:	49c68693          	addi	a3,a3,1180 # 1449c <zeroes.4486+0x38>
    8280:	00000613          	li	a2,0
    8284:	23200593          	li	a1,562
    8288:	75c50513          	addi	a0,a0,1884 # 1475c <bmask+0x34>
    828c:	1f1040ef          	jal	ra,cc7c <__assert_func>

00008290 <__ulp>:
    8290:	7ff007b7          	lui	a5,0x7ff00
    8294:	00b7f5b3          	and	a1,a5,a1
    8298:	fcc007b7          	lui	a5,0xfcc00
    829c:	00f585b3          	add	a1,a1,a5
    82a0:	00b05863          	blez	a1,82b0 <__ulp+0x20>
    82a4:	00000793          	li	a5,0
    82a8:	00078513          	mv	a0,a5
    82ac:	00008067          	ret
    82b0:	40b005b3          	neg	a1,a1
    82b4:	4145d593          	srai	a1,a1,0x14
    82b8:	01300793          	li	a5,19
    82bc:	00b7c863          	blt	a5,a1,82cc <__ulp+0x3c>
    82c0:	000807b7          	lui	a5,0x80
    82c4:	40b7d5b3          	sra	a1,a5,a1
    82c8:	fddff06f          	j	82a4 <__ulp+0x14>
    82cc:	fec58713          	addi	a4,a1,-20
    82d0:	01e00693          	li	a3,30
    82d4:	00000593          	li	a1,0
    82d8:	00100793          	li	a5,1
    82dc:	fce6c6e3          	blt	a3,a4,82a8 <__ulp+0x18>
    82e0:	800007b7          	lui	a5,0x80000
    82e4:	00e7d7b3          	srl	a5,a5,a4
    82e8:	00078513          	mv	a0,a5
    82ec:	00008067          	ret

000082f0 <__b2d>:
    82f0:	fe010113          	addi	sp,sp,-32
    82f4:	00912a23          	sw	s1,20(sp)
    82f8:	01052483          	lw	s1,16(a0)
    82fc:	00812c23          	sw	s0,24(sp)
    8300:	01450413          	addi	s0,a0,20
    8304:	00249493          	slli	s1,s1,0x2
    8308:	009404b3          	add	s1,s0,s1
    830c:	01212823          	sw	s2,16(sp)
    8310:	ffc4a903          	lw	s2,-4(s1)
    8314:	01312623          	sw	s3,12(sp)
    8318:	01412423          	sw	s4,8(sp)
    831c:	00090513          	mv	a0,s2
    8320:	00058993          	mv	s3,a1
    8324:	00112e23          	sw	ra,28(sp)
    8328:	e2cff0ef          	jal	ra,7954 <__hi0bits>
    832c:	02000713          	li	a4,32
    8330:	40a707b3          	sub	a5,a4,a0
    8334:	00f9a023          	sw	a5,0(s3)
    8338:	00a00793          	li	a5,10
    833c:	ffc48a13          	addi	s4,s1,-4
    8340:	08a7d063          	bge	a5,a0,83c0 <__b2d+0xd0>
    8344:	ff550513          	addi	a0,a0,-11
    8348:	05447063          	bgeu	s0,s4,8388 <__b2d+0x98>
    834c:	ff84a783          	lw	a5,-8(s1)
    8350:	04050063          	beqz	a0,8390 <__b2d+0xa0>
    8354:	40a706b3          	sub	a3,a4,a0
    8358:	00d7d733          	srl	a4,a5,a3
    835c:	00a91933          	sll	s2,s2,a0
    8360:	00e96933          	or	s2,s2,a4
    8364:	ff848613          	addi	a2,s1,-8
    8368:	3ff00737          	lui	a4,0x3ff00
    836c:	00e96733          	or	a4,s2,a4
    8370:	00a797b3          	sll	a5,a5,a0
    8374:	02c47263          	bgeu	s0,a2,8398 <__b2d+0xa8>
    8378:	ff44a603          	lw	a2,-12(s1)
    837c:	00d656b3          	srl	a3,a2,a3
    8380:	00d7e7b3          	or	a5,a5,a3
    8384:	0140006f          	j	8398 <__b2d+0xa8>
    8388:	00000793          	li	a5,0
    838c:	06051463          	bnez	a0,83f4 <__b2d+0x104>
    8390:	3ff00737          	lui	a4,0x3ff00
    8394:	00e96733          	or	a4,s2,a4
    8398:	01c12083          	lw	ra,28(sp)
    839c:	01812403          	lw	s0,24(sp)
    83a0:	01412483          	lw	s1,20(sp)
    83a4:	01012903          	lw	s2,16(sp)
    83a8:	00c12983          	lw	s3,12(sp)
    83ac:	00812a03          	lw	s4,8(sp)
    83b0:	00078513          	mv	a0,a5
    83b4:	00070593          	mv	a1,a4
    83b8:	02010113          	addi	sp,sp,32
    83bc:	00008067          	ret
    83c0:	00b00693          	li	a3,11
    83c4:	40a686b3          	sub	a3,a3,a0
    83c8:	3ff007b7          	lui	a5,0x3ff00
    83cc:	00d95733          	srl	a4,s2,a3
    83d0:	00f76733          	or	a4,a4,a5
    83d4:	00000793          	li	a5,0
    83d8:	01447663          	bgeu	s0,s4,83e4 <__b2d+0xf4>
    83dc:	ff84a783          	lw	a5,-8(s1)
    83e0:	00d7d7b3          	srl	a5,a5,a3
    83e4:	01550513          	addi	a0,a0,21
    83e8:	00a91533          	sll	a0,s2,a0
    83ec:	00f567b3          	or	a5,a0,a5
    83f0:	fa9ff06f          	j	8398 <__b2d+0xa8>
    83f4:	00a91533          	sll	a0,s2,a0
    83f8:	3ff00737          	lui	a4,0x3ff00
    83fc:	00e56733          	or	a4,a0,a4
    8400:	00000793          	li	a5,0
    8404:	f95ff06f          	j	8398 <__b2d+0xa8>

00008408 <__d2b>:
    8408:	fd010113          	addi	sp,sp,-48
    840c:	01412c23          	sw	s4,24(sp)
    8410:	00058a13          	mv	s4,a1
    8414:	00100593          	li	a1,1
    8418:	02912223          	sw	s1,36(sp)
    841c:	03212023          	sw	s2,32(sp)
    8420:	01312e23          	sw	s3,28(sp)
    8424:	02112623          	sw	ra,44(sp)
    8428:	02812423          	sw	s0,40(sp)
    842c:	01512a23          	sw	s5,20(sp)
    8430:	00060493          	mv	s1,a2
    8434:	00068993          	mv	s3,a3
    8438:	00070913          	mv	s2,a4
    843c:	9ccff0ef          	jal	ra,7608 <_Balloc>
    8440:	10050a63          	beqz	a0,8554 <__d2b+0x14c>
    8444:	0144d793          	srli	a5,s1,0x14
    8448:	00100737          	lui	a4,0x100
    844c:	fff70613          	addi	a2,a4,-1 # fffff <//.+0xea087>
    8450:	01579693          	slli	a3,a5,0x15
    8454:	00050413          	mv	s0,a0
    8458:	00967633          	and	a2,a2,s1
    845c:	7ff7fa93          	andi	s5,a5,2047
    8460:	00068463          	beqz	a3,8468 <__d2b+0x60>
    8464:	00e66633          	or	a2,a2,a4
    8468:	00c12623          	sw	a2,12(sp)
    846c:	080a0863          	beqz	s4,84fc <__d2b+0xf4>
    8470:	00810513          	addi	a0,sp,8
    8474:	01412423          	sw	s4,8(sp)
    8478:	d50ff0ef          	jal	ra,79c8 <__lo0bits>
    847c:	00c12703          	lw	a4,12(sp)
    8480:	00050793          	mv	a5,a0
    8484:	0c050263          	beqz	a0,8548 <__d2b+0x140>
    8488:	00812603          	lw	a2,8(sp)
    848c:	02000693          	li	a3,32
    8490:	40a686b3          	sub	a3,a3,a0
    8494:	00d716b3          	sll	a3,a4,a3
    8498:	00c6e6b3          	or	a3,a3,a2
    849c:	00a75733          	srl	a4,a4,a0
    84a0:	00d42a23          	sw	a3,20(s0)
    84a4:	00e12623          	sw	a4,12(sp)
    84a8:	00e034b3          	snez	s1,a4
    84ac:	00148493          	addi	s1,s1,1
    84b0:	00e42c23          	sw	a4,24(s0)
    84b4:	00942823          	sw	s1,16(s0)
    84b8:	060a8463          	beqz	s5,8520 <__d2b+0x118>
    84bc:	bcda8a93          	addi	s5,s5,-1075
    84c0:	00fa8ab3          	add	s5,s5,a5
    84c4:	03500513          	li	a0,53
    84c8:	0159a023          	sw	s5,0(s3)
    84cc:	40f507b3          	sub	a5,a0,a5
    84d0:	00f92023          	sw	a5,0(s2)
    84d4:	02c12083          	lw	ra,44(sp)
    84d8:	00040513          	mv	a0,s0
    84dc:	02812403          	lw	s0,40(sp)
    84e0:	02412483          	lw	s1,36(sp)
    84e4:	02012903          	lw	s2,32(sp)
    84e8:	01c12983          	lw	s3,28(sp)
    84ec:	01812a03          	lw	s4,24(sp)
    84f0:	01412a83          	lw	s5,20(sp)
    84f4:	03010113          	addi	sp,sp,48
    84f8:	00008067          	ret
    84fc:	00c10513          	addi	a0,sp,12
    8500:	cc8ff0ef          	jal	ra,79c8 <__lo0bits>
    8504:	00100793          	li	a5,1
    8508:	00f42823          	sw	a5,16(s0)
    850c:	00c12783          	lw	a5,12(sp)
    8510:	00100493          	li	s1,1
    8514:	00f42a23          	sw	a5,20(s0)
    8518:	02050793          	addi	a5,a0,32
    851c:	fa0a90e3          	bnez	s5,84bc <__d2b+0xb4>
    8520:	00249713          	slli	a4,s1,0x2
    8524:	00e40733          	add	a4,s0,a4
    8528:	01072503          	lw	a0,16(a4)
    852c:	bce78793          	addi	a5,a5,-1074 # 3feffbce <//.+0x3fee9c56>
    8530:	00f9a023          	sw	a5,0(s3)
    8534:	c20ff0ef          	jal	ra,7954 <__hi0bits>
    8538:	00549493          	slli	s1,s1,0x5
    853c:	40a484b3          	sub	s1,s1,a0
    8540:	00992023          	sw	s1,0(s2)
    8544:	f91ff06f          	j	84d4 <__d2b+0xcc>
    8548:	00812683          	lw	a3,8(sp)
    854c:	00d42a23          	sw	a3,20(s0)
    8550:	f59ff06f          	j	84a8 <__d2b+0xa0>
    8554:	000146b7          	lui	a3,0x14
    8558:	00014537          	lui	a0,0x14
    855c:	49c68693          	addi	a3,a3,1180 # 1449c <zeroes.4486+0x38>
    8560:	00000613          	li	a2,0
    8564:	30a00593          	li	a1,778
    8568:	75c50513          	addi	a0,a0,1884 # 1475c <bmask+0x34>
    856c:	710040ef          	jal	ra,cc7c <__assert_func>

00008570 <__ratio>:
    8570:	fd010113          	addi	sp,sp,-48
    8574:	03212023          	sw	s2,32(sp)
    8578:	00058913          	mv	s2,a1
    857c:	00810593          	addi	a1,sp,8
    8580:	02112623          	sw	ra,44(sp)
    8584:	02812423          	sw	s0,40(sp)
    8588:	02912223          	sw	s1,36(sp)
    858c:	01312e23          	sw	s3,28(sp)
    8590:	00050993          	mv	s3,a0
    8594:	d5dff0ef          	jal	ra,82f0 <__b2d>
    8598:	00050493          	mv	s1,a0
    859c:	00058413          	mv	s0,a1
    85a0:	00090513          	mv	a0,s2
    85a4:	00c10593          	addi	a1,sp,12
    85a8:	d49ff0ef          	jal	ra,82f0 <__b2d>
    85ac:	01092783          	lw	a5,16(s2)
    85b0:	0109a703          	lw	a4,16(s3)
    85b4:	00c12683          	lw	a3,12(sp)
    85b8:	40f70733          	sub	a4,a4,a5
    85bc:	00812783          	lw	a5,8(sp)
    85c0:	00571713          	slli	a4,a4,0x5
    85c4:	40d787b3          	sub	a5,a5,a3
    85c8:	00f707b3          	add	a5,a4,a5
    85cc:	00050693          	mv	a3,a0
    85d0:	02f05e63          	blez	a5,860c <__ratio+0x9c>
    85d4:	01479793          	slli	a5,a5,0x14
    85d8:	00878433          	add	s0,a5,s0
    85dc:	00068613          	mv	a2,a3
    85e0:	00048513          	mv	a0,s1
    85e4:	00058693          	mv	a3,a1
    85e8:	00040593          	mv	a1,s0
    85ec:	791070ef          	jal	ra,1057c <__divdf3>
    85f0:	02c12083          	lw	ra,44(sp)
    85f4:	02812403          	lw	s0,40(sp)
    85f8:	02412483          	lw	s1,36(sp)
    85fc:	02012903          	lw	s2,32(sp)
    8600:	01c12983          	lw	s3,28(sp)
    8604:	03010113          	addi	sp,sp,48
    8608:	00008067          	ret
    860c:	01479713          	slli	a4,a5,0x14
    8610:	40e585b3          	sub	a1,a1,a4
    8614:	fc9ff06f          	j	85dc <__ratio+0x6c>

00008618 <_mprec_log10>:
    8618:	ff010113          	addi	sp,sp,-16
    861c:	01212023          	sw	s2,0(sp)
    8620:	00112623          	sw	ra,12(sp)
    8624:	00812423          	sw	s0,8(sp)
    8628:	00912223          	sw	s1,4(sp)
    862c:	01700793          	li	a5,23
    8630:	00050913          	mv	s2,a0
    8634:	04a7d663          	bge	a5,a0,8680 <_mprec_log10+0x68>
    8638:	1b81a783          	lw	a5,440(gp) # 15a70 <__SDATA_BEGIN__>
    863c:	1bc1a583          	lw	a1,444(gp) # 15a74 <__SDATA_BEGIN__+0x4>
    8640:	1c01a403          	lw	s0,448(gp) # 15a78 <__SDATA_BEGIN__+0x8>
    8644:	1c41a483          	lw	s1,452(gp) # 15a7c <__SDATA_BEGIN__+0xc>
    8648:	00078513          	mv	a0,a5
    864c:	00040613          	mv	a2,s0
    8650:	00048693          	mv	a3,s1
    8654:	608080ef          	jal	ra,10c5c <__muldf3>
    8658:	fff90913          	addi	s2,s2,-1
    865c:	00050793          	mv	a5,a0
    8660:	fe0914e3          	bnez	s2,8648 <_mprec_log10+0x30>
    8664:	00c12083          	lw	ra,12(sp)
    8668:	00812403          	lw	s0,8(sp)
    866c:	00412483          	lw	s1,4(sp)
    8670:	00012903          	lw	s2,0(sp)
    8674:	00078513          	mv	a0,a5
    8678:	01010113          	addi	sp,sp,16
    867c:	00008067          	ret
    8680:	000147b7          	lui	a5,0x14
    8684:	00351913          	slli	s2,a0,0x3
    8688:	7a878793          	addi	a5,a5,1960 # 147a8 <p05.3296>
    868c:	01278933          	add	s2,a5,s2
    8690:	01092783          	lw	a5,16(s2)
    8694:	00c12083          	lw	ra,12(sp)
    8698:	00812403          	lw	s0,8(sp)
    869c:	01492583          	lw	a1,20(s2)
    86a0:	00412483          	lw	s1,4(sp)
    86a4:	00012903          	lw	s2,0(sp)
    86a8:	00078513          	mv	a0,a5
    86ac:	01010113          	addi	sp,sp,16
    86b0:	00008067          	ret

000086b4 <__copybits>:
    86b4:	01062683          	lw	a3,16(a2)
    86b8:	fff58593          	addi	a1,a1,-1
    86bc:	4055d593          	srai	a1,a1,0x5
    86c0:	00158593          	addi	a1,a1,1
    86c4:	01460793          	addi	a5,a2,20
    86c8:	00269693          	slli	a3,a3,0x2
    86cc:	00259593          	slli	a1,a1,0x2
    86d0:	00d786b3          	add	a3,a5,a3
    86d4:	00b505b3          	add	a1,a0,a1
    86d8:	02d7f863          	bgeu	a5,a3,8708 <__copybits+0x54>
    86dc:	00050713          	mv	a4,a0
    86e0:	0007a803          	lw	a6,0(a5)
    86e4:	00478793          	addi	a5,a5,4
    86e8:	00470713          	addi	a4,a4,4
    86ec:	ff072e23          	sw	a6,-4(a4)
    86f0:	fed7e8e3          	bltu	a5,a3,86e0 <__copybits+0x2c>
    86f4:	40c687b3          	sub	a5,a3,a2
    86f8:	feb78793          	addi	a5,a5,-21
    86fc:	ffc7f793          	andi	a5,a5,-4
    8700:	00478793          	addi	a5,a5,4
    8704:	00f50533          	add	a0,a0,a5
    8708:	00b57863          	bgeu	a0,a1,8718 <__copybits+0x64>
    870c:	00450513          	addi	a0,a0,4
    8710:	fe052e23          	sw	zero,-4(a0)
    8714:	feb56ce3          	bltu	a0,a1,870c <__copybits+0x58>
    8718:	00008067          	ret

0000871c <__any_on>:
    871c:	01052703          	lw	a4,16(a0)
    8720:	4055d613          	srai	a2,a1,0x5
    8724:	01450693          	addi	a3,a0,20
    8728:	02c75263          	bge	a4,a2,874c <__any_on+0x30>
    872c:	00271793          	slli	a5,a4,0x2
    8730:	00f687b3          	add	a5,a3,a5
    8734:	04f6f263          	bgeu	a3,a5,8778 <__any_on+0x5c>
    8738:	ffc7a703          	lw	a4,-4(a5)
    873c:	ffc78793          	addi	a5,a5,-4
    8740:	fe070ae3          	beqz	a4,8734 <__any_on+0x18>
    8744:	00100513          	li	a0,1
    8748:	00008067          	ret
    874c:	00261793          	slli	a5,a2,0x2
    8750:	00f687b3          	add	a5,a3,a5
    8754:	fee650e3          	bge	a2,a4,8734 <__any_on+0x18>
    8758:	01f5f593          	andi	a1,a1,31
    875c:	fc058ce3          	beqz	a1,8734 <__any_on+0x18>
    8760:	0007a603          	lw	a2,0(a5)
    8764:	00100513          	li	a0,1
    8768:	00b65733          	srl	a4,a2,a1
    876c:	00b715b3          	sll	a1,a4,a1
    8770:	fcb602e3          	beq	a2,a1,8734 <__any_on+0x18>
    8774:	00008067          	ret
    8778:	00000513          	li	a0,0
    877c:	00008067          	ret

00008780 <_sbrk_r>:
    8780:	ff010113          	addi	sp,sp,-16
    8784:	00812423          	sw	s0,8(sp)
    8788:	00912223          	sw	s1,4(sp)
    878c:	00050413          	mv	s0,a0
    8790:	00058513          	mv	a0,a1
    8794:	00112623          	sw	ra,12(sp)
    8798:	6a01ae23          	sw	zero,1724(gp) # 15f74 <errno>
    879c:	404070ef          	jal	ra,fba0 <_sbrk>
    87a0:	fff00793          	li	a5,-1
    87a4:	00f50c63          	beq	a0,a5,87bc <_sbrk_r+0x3c>
    87a8:	00c12083          	lw	ra,12(sp)
    87ac:	00812403          	lw	s0,8(sp)
    87b0:	00412483          	lw	s1,4(sp)
    87b4:	01010113          	addi	sp,sp,16
    87b8:	00008067          	ret
    87bc:	6bc1a783          	lw	a5,1724(gp) # 15f74 <errno>
    87c0:	fe0784e3          	beqz	a5,87a8 <_sbrk_r+0x28>
    87c4:	00c12083          	lw	ra,12(sp)
    87c8:	00f42023          	sw	a5,0(s0)
    87cc:	00812403          	lw	s0,8(sp)
    87d0:	00412483          	lw	s1,4(sp)
    87d4:	01010113          	addi	sp,sp,16
    87d8:	00008067          	ret

000087dc <frexp>:
    87dc:	ff010113          	addi	sp,sp,-16
    87e0:	00912223          	sw	s1,4(sp)
    87e4:	800004b7          	lui	s1,0x80000
    87e8:	00812423          	sw	s0,8(sp)
    87ec:	00112623          	sw	ra,12(sp)
    87f0:	fff4c493          	not	s1,s1
    87f4:	00060413          	mv	s0,a2
    87f8:	00062023          	sw	zero,0(a2)
    87fc:	00b4f6b3          	and	a3,s1,a1
    8800:	7ff00637          	lui	a2,0x7ff00
    8804:	00058793          	mv	a5,a1
    8808:	00050713          	mv	a4,a0
    880c:	04c6de63          	bge	a3,a2,8868 <frexp+0x8c>
    8810:	00a6e8b3          	or	a7,a3,a0
    8814:	04088a63          	beqz	a7,8868 <frexp+0x8c>
    8818:	00c5f633          	and	a2,a1,a2
    881c:	00058813          	mv	a6,a1
    8820:	00000893          	li	a7,0
    8824:	02061063          	bnez	a2,8844 <frexp+0x68>
    8828:	1cc1a683          	lw	a3,460(gp) # 15a84 <__SDATA_BEGIN__+0x14>
    882c:	1c81a603          	lw	a2,456(gp) # 15a80 <__SDATA_BEGIN__+0x10>
    8830:	42c080ef          	jal	ra,10c5c <__muldf3>
    8834:	00050713          	mv	a4,a0
    8838:	00058813          	mv	a6,a1
    883c:	00b4f6b3          	and	a3,s1,a1
    8840:	fca00893          	li	a7,-54
    8844:	4146d693          	srai	a3,a3,0x14
    8848:	801007b7          	lui	a5,0x80100
    884c:	fff78793          	addi	a5,a5,-1 # 800fffff <//.+0x800ea087>
    8850:	c0268693          	addi	a3,a3,-1022
    8854:	00f87833          	and	a6,a6,a5
    8858:	011686b3          	add	a3,a3,a7
    885c:	3fe007b7          	lui	a5,0x3fe00
    8860:	00f867b3          	or	a5,a6,a5
    8864:	00d42023          	sw	a3,0(s0)
    8868:	00c12083          	lw	ra,12(sp)
    886c:	00812403          	lw	s0,8(sp)
    8870:	00412483          	lw	s1,4(sp)
    8874:	00070513          	mv	a0,a4
    8878:	00078593          	mv	a1,a5
    887c:	01010113          	addi	sp,sp,16
    8880:	00008067          	ret

00008884 <_sprintf_r>:
    8884:	f6010113          	addi	sp,sp,-160
    8888:	08c10e93          	addi	t4,sp,140
    888c:	08f12a23          	sw	a5,148(sp)
    8890:	80000337          	lui	t1,0x80000
    8894:	ffff07b7          	lui	a5,0xffff0
    8898:	00058e13          	mv	t3,a1
    889c:	fff34313          	not	t1,t1
    88a0:	08d12623          	sw	a3,140(sp)
    88a4:	20878793          	addi	a5,a5,520 # ffff0208 <//.+0xfffda290>
    88a8:	00810593          	addi	a1,sp,8
    88ac:	000e8693          	mv	a3,t4
    88b0:	06112e23          	sw	ra,124(sp)
    88b4:	00f12a23          	sw	a5,20(sp)
    88b8:	08e12823          	sw	a4,144(sp)
    88bc:	09012c23          	sw	a6,152(sp)
    88c0:	09112e23          	sw	a7,156(sp)
    88c4:	01c12423          	sw	t3,8(sp)
    88c8:	01c12c23          	sw	t3,24(sp)
    88cc:	00612e23          	sw	t1,28(sp)
    88d0:	00612823          	sw	t1,16(sp)
    88d4:	01d12223          	sw	t4,4(sp)
    88d8:	54c000ef          	jal	ra,8e24 <_svfprintf_r>
    88dc:	00812783          	lw	a5,8(sp)
    88e0:	00078023          	sb	zero,0(a5)
    88e4:	07c12083          	lw	ra,124(sp)
    88e8:	0a010113          	addi	sp,sp,160
    88ec:	00008067          	ret

000088f0 <sprintf>:
    88f0:	00050e13          	mv	t3,a0
    88f4:	f6010113          	addi	sp,sp,-160
    88f8:	1d81a503          	lw	a0,472(gp) # 15a90 <_impure_ptr>
    88fc:	08810e93          	addi	t4,sp,136
    8900:	08f12a23          	sw	a5,148(sp)
    8904:	80000337          	lui	t1,0x80000
    8908:	ffff07b7          	lui	a5,0xffff0
    890c:	fff34313          	not	t1,t1
    8910:	08c12423          	sw	a2,136(sp)
    8914:	08d12623          	sw	a3,140(sp)
    8918:	20878793          	addi	a5,a5,520 # ffff0208 <//.+0xfffda290>
    891c:	00058613          	mv	a2,a1
    8920:	000e8693          	mv	a3,t4
    8924:	00810593          	addi	a1,sp,8
    8928:	06112e23          	sw	ra,124(sp)
    892c:	00f12a23          	sw	a5,20(sp)
    8930:	08e12823          	sw	a4,144(sp)
    8934:	09012c23          	sw	a6,152(sp)
    8938:	09112e23          	sw	a7,156(sp)
    893c:	01c12423          	sw	t3,8(sp)
    8940:	01c12c23          	sw	t3,24(sp)
    8944:	00612e23          	sw	t1,28(sp)
    8948:	00612823          	sw	t1,16(sp)
    894c:	01d12223          	sw	t4,4(sp)
    8950:	4d4000ef          	jal	ra,8e24 <_svfprintf_r>
    8954:	00812783          	lw	a5,8(sp)
    8958:	00078023          	sb	zero,0(a5)
    895c:	07c12083          	lw	ra,124(sp)
    8960:	0a010113          	addi	sp,sp,160
    8964:	00008067          	ret

00008968 <__sread>:
    8968:	ff010113          	addi	sp,sp,-16
    896c:	00812423          	sw	s0,8(sp)
    8970:	00058413          	mv	s0,a1
    8974:	00e59583          	lh	a1,14(a1)
    8978:	00112623          	sw	ra,12(sp)
    897c:	7f9040ef          	jal	ra,d974 <_read_r>
    8980:	02054063          	bltz	a0,89a0 <__sread+0x38>
    8984:	05042783          	lw	a5,80(s0)
    8988:	00c12083          	lw	ra,12(sp)
    898c:	00a787b3          	add	a5,a5,a0
    8990:	04f42823          	sw	a5,80(s0)
    8994:	00812403          	lw	s0,8(sp)
    8998:	01010113          	addi	sp,sp,16
    899c:	00008067          	ret
    89a0:	00c45783          	lhu	a5,12(s0)
    89a4:	fffff737          	lui	a4,0xfffff
    89a8:	fff70713          	addi	a4,a4,-1 # ffffefff <//.+0xfffe9087>
    89ac:	00e7f7b3          	and	a5,a5,a4
    89b0:	00c12083          	lw	ra,12(sp)
    89b4:	00f41623          	sh	a5,12(s0)
    89b8:	00812403          	lw	s0,8(sp)
    89bc:	01010113          	addi	sp,sp,16
    89c0:	00008067          	ret

000089c4 <__seofread>:
    89c4:	00000513          	li	a0,0
    89c8:	00008067          	ret

000089cc <__swrite>:
    89cc:	00c59783          	lh	a5,12(a1)
    89d0:	fe010113          	addi	sp,sp,-32
    89d4:	00812c23          	sw	s0,24(sp)
    89d8:	00912a23          	sw	s1,20(sp)
    89dc:	01212823          	sw	s2,16(sp)
    89e0:	01312623          	sw	s3,12(sp)
    89e4:	00112e23          	sw	ra,28(sp)
    89e8:	1007f713          	andi	a4,a5,256
    89ec:	00058413          	mv	s0,a1
    89f0:	00050493          	mv	s1,a0
    89f4:	00e59583          	lh	a1,14(a1)
    89f8:	00060913          	mv	s2,a2
    89fc:	00068993          	mv	s3,a3
    8a00:	02071e63          	bnez	a4,8a3c <__swrite+0x70>
    8a04:	fffff737          	lui	a4,0xfffff
    8a08:	fff70713          	addi	a4,a4,-1 # ffffefff <//.+0xfffe9087>
    8a0c:	00e7f7b3          	and	a5,a5,a4
    8a10:	00f41623          	sh	a5,12(s0)
    8a14:	01812403          	lw	s0,24(sp)
    8a18:	01c12083          	lw	ra,28(sp)
    8a1c:	00098693          	mv	a3,s3
    8a20:	00090613          	mv	a2,s2
    8a24:	00c12983          	lw	s3,12(sp)
    8a28:	01012903          	lw	s2,16(sp)
    8a2c:	00048513          	mv	a0,s1
    8a30:	01412483          	lw	s1,20(sp)
    8a34:	02010113          	addi	sp,sp,32
    8a38:	1dc0406f          	j	cc14 <_write_r>
    8a3c:	00200693          	li	a3,2
    8a40:	00000613          	li	a2,0
    8a44:	48d040ef          	jal	ra,d6d0 <_lseek_r>
    8a48:	00c41783          	lh	a5,12(s0)
    8a4c:	00e41583          	lh	a1,14(s0)
    8a50:	fb5ff06f          	j	8a04 <__swrite+0x38>

00008a54 <__sseek>:
    8a54:	ff010113          	addi	sp,sp,-16
    8a58:	00812423          	sw	s0,8(sp)
    8a5c:	00058413          	mv	s0,a1
    8a60:	00e59583          	lh	a1,14(a1)
    8a64:	00112623          	sw	ra,12(sp)
    8a68:	469040ef          	jal	ra,d6d0 <_lseek_r>
    8a6c:	fff00793          	li	a5,-1
    8a70:	02f50463          	beq	a0,a5,8a98 <__sseek+0x44>
    8a74:	00c45783          	lhu	a5,12(s0)
    8a78:	00001737          	lui	a4,0x1
    8a7c:	00c12083          	lw	ra,12(sp)
    8a80:	00e7e7b3          	or	a5,a5,a4
    8a84:	04a42823          	sw	a0,80(s0)
    8a88:	00f41623          	sh	a5,12(s0)
    8a8c:	00812403          	lw	s0,8(sp)
    8a90:	01010113          	addi	sp,sp,16
    8a94:	00008067          	ret
    8a98:	00c45783          	lhu	a5,12(s0)
    8a9c:	fffff737          	lui	a4,0xfffff
    8aa0:	fff70713          	addi	a4,a4,-1 # ffffefff <//.+0xfffe9087>
    8aa4:	00e7f7b3          	and	a5,a5,a4
    8aa8:	00c12083          	lw	ra,12(sp)
    8aac:	00f41623          	sh	a5,12(s0)
    8ab0:	00812403          	lw	s0,8(sp)
    8ab4:	01010113          	addi	sp,sp,16
    8ab8:	00008067          	ret

00008abc <__sclose>:
    8abc:	00e59583          	lh	a1,14(a1)
    8ac0:	2e80406f          	j	cda8 <_close_r>

00008ac4 <strcmp>:
    8ac4:	00b56733          	or	a4,a0,a1
    8ac8:	fff00393          	li	t2,-1
    8acc:	00377713          	andi	a4,a4,3
    8ad0:	10071063          	bnez	a4,8bd0 <strcmp+0x10c>
    8ad4:	7f7f87b7          	lui	a5,0x7f7f8
    8ad8:	f7f78793          	addi	a5,a5,-129 # 7f7f7f7f <//.+0x7f7e2007>
    8adc:	00052603          	lw	a2,0(a0)
    8ae0:	0005a683          	lw	a3,0(a1)
    8ae4:	00f672b3          	and	t0,a2,a5
    8ae8:	00f66333          	or	t1,a2,a5
    8aec:	00f282b3          	add	t0,t0,a5
    8af0:	0062e2b3          	or	t0,t0,t1
    8af4:	10729263          	bne	t0,t2,8bf8 <strcmp+0x134>
    8af8:	08d61663          	bne	a2,a3,8b84 <strcmp+0xc0>
    8afc:	00452603          	lw	a2,4(a0)
    8b00:	0045a683          	lw	a3,4(a1)
    8b04:	00f672b3          	and	t0,a2,a5
    8b08:	00f66333          	or	t1,a2,a5
    8b0c:	00f282b3          	add	t0,t0,a5
    8b10:	0062e2b3          	or	t0,t0,t1
    8b14:	0c729e63          	bne	t0,t2,8bf0 <strcmp+0x12c>
    8b18:	06d61663          	bne	a2,a3,8b84 <strcmp+0xc0>
    8b1c:	00852603          	lw	a2,8(a0)
    8b20:	0085a683          	lw	a3,8(a1)
    8b24:	00f672b3          	and	t0,a2,a5
    8b28:	00f66333          	or	t1,a2,a5
    8b2c:	00f282b3          	add	t0,t0,a5
    8b30:	0062e2b3          	or	t0,t0,t1
    8b34:	0c729863          	bne	t0,t2,8c04 <strcmp+0x140>
    8b38:	04d61663          	bne	a2,a3,8b84 <strcmp+0xc0>
    8b3c:	00c52603          	lw	a2,12(a0)
    8b40:	00c5a683          	lw	a3,12(a1)
    8b44:	00f672b3          	and	t0,a2,a5
    8b48:	00f66333          	or	t1,a2,a5
    8b4c:	00f282b3          	add	t0,t0,a5
    8b50:	0062e2b3          	or	t0,t0,t1
    8b54:	0c729263          	bne	t0,t2,8c18 <strcmp+0x154>
    8b58:	02d61663          	bne	a2,a3,8b84 <strcmp+0xc0>
    8b5c:	01052603          	lw	a2,16(a0)
    8b60:	0105a683          	lw	a3,16(a1)
    8b64:	00f672b3          	and	t0,a2,a5
    8b68:	00f66333          	or	t1,a2,a5
    8b6c:	00f282b3          	add	t0,t0,a5
    8b70:	0062e2b3          	or	t0,t0,t1
    8b74:	0a729c63          	bne	t0,t2,8c2c <strcmp+0x168>
    8b78:	01450513          	addi	a0,a0,20
    8b7c:	01458593          	addi	a1,a1,20
    8b80:	f4d60ee3          	beq	a2,a3,8adc <strcmp+0x18>
    8b84:	01061713          	slli	a4,a2,0x10
    8b88:	01069793          	slli	a5,a3,0x10
    8b8c:	00f71e63          	bne	a4,a5,8ba8 <strcmp+0xe4>
    8b90:	01065713          	srli	a4,a2,0x10
    8b94:	0106d793          	srli	a5,a3,0x10
    8b98:	40f70533          	sub	a0,a4,a5
    8b9c:	0ff57593          	andi	a1,a0,255
    8ba0:	02059063          	bnez	a1,8bc0 <strcmp+0xfc>
    8ba4:	00008067          	ret
    8ba8:	01075713          	srli	a4,a4,0x10
    8bac:	0107d793          	srli	a5,a5,0x10
    8bb0:	40f70533          	sub	a0,a4,a5
    8bb4:	0ff57593          	andi	a1,a0,255
    8bb8:	00059463          	bnez	a1,8bc0 <strcmp+0xfc>
    8bbc:	00008067          	ret
    8bc0:	0ff77713          	andi	a4,a4,255
    8bc4:	0ff7f793          	andi	a5,a5,255
    8bc8:	40f70533          	sub	a0,a4,a5
    8bcc:	00008067          	ret
    8bd0:	00054603          	lbu	a2,0(a0)
    8bd4:	0005c683          	lbu	a3,0(a1)
    8bd8:	00150513          	addi	a0,a0,1
    8bdc:	00158593          	addi	a1,a1,1
    8be0:	00d61463          	bne	a2,a3,8be8 <strcmp+0x124>
    8be4:	fe0616e3          	bnez	a2,8bd0 <strcmp+0x10c>
    8be8:	40d60533          	sub	a0,a2,a3
    8bec:	00008067          	ret
    8bf0:	00450513          	addi	a0,a0,4
    8bf4:	00458593          	addi	a1,a1,4
    8bf8:	fcd61ce3          	bne	a2,a3,8bd0 <strcmp+0x10c>
    8bfc:	00000513          	li	a0,0
    8c00:	00008067          	ret
    8c04:	00850513          	addi	a0,a0,8
    8c08:	00858593          	addi	a1,a1,8
    8c0c:	fcd612e3          	bne	a2,a3,8bd0 <strcmp+0x10c>
    8c10:	00000513          	li	a0,0
    8c14:	00008067          	ret
    8c18:	00c50513          	addi	a0,a0,12
    8c1c:	00c58593          	addi	a1,a1,12
    8c20:	fad618e3          	bne	a2,a3,8bd0 <strcmp+0x10c>
    8c24:	00000513          	li	a0,0
    8c28:	00008067          	ret
    8c2c:	01050513          	addi	a0,a0,16
    8c30:	01058593          	addi	a1,a1,16
    8c34:	f8d61ee3          	bne	a2,a3,8bd0 <strcmp+0x10c>
    8c38:	00000513          	li	a0,0
    8c3c:	00008067          	ret

00008c40 <strcpy>:
    8c40:	00b567b3          	or	a5,a0,a1
    8c44:	0037f793          	andi	a5,a5,3
    8c48:	08079263          	bnez	a5,8ccc <strcpy+0x8c>
    8c4c:	0005a703          	lw	a4,0(a1)
    8c50:	7f7f86b7          	lui	a3,0x7f7f8
    8c54:	f7f68693          	addi	a3,a3,-129 # 7f7f7f7f <//.+0x7f7e2007>
    8c58:	00d777b3          	and	a5,a4,a3
    8c5c:	00d787b3          	add	a5,a5,a3
    8c60:	00e7e7b3          	or	a5,a5,a4
    8c64:	00d7e7b3          	or	a5,a5,a3
    8c68:	fff00613          	li	a2,-1
    8c6c:	06c79e63          	bne	a5,a2,8ce8 <strcpy+0xa8>
    8c70:	00050613          	mv	a2,a0
    8c74:	fff00813          	li	a6,-1
    8c78:	00e62023          	sw	a4,0(a2) # 7ff00000 <//.+0x7feea088>
    8c7c:	0045a703          	lw	a4,4(a1)
    8c80:	00458593          	addi	a1,a1,4
    8c84:	00460613          	addi	a2,a2,4
    8c88:	00d777b3          	and	a5,a4,a3
    8c8c:	00d787b3          	add	a5,a5,a3
    8c90:	00e7e7b3          	or	a5,a5,a4
    8c94:	00d7e7b3          	or	a5,a5,a3
    8c98:	ff0780e3          	beq	a5,a6,8c78 <strcpy+0x38>
    8c9c:	0005c783          	lbu	a5,0(a1)
    8ca0:	0015c703          	lbu	a4,1(a1)
    8ca4:	0025c683          	lbu	a3,2(a1)
    8ca8:	00f60023          	sb	a5,0(a2)
    8cac:	00078a63          	beqz	a5,8cc0 <strcpy+0x80>
    8cb0:	00e600a3          	sb	a4,1(a2)
    8cb4:	00070663          	beqz	a4,8cc0 <strcpy+0x80>
    8cb8:	00d60123          	sb	a3,2(a2)
    8cbc:	00069463          	bnez	a3,8cc4 <strcpy+0x84>
    8cc0:	00008067          	ret
    8cc4:	000601a3          	sb	zero,3(a2)
    8cc8:	00008067          	ret
    8ccc:	00050793          	mv	a5,a0
    8cd0:	0005c703          	lbu	a4,0(a1)
    8cd4:	00178793          	addi	a5,a5,1
    8cd8:	00158593          	addi	a1,a1,1
    8cdc:	fee78fa3          	sb	a4,-1(a5)
    8ce0:	fe0718e3          	bnez	a4,8cd0 <strcpy+0x90>
    8ce4:	00008067          	ret
    8ce8:	00050613          	mv	a2,a0
    8cec:	fb1ff06f          	j	8c9c <strcpy+0x5c>

00008cf0 <strlen>:
    8cf0:	00357793          	andi	a5,a0,3
    8cf4:	00050713          	mv	a4,a0
    8cf8:	04079c63          	bnez	a5,8d50 <strlen+0x60>
    8cfc:	7f7f86b7          	lui	a3,0x7f7f8
    8d00:	f7f68693          	addi	a3,a3,-129 # 7f7f7f7f <//.+0x7f7e2007>
    8d04:	fff00593          	li	a1,-1
    8d08:	00072603          	lw	a2,0(a4)
    8d0c:	00470713          	addi	a4,a4,4
    8d10:	00d677b3          	and	a5,a2,a3
    8d14:	00d787b3          	add	a5,a5,a3
    8d18:	00c7e7b3          	or	a5,a5,a2
    8d1c:	00d7e7b3          	or	a5,a5,a3
    8d20:	feb784e3          	beq	a5,a1,8d08 <strlen+0x18>
    8d24:	ffc74683          	lbu	a3,-4(a4)
    8d28:	ffd74603          	lbu	a2,-3(a4)
    8d2c:	ffe74783          	lbu	a5,-2(a4)
    8d30:	40a70733          	sub	a4,a4,a0
    8d34:	04068063          	beqz	a3,8d74 <strlen+0x84>
    8d38:	02060a63          	beqz	a2,8d6c <strlen+0x7c>
    8d3c:	00f03533          	snez	a0,a5
    8d40:	00e50533          	add	a0,a0,a4
    8d44:	ffe50513          	addi	a0,a0,-2
    8d48:	00008067          	ret
    8d4c:	fa0688e3          	beqz	a3,8cfc <strlen+0xc>
    8d50:	00074783          	lbu	a5,0(a4)
    8d54:	00170713          	addi	a4,a4,1
    8d58:	00377693          	andi	a3,a4,3
    8d5c:	fe0798e3          	bnez	a5,8d4c <strlen+0x5c>
    8d60:	40a70733          	sub	a4,a4,a0
    8d64:	fff70513          	addi	a0,a4,-1
    8d68:	00008067          	ret
    8d6c:	ffd70513          	addi	a0,a4,-3
    8d70:	00008067          	ret
    8d74:	ffc70513          	addi	a0,a4,-4
    8d78:	00008067          	ret

00008d7c <strncpy>:
    8d7c:	00a5e7b3          	or	a5,a1,a0
    8d80:	0037f793          	andi	a5,a5,3
    8d84:	00050713          	mv	a4,a0
    8d88:	06079863          	bnez	a5,8df8 <strncpy+0x7c>
    8d8c:	00300793          	li	a5,3
    8d90:	06c7f463          	bgeu	a5,a2,8df8 <strncpy+0x7c>
    8d94:	feff0337          	lui	t1,0xfeff0
    8d98:	808088b7          	lui	a7,0x80808
    8d9c:	eff30313          	addi	t1,t1,-257 # fefefeff <//.+0xfefd9f87>
    8da0:	08088893          	addi	a7,a7,128 # 80808080 <//.+0x807f2108>
    8da4:	00300e13          	li	t3,3
    8da8:	0005a683          	lw	a3,0(a1)
    8dac:	006687b3          	add	a5,a3,t1
    8db0:	fff6c813          	not	a6,a3
    8db4:	0107f7b3          	and	a5,a5,a6
    8db8:	0117f7b3          	and	a5,a5,a7
    8dbc:	02079e63          	bnez	a5,8df8 <strncpy+0x7c>
    8dc0:	00d72023          	sw	a3,0(a4)
    8dc4:	ffc60613          	addi	a2,a2,-4
    8dc8:	00470713          	addi	a4,a4,4
    8dcc:	00458593          	addi	a1,a1,4
    8dd0:	fcce6ce3          	bltu	t3,a2,8da8 <strncpy+0x2c>
    8dd4:	00158593          	addi	a1,a1,1
    8dd8:	00170793          	addi	a5,a4,1
    8ddc:	02060463          	beqz	a2,8e04 <strncpy+0x88>
    8de0:	fff5c683          	lbu	a3,-1(a1)
    8de4:	fff60813          	addi	a6,a2,-1
    8de8:	fed78fa3          	sb	a3,-1(a5)
    8dec:	00068e63          	beqz	a3,8e08 <strncpy+0x8c>
    8df0:	00078713          	mv	a4,a5
    8df4:	00080613          	mv	a2,a6
    8df8:	00158593          	addi	a1,a1,1
    8dfc:	00170793          	addi	a5,a4,1
    8e00:	fe0610e3          	bnez	a2,8de0 <strncpy+0x64>
    8e04:	00008067          	ret
    8e08:	00c70633          	add	a2,a4,a2
    8e0c:	00080a63          	beqz	a6,8e20 <strncpy+0xa4>
    8e10:	00178793          	addi	a5,a5,1
    8e14:	fe078fa3          	sb	zero,-1(a5)
    8e18:	fec79ce3          	bne	a5,a2,8e10 <strncpy+0x94>
    8e1c:	00008067          	ret
    8e20:	00008067          	ret

00008e24 <_svfprintf_r>:
    8e24:	e1010113          	addi	sp,sp,-496
    8e28:	1e112623          	sw	ra,492(sp)
    8e2c:	1f212023          	sw	s2,480(sp)
    8e30:	1d812423          	sw	s8,456(sp)
    8e34:	1da12023          	sw	s10,448(sp)
    8e38:	00058c13          	mv	s8,a1
    8e3c:	00060913          	mv	s2,a2
    8e40:	00d12a23          	sw	a3,20(sp)
    8e44:	1e812423          	sw	s0,488(sp)
    8e48:	1e912223          	sw	s1,484(sp)
    8e4c:	1d312e23          	sw	s3,476(sp)
    8e50:	1d412c23          	sw	s4,472(sp)
    8e54:	1d512a23          	sw	s5,468(sp)
    8e58:	1d612823          	sw	s6,464(sp)
    8e5c:	1d712623          	sw	s7,460(sp)
    8e60:	1d912223          	sw	s9,452(sp)
    8e64:	1bb12e23          	sw	s11,444(sp)
    8e68:	00050d13          	mv	s10,a0
    8e6c:	c21fd0ef          	jal	ra,6a8c <_localeconv_r>
    8e70:	00052783          	lw	a5,0(a0)
    8e74:	00078513          	mv	a0,a5
    8e78:	02f12823          	sw	a5,48(sp)
    8e7c:	e75ff0ef          	jal	ra,8cf0 <strlen>
    8e80:	00cc5783          	lhu	a5,12(s8)
    8e84:	0e012823          	sw	zero,240(sp)
    8e88:	0e012a23          	sw	zero,244(sp)
    8e8c:	0e012c23          	sw	zero,248(sp)
    8e90:	0e012e23          	sw	zero,252(sp)
    8e94:	0807f793          	andi	a5,a5,128
    8e98:	02a12623          	sw	a0,44(sp)
    8e9c:	00078863          	beqz	a5,8eac <_svfprintf_r+0x88>
    8ea0:	010c2783          	lw	a5,16(s8)
    8ea4:	00079463          	bnez	a5,8eac <_svfprintf_r+0x88>
    8ea8:	52c0106f          	j	a3d4 <_svfprintf_r+0x15b0>
    8eac:	10c10793          	addi	a5,sp,268
    8eb0:	0ef12223          	sw	a5,228(sp)
    8eb4:	00078893          	mv	a7,a5
    8eb8:	000157b7          	lui	a5,0x15
    8ebc:	8d078793          	addi	a5,a5,-1840 # 148d0 <__mprec_bigtens+0x28>
    8ec0:	00f12c23          	sw	a5,24(sp)
    8ec4:	000157b7          	lui	a5,0x15
    8ec8:	a4c78793          	addi	a5,a5,-1460 # 14a4c <zeroes.4471>
    8ecc:	00090b13          	mv	s6,s2
    8ed0:	00f12423          	sw	a5,8(sp)
    8ed4:	000b4783          	lbu	a5,0(s6)
    8ed8:	0e012623          	sw	zero,236(sp)
    8edc:	0e012423          	sw	zero,232(sp)
    8ee0:	02012023          	sw	zero,32(sp)
    8ee4:	02012a23          	sw	zero,52(sp)
    8ee8:	02012c23          	sw	zero,56(sp)
    8eec:	02012e23          	sw	zero,60(sp)
    8ef0:	04012423          	sw	zero,72(sp)
    8ef4:	04012623          	sw	zero,76(sp)
    8ef8:	00012623          	sw	zero,12(sp)
    8efc:	22078463          	beqz	a5,9124 <_svfprintf_r+0x300>
    8f00:	000b0413          	mv	s0,s6
    8f04:	02500713          	li	a4,37
    8f08:	2ce78463          	beq	a5,a4,91d0 <_svfprintf_r+0x3ac>
    8f0c:	00144783          	lbu	a5,1(s0)
    8f10:	00140413          	addi	s0,s0,1
    8f14:	fe079ae3          	bnez	a5,8f08 <_svfprintf_r+0xe4>
    8f18:	416404b3          	sub	s1,s0,s6
    8f1c:	21640463          	beq	s0,s6,9124 <_svfprintf_r+0x300>
    8f20:	0ec12703          	lw	a4,236(sp)
    8f24:	0e812783          	lw	a5,232(sp)
    8f28:	0168a023          	sw	s6,0(a7)
    8f2c:	00970733          	add	a4,a4,s1
    8f30:	00178793          	addi	a5,a5,1
    8f34:	0098a223          	sw	s1,4(a7)
    8f38:	0ee12623          	sw	a4,236(sp)
    8f3c:	0ef12423          	sw	a5,232(sp)
    8f40:	00700713          	li	a4,7
    8f44:	00888893          	addi	a7,a7,8
    8f48:	28f74c63          	blt	a4,a5,91e0 <_svfprintf_r+0x3bc>
    8f4c:	00c12703          	lw	a4,12(sp)
    8f50:	00044783          	lbu	a5,0(s0)
    8f54:	00970733          	add	a4,a4,s1
    8f58:	00e12623          	sw	a4,12(sp)
    8f5c:	1c078463          	beqz	a5,9124 <_svfprintf_r+0x300>
    8f60:	00144483          	lbu	s1,1(s0)
    8f64:	0c0103a3          	sb	zero,199(sp)
    8f68:	00140413          	addi	s0,s0,1
    8f6c:	fff00d93          	li	s11,-1
    8f70:	00000993          	li	s3,0
    8f74:	00000a13          	li	s4,0
    8f78:	05a00913          	li	s2,90
    8f7c:	00900a93          	li	s5,9
    8f80:	02a00b93          	li	s7,42
    8f84:	00088c93          	mv	s9,a7
    8f88:	00140413          	addi	s0,s0,1
    8f8c:	fe048793          	addi	a5,s1,-32 # 7fffffe0 <//.+0x7ffea068>
    8f90:	04f96463          	bltu	s2,a5,8fd8 <_svfprintf_r+0x1b4>
    8f94:	01812703          	lw	a4,24(sp)
    8f98:	00279793          	slli	a5,a5,0x2
    8f9c:	00e787b3          	add	a5,a5,a4
    8fa0:	0007a783          	lw	a5,0(a5)
    8fa4:	00078067          	jr	a5
    8fa8:	00000993          	li	s3,0
    8fac:	fd048693          	addi	a3,s1,-48
    8fb0:	00044483          	lbu	s1,0(s0)
    8fb4:	00299793          	slli	a5,s3,0x2
    8fb8:	013787b3          	add	a5,a5,s3
    8fbc:	00179793          	slli	a5,a5,0x1
    8fc0:	00f689b3          	add	s3,a3,a5
    8fc4:	fd048693          	addi	a3,s1,-48
    8fc8:	00140413          	addi	s0,s0,1
    8fcc:	fedaf2e3          	bgeu	s5,a3,8fb0 <_svfprintf_r+0x18c>
    8fd0:	fe048793          	addi	a5,s1,-32
    8fd4:	fcf970e3          	bgeu	s2,a5,8f94 <_svfprintf_r+0x170>
    8fd8:	000c8893          	mv	a7,s9
    8fdc:	14048463          	beqz	s1,9124 <_svfprintf_r+0x300>
    8fe0:	14910623          	sb	s1,332(sp)
    8fe4:	0c0103a3          	sb	zero,199(sp)
    8fe8:	00100a93          	li	s5,1
    8fec:	00100c93          	li	s9,1
    8ff0:	14c10b13          	addi	s6,sp,332
    8ff4:	00012823          	sw	zero,16(sp)
    8ff8:	00000d93          	li	s11,0
    8ffc:	02012423          	sw	zero,40(sp)
    9000:	02012223          	sw	zero,36(sp)
    9004:	00012e23          	sw	zero,28(sp)
    9008:	002a7b93          	andi	s7,s4,2
    900c:	000b8463          	beqz	s7,9014 <_svfprintf_r+0x1f0>
    9010:	002a8a93          	addi	s5,s5,2
    9014:	084a7913          	andi	s2,s4,132
    9018:	0ec12783          	lw	a5,236(sp)
    901c:	00091663          	bnez	s2,9028 <_svfprintf_r+0x204>
    9020:	415986b3          	sub	a3,s3,s5
    9024:	5ed04ae3          	bgtz	a3,9e18 <_svfprintf_r+0xff4>
    9028:	0c714703          	lbu	a4,199(sp)
    902c:	02070a63          	beqz	a4,9060 <_svfprintf_r+0x23c>
    9030:	0e812703          	lw	a4,232(sp)
    9034:	0c710693          	addi	a3,sp,199
    9038:	00d8a023          	sw	a3,0(a7)
    903c:	00178793          	addi	a5,a5,1
    9040:	00100693          	li	a3,1
    9044:	00170713          	addi	a4,a4,1
    9048:	00d8a223          	sw	a3,4(a7)
    904c:	0ef12623          	sw	a5,236(sp)
    9050:	0ee12423          	sw	a4,232(sp)
    9054:	00700693          	li	a3,7
    9058:	00888893          	addi	a7,a7,8
    905c:	48e6c863          	blt	a3,a4,94ec <_svfprintf_r+0x6c8>
    9060:	020b8a63          	beqz	s7,9094 <_svfprintf_r+0x270>
    9064:	0e812703          	lw	a4,232(sp)
    9068:	0c810693          	addi	a3,sp,200
    906c:	00d8a023          	sw	a3,0(a7)
    9070:	00278793          	addi	a5,a5,2
    9074:	00200693          	li	a3,2
    9078:	00170713          	addi	a4,a4,1
    907c:	00d8a223          	sw	a3,4(a7)
    9080:	0ef12623          	sw	a5,236(sp)
    9084:	0ee12423          	sw	a4,232(sp)
    9088:	00700693          	li	a3,7
    908c:	00888893          	addi	a7,a7,8
    9090:	66e6cce3          	blt	a3,a4,9f08 <_svfprintf_r+0x10e4>
    9094:	08000713          	li	a4,128
    9098:	3ce90ee3          	beq	s2,a4,9c74 <_svfprintf_r+0xe50>
    909c:	419d8db3          	sub	s11,s11,s9
    90a0:	49b04ce3          	bgtz	s11,9d38 <_svfprintf_r+0xf14>
    90a4:	100a7713          	andi	a4,s4,256
    90a8:	280718e3          	bnez	a4,9b38 <_svfprintf_r+0xd14>
    90ac:	0e812703          	lw	a4,232(sp)
    90b0:	019787b3          	add	a5,a5,s9
    90b4:	0168a023          	sw	s6,0(a7)
    90b8:	00170713          	addi	a4,a4,1
    90bc:	0198a223          	sw	s9,4(a7)
    90c0:	0ef12623          	sw	a5,236(sp)
    90c4:	0ee12423          	sw	a4,232(sp)
    90c8:	00700693          	li	a3,7
    90cc:	54e6cc63          	blt	a3,a4,9624 <_svfprintf_r+0x800>
    90d0:	00888893          	addi	a7,a7,8
    90d4:	004a7a13          	andi	s4,s4,4
    90d8:	000a0663          	beqz	s4,90e4 <_svfprintf_r+0x2c0>
    90dc:	415984b3          	sub	s1,s3,s5
    90e0:	56904263          	bgtz	s1,9644 <_svfprintf_r+0x820>
    90e4:	0159d463          	bge	s3,s5,90ec <_svfprintf_r+0x2c8>
    90e8:	000a8993          	mv	s3,s5
    90ec:	00c12703          	lw	a4,12(sp)
    90f0:	01370733          	add	a4,a4,s3
    90f4:	00e12623          	sw	a4,12(sp)
    90f8:	4e079ae3          	bnez	a5,9dec <_svfprintf_r+0xfc8>
    90fc:	01012783          	lw	a5,16(sp)
    9100:	0e012423          	sw	zero,232(sp)
    9104:	00078863          	beqz	a5,9114 <_svfprintf_r+0x2f0>
    9108:	01012583          	lw	a1,16(sp)
    910c:	000d0513          	mv	a0,s10
    9110:	a1dfa0ef          	jal	ra,3b2c <_free_r>
    9114:	10c10893          	addi	a7,sp,268
    9118:	00040b13          	mv	s6,s0
    911c:	000b4783          	lbu	a5,0(s6)
    9120:	de0790e3          	bnez	a5,8f00 <_svfprintf_r+0xdc>
    9124:	0ec12783          	lw	a5,236(sp)
    9128:	00078463          	beqz	a5,9130 <_svfprintf_r+0x30c>
    912c:	3050106f          	j	ac30 <_svfprintf_r+0x1e0c>
    9130:	00cc5783          	lhu	a5,12(s8)
    9134:	0407f793          	andi	a5,a5,64
    9138:	00078463          	beqz	a5,9140 <_svfprintf_r+0x31c>
    913c:	3bc0206f          	j	b4f8 <_svfprintf_r+0x26d4>
    9140:	1ec12083          	lw	ra,492(sp)
    9144:	1e812403          	lw	s0,488(sp)
    9148:	00c12503          	lw	a0,12(sp)
    914c:	1e412483          	lw	s1,484(sp)
    9150:	1e012903          	lw	s2,480(sp)
    9154:	1dc12983          	lw	s3,476(sp)
    9158:	1d812a03          	lw	s4,472(sp)
    915c:	1d412a83          	lw	s5,468(sp)
    9160:	1d012b03          	lw	s6,464(sp)
    9164:	1cc12b83          	lw	s7,460(sp)
    9168:	1c812c03          	lw	s8,456(sp)
    916c:	1c412c83          	lw	s9,452(sp)
    9170:	1c012d03          	lw	s10,448(sp)
    9174:	1bc12d83          	lw	s11,444(sp)
    9178:	1f010113          	addi	sp,sp,496
    917c:	00008067          	ret
    9180:	000d0513          	mv	a0,s10
    9184:	909fd0ef          	jal	ra,6a8c <_localeconv_r>
    9188:	00452783          	lw	a5,4(a0)
    918c:	00078513          	mv	a0,a5
    9190:	04f12623          	sw	a5,76(sp)
    9194:	b5dff0ef          	jal	ra,8cf0 <strlen>
    9198:	00050793          	mv	a5,a0
    919c:	000d0513          	mv	a0,s10
    91a0:	00078493          	mv	s1,a5
    91a4:	04f12423          	sw	a5,72(sp)
    91a8:	8e5fd0ef          	jal	ra,6a8c <_localeconv_r>
    91ac:	00852783          	lw	a5,8(a0)
    91b0:	02f12e23          	sw	a5,60(sp)
    91b4:	00048463          	beqz	s1,91bc <_svfprintf_r+0x398>
    91b8:	1240106f          	j	a2dc <_svfprintf_r+0x14b8>
    91bc:	00044483          	lbu	s1,0(s0)
    91c0:	dc9ff06f          	j	8f88 <_svfprintf_r+0x164>
    91c4:	00044483          	lbu	s1,0(s0)
    91c8:	020a6a13          	ori	s4,s4,32
    91cc:	dbdff06f          	j	8f88 <_svfprintf_r+0x164>
    91d0:	416404b3          	sub	s1,s0,s6
    91d4:	d56416e3          	bne	s0,s6,8f20 <_svfprintf_r+0xfc>
    91d8:	00044783          	lbu	a5,0(s0)
    91dc:	d81ff06f          	j	8f5c <_svfprintf_r+0x138>
    91e0:	0e410613          	addi	a2,sp,228
    91e4:	000c0593          	mv	a1,s8
    91e8:	000d0513          	mv	a0,s10
    91ec:	6ad040ef          	jal	ra,e098 <__ssprint_r>
    91f0:	f40510e3          	bnez	a0,9130 <_svfprintf_r+0x30c>
    91f4:	10c10893          	addi	a7,sp,268
    91f8:	d55ff06f          	j	8f4c <_svfprintf_r+0x128>
    91fc:	008a7793          	andi	a5,s4,8
    9200:	000c8893          	mv	a7,s9
    9204:	00078463          	beqz	a5,920c <_svfprintf_r+0x3e8>
    9208:	0640106f          	j	a26c <_svfprintf_r+0x1448>
    920c:	01412783          	lw	a5,20(sp)
    9210:	0b010513          	addi	a0,sp,176
    9214:	01912823          	sw	s9,16(sp)
    9218:	00778793          	addi	a5,a5,7
    921c:	ff87f793          	andi	a5,a5,-8
    9220:	0007a583          	lw	a1,0(a5)
    9224:	0047a603          	lw	a2,4(a5)
    9228:	00878793          	addi	a5,a5,8
    922c:	00f12a23          	sw	a5,20(sp)
    9230:	2950a0ef          	jal	ra,13cc4 <__extenddftf2>
    9234:	0b012783          	lw	a5,176(sp)
    9238:	01012883          	lw	a7,16(sp)
    923c:	0ef12823          	sw	a5,240(sp)
    9240:	0b412783          	lw	a5,180(sp)
    9244:	0ef12a23          	sw	a5,244(sp)
    9248:	0b812783          	lw	a5,184(sp)
    924c:	0ef12c23          	sw	a5,248(sp)
    9250:	0bc12783          	lw	a5,188(sp)
    9254:	0ef12e23          	sw	a5,252(sp)
    9258:	0f010513          	addi	a0,sp,240
    925c:	01112823          	sw	a7,16(sp)
    9260:	fc0fd0ef          	jal	ra,6a20 <_ldcheck>
    9264:	0ca12623          	sw	a0,204(sp)
    9268:	00200793          	li	a5,2
    926c:	01012883          	lw	a7,16(sp)
    9270:	00f51463          	bne	a0,a5,9278 <_svfprintf_r+0x454>
    9274:	6180106f          	j	a88c <_svfprintf_r+0x1a68>
    9278:	00100793          	li	a5,1
    927c:	00f51463          	bne	a0,a5,9284 <_svfprintf_r+0x460>
    9280:	0350106f          	j	aab4 <_svfprintf_r+0x1c90>
    9284:	06100793          	li	a5,97
    9288:	00f49463          	bne	s1,a5,9290 <_svfprintf_r+0x46c>
    928c:	1700206f          	j	b3fc <_svfprintf_r+0x25d8>
    9290:	04100793          	li	a5,65
    9294:	00f49463          	bne	s1,a5,929c <_svfprintf_r+0x478>
    9298:	5110106f          	j	afa8 <_svfprintf_r+0x2184>
    929c:	fdf4f713          	andi	a4,s1,-33
    92a0:	fff00793          	li	a5,-1
    92a4:	02e12423          	sw	a4,40(sp)
    92a8:	00fd9463          	bne	s11,a5,92b0 <_svfprintf_r+0x48c>
    92ac:	1d50106f          	j	ac80 <_svfprintf_r+0x1e5c>
    92b0:	04700793          	li	a5,71
    92b4:	00f71463          	bne	a4,a5,92bc <_svfprintf_r+0x498>
    92b8:	2300206f          	j	b4e8 <_svfprintf_r+0x26c4>
    92bc:	0fc12b83          	lw	s7,252(sp)
    92c0:	05412823          	sw	s4,80(sp)
    92c4:	0f012e03          	lw	t3,240(sp)
    92c8:	0f412e83          	lw	t4,244(sp)
    92cc:	0f812f03          	lw	t5,248(sp)
    92d0:	100a6793          	ori	a5,s4,256
    92d4:	000bd463          	bgez	s7,92dc <_svfprintf_r+0x4b8>
    92d8:	0900206f          	j	b368 <_svfprintf_r+0x2544>
    92dc:	04012c23          	sw	zero,88(sp)
    92e0:	00078a13          	mv	s4,a5
    92e4:	00012823          	sw	zero,16(sp)
    92e8:	02812703          	lw	a4,40(sp)
    92ec:	04600793          	li	a5,70
    92f0:	00f71463          	bne	a4,a5,92f8 <_svfprintf_r+0x4d4>
    92f4:	2810106f          	j	ad74 <_svfprintf_r+0x1f50>
    92f8:	04500793          	li	a5,69
    92fc:	05112023          	sw	a7,64(sp)
    9300:	00f71463          	bne	a4,a5,9308 <_svfprintf_r+0x4e4>
    9304:	08c0206f          	j	b390 <_svfprintf_r+0x256c>
    9308:	0b010a93          	addi	s5,sp,176
    930c:	0d010793          	addi	a5,sp,208
    9310:	0cc10713          	addi	a4,sp,204
    9314:	0dc10813          	addi	a6,sp,220
    9318:	000d8693          	mv	a3,s11
    931c:	00200613          	li	a2,2
    9320:	000a8593          	mv	a1,s5
    9324:	000d0513          	mv	a0,s10
    9328:	0bc12823          	sw	t3,176(sp)
    932c:	03c12223          	sw	t3,36(sp)
    9330:	0bd12a23          	sw	t4,180(sp)
    9334:	03d12023          	sw	t4,32(sp)
    9338:	0be12c23          	sw	t5,184(sp)
    933c:	01e12e23          	sw	t5,28(sp)
    9340:	0b712e23          	sw	s7,188(sp)
    9344:	cdcfc0ef          	jal	ra,5820 <_ldtoa_r>
    9348:	02812703          	lw	a4,40(sp)
    934c:	04700793          	li	a5,71
    9350:	01c12f03          	lw	t5,28(sp)
    9354:	02012e83          	lw	t4,32(sp)
    9358:	02412e03          	lw	t3,36(sp)
    935c:	04012883          	lw	a7,64(sp)
    9360:	00050b13          	mv	s6,a0
    9364:	00f70463          	beq	a4,a5,936c <_svfprintf_r+0x548>
    9368:	3f00206f          	j	b758 <_svfprintf_r+0x2934>
    936c:	05012783          	lw	a5,80(sp)
    9370:	0017f793          	andi	a5,a5,1
    9374:	00078463          	beqz	a5,937c <_svfprintf_r+0x558>
    9378:	1640206f          	j	b4dc <_svfprintf_r+0x26b8>
    937c:	0dc12683          	lw	a3,220(sp)
    9380:	416687b3          	sub	a5,a3,s6
    9384:	02f12023          	sw	a5,32(sp)
    9388:	0cc12703          	lw	a4,204(sp)
    938c:	04700793          	li	a5,71
    9390:	00e12e23          	sw	a4,28(sp)
    9394:	02812703          	lw	a4,40(sp)
    9398:	00f71463          	bne	a4,a5,93a0 <_svfprintf_r+0x57c>
    939c:	11d0106f          	j	acb8 <_svfprintf_r+0x1e94>
    93a0:	02812703          	lw	a4,40(sp)
    93a4:	04600793          	li	a5,70
    93a8:	00f71463          	bne	a4,a5,93b0 <_svfprintf_r+0x58c>
    93ac:	3d90106f          	j	af84 <_svfprintf_r+0x2160>
    93b0:	01c12783          	lw	a5,28(sp)
    93b4:	02812583          	lw	a1,40(sp)
    93b8:	04100613          	li	a2,65
    93bc:	fff78793          	addi	a5,a5,-1
    93c0:	0cf12623          	sw	a5,204(sp)
    93c4:	0ff4f713          	andi	a4,s1,255
    93c8:	00000693          	li	a3,0
    93cc:	00c59863          	bne	a1,a2,93dc <_svfprintf_r+0x5b8>
    93d0:	00f70713          	addi	a4,a4,15
    93d4:	0ff77713          	andi	a4,a4,255
    93d8:	00100693          	li	a3,1
    93dc:	0ce10a23          	sb	a4,212(sp)
    93e0:	02b00713          	li	a4,43
    93e4:	0007da63          	bgez	a5,93f8 <_svfprintf_r+0x5d4>
    93e8:	01c12703          	lw	a4,28(sp)
    93ec:	00100793          	li	a5,1
    93f0:	40e787b3          	sub	a5,a5,a4
    93f4:	02d00713          	li	a4,45
    93f8:	0ce10aa3          	sb	a4,213(sp)
    93fc:	00900713          	li	a4,9
    9400:	00f74463          	blt	a4,a5,9408 <_svfprintf_r+0x5e4>
    9404:	1000206f          	j	b504 <_svfprintf_r+0x26e0>
    9408:	0e310513          	addi	a0,sp,227
    940c:	00050593          	mv	a1,a0
    9410:	00a00693          	li	a3,10
    9414:	06300e13          	li	t3,99
    9418:	02d7e733          	rem	a4,a5,a3
    941c:	00058613          	mv	a2,a1
    9420:	00078813          	mv	a6,a5
    9424:	fff58593          	addi	a1,a1,-1
    9428:	03070713          	addi	a4,a4,48
    942c:	fee60fa3          	sb	a4,-1(a2)
    9430:	02d7c7b3          	div	a5,a5,a3
    9434:	ff0e42e3          	blt	t3,a6,9418 <_svfprintf_r+0x5f4>
    9438:	03078793          	addi	a5,a5,48
    943c:	0ff7f693          	andi	a3,a5,255
    9440:	fed58fa3          	sb	a3,-1(a1)
    9444:	ffe60793          	addi	a5,a2,-2
    9448:	00a7e463          	bltu	a5,a0,9450 <_svfprintf_r+0x62c>
    944c:	3140206f          	j	b760 <_svfprintf_r+0x293c>
    9450:	0d610713          	addi	a4,sp,214
    9454:	0080006f          	j	945c <_svfprintf_r+0x638>
    9458:	0007c683          	lbu	a3,0(a5)
    945c:	00d70023          	sb	a3,0(a4)
    9460:	00178793          	addi	a5,a5,1
    9464:	00170713          	addi	a4,a4,1
    9468:	fea798e3          	bne	a5,a0,9458 <_svfprintf_r+0x634>
    946c:	0e510793          	addi	a5,sp,229
    9470:	0d610713          	addi	a4,sp,214
    9474:	40c787b3          	sub	a5,a5,a2
    9478:	00f707b3          	add	a5,a4,a5
    947c:	0d410713          	addi	a4,sp,212
    9480:	40e787b3          	sub	a5,a5,a4
    9484:	02f12c23          	sw	a5,56(sp)
    9488:	02012703          	lw	a4,32(sp)
    948c:	03812683          	lw	a3,56(sp)
    9490:	00100793          	li	a5,1
    9494:	00d70cb3          	add	s9,a4,a3
    9498:	00e7c463          	blt	a5,a4,94a0 <_svfprintf_r+0x67c>
    949c:	2480206f          	j	b6e4 <_svfprintf_r+0x28c0>
    94a0:	02c12783          	lw	a5,44(sp)
    94a4:	00fc8cb3          	add	s9,s9,a5
    94a8:	05012783          	lw	a5,80(sp)
    94ac:	fffcca93          	not	s5,s9
    94b0:	41fada93          	srai	s5,s5,0x1f
    94b4:	bff7fa13          	andi	s4,a5,-1025
    94b8:	100a6a13          	ori	s4,s4,256
    94bc:	015cfab3          	and	s5,s9,s5
    94c0:	02012423          	sw	zero,40(sp)
    94c4:	02012223          	sw	zero,36(sp)
    94c8:	00012e23          	sw	zero,28(sp)
    94cc:	05812783          	lw	a5,88(sp)
    94d0:	00079463          	bnez	a5,94d8 <_svfprintf_r+0x6b4>
    94d4:	0590106f          	j	ad2c <_svfprintf_r+0x1f08>
    94d8:	02d00793          	li	a5,45
    94dc:	0cf103a3          	sb	a5,199(sp)
    94e0:	00000d93          	li	s11,0
    94e4:	001a8a93          	addi	s5,s5,1
    94e8:	b21ff06f          	j	9008 <_svfprintf_r+0x1e4>
    94ec:	0e410613          	addi	a2,sp,228
    94f0:	000c0593          	mv	a1,s8
    94f4:	000d0513          	mv	a0,s10
    94f8:	3a1040ef          	jal	ra,e098 <__ssprint_r>
    94fc:	100512e3          	bnez	a0,9e00 <_svfprintf_r+0xfdc>
    9500:	0ec12783          	lw	a5,236(sp)
    9504:	10c10893          	addi	a7,sp,268
    9508:	b59ff06f          	j	9060 <_svfprintf_r+0x23c>
    950c:	0e812703          	lw	a4,232(sp)
    9510:	00178c93          	addi	s9,a5,1
    9514:	02012783          	lw	a5,32(sp)
    9518:	00100693          	li	a3,1
    951c:	0168a023          	sw	s6,0(a7)
    9520:	00170493          	addi	s1,a4,1
    9524:	00888913          	addi	s2,a7,8
    9528:	36f6dae3          	bge	a3,a5,a09c <_svfprintf_r+0x1278>
    952c:	00100793          	li	a5,1
    9530:	00f8a223          	sw	a5,4(a7)
    9534:	0f912623          	sw	s9,236(sp)
    9538:	0e912423          	sw	s1,232(sp)
    953c:	00700793          	li	a5,7
    9540:	4a97c4e3          	blt	a5,s1,a1e8 <_svfprintf_r+0x13c4>
    9544:	02c12783          	lw	a5,44(sp)
    9548:	03012703          	lw	a4,48(sp)
    954c:	00148493          	addi	s1,s1,1
    9550:	00fc8cb3          	add	s9,s9,a5
    9554:	00f92223          	sw	a5,4(s2)
    9558:	00e92023          	sw	a4,0(s2)
    955c:	0f912623          	sw	s9,236(sp)
    9560:	0e912423          	sw	s1,232(sp)
    9564:	00700793          	li	a5,7
    9568:	00890913          	addi	s2,s2,8
    956c:	4a97c0e3          	blt	a5,s1,a20c <_svfprintf_r+0x13e8>
    9570:	0f012783          	lw	a5,240(sp)
    9574:	00148693          	addi	a3,s1,1
    9578:	0a010593          	addi	a1,sp,160
    957c:	0af12823          	sw	a5,176(sp)
    9580:	0f412783          	lw	a5,244(sp)
    9584:	0b010513          	addi	a0,sp,176
    9588:	00d12e23          	sw	a3,28(sp)
    958c:	0af12a23          	sw	a5,180(sp)
    9590:	0f812783          	lw	a5,248(sp)
    9594:	0a012023          	sw	zero,160(sp)
    9598:	0a012223          	sw	zero,164(sp)
    959c:	0af12c23          	sw	a5,184(sp)
    95a0:	0fc12783          	lw	a5,252(sp)
    95a4:	0a012423          	sw	zero,168(sp)
    95a8:	0a012623          	sw	zero,172(sp)
    95ac:	0af12e23          	sw	a5,188(sp)
    95b0:	471070ef          	jal	ra,11220 <__eqtf2>
    95b4:	01c12683          	lw	a3,28(sp)
    95b8:	02012783          	lw	a5,32(sp)
    95bc:	00890893          	addi	a7,s2,8
    95c0:	00068713          	mv	a4,a3
    95c4:	fff78d93          	addi	s11,a5,-1
    95c8:	2e050ee3          	beqz	a0,a0c4 <_svfprintf_r+0x12a0>
    95cc:	001b0813          	addi	a6,s6,1
    95d0:	01bc8cb3          	add	s9,s9,s11
    95d4:	01092023          	sw	a6,0(s2)
    95d8:	01b92223          	sw	s11,4(s2)
    95dc:	0f912623          	sw	s9,236(sp)
    95e0:	0ed12423          	sw	a3,232(sp)
    95e4:	00700793          	li	a5,7
    95e8:	00d7d463          	bge	a5,a3,95f0 <_svfprintf_r+0x7cc>
    95ec:	0400106f          	j	a62c <_svfprintf_r+0x1808>
    95f0:	01090793          	addi	a5,s2,16
    95f4:	00248713          	addi	a4,s1,2
    95f8:	00088913          	mv	s2,a7
    95fc:	00078893          	mv	a7,a5
    9600:	03812603          	lw	a2,56(sp)
    9604:	0d410693          	addi	a3,sp,212
    9608:	00d92023          	sw	a3,0(s2)
    960c:	00cc87b3          	add	a5,s9,a2
    9610:	00c92223          	sw	a2,4(s2)
    9614:	0ef12623          	sw	a5,236(sp)
    9618:	0ee12423          	sw	a4,232(sp)
    961c:	00700693          	li	a3,7
    9620:	aae6dae3          	bge	a3,a4,90d4 <_svfprintf_r+0x2b0>
    9624:	0e410613          	addi	a2,sp,228
    9628:	000c0593          	mv	a1,s8
    962c:	000d0513          	mv	a0,s10
    9630:	269040ef          	jal	ra,e098 <__ssprint_r>
    9634:	7c051663          	bnez	a0,9e00 <_svfprintf_r+0xfdc>
    9638:	0ec12783          	lw	a5,236(sp)
    963c:	10c10893          	addi	a7,sp,268
    9640:	a95ff06f          	j	90d4 <_svfprintf_r+0x2b0>
    9644:	01000693          	li	a3,16
    9648:	0e812703          	lw	a4,232(sp)
    964c:	0096c463          	blt	a3,s1,9654 <_svfprintf_r+0x830>
    9650:	5350106f          	j	b384 <_svfprintf_r+0x2560>
    9654:	000156b7          	lui	a3,0x15
    9658:	a3c68e93          	addi	t4,a3,-1476 # 14a3c <blanks.4470>
    965c:	01000913          	li	s2,16
    9660:	00700a13          	li	s4,7
    9664:	000e8b13          	mv	s6,t4
    9668:	00c0006f          	j	9674 <_svfprintf_r+0x850>
    966c:	ff048493          	addi	s1,s1,-16
    9670:	04995663          	bge	s2,s1,96bc <_svfprintf_r+0x898>
    9674:	01078793          	addi	a5,a5,16
    9678:	00170713          	addi	a4,a4,1
    967c:	0168a023          	sw	s6,0(a7)
    9680:	0128a223          	sw	s2,4(a7)
    9684:	0ef12623          	sw	a5,236(sp)
    9688:	0ee12423          	sw	a4,232(sp)
    968c:	00888893          	addi	a7,a7,8
    9690:	fcea5ee3          	bge	s4,a4,966c <_svfprintf_r+0x848>
    9694:	0e410613          	addi	a2,sp,228
    9698:	000c0593          	mv	a1,s8
    969c:	000d0513          	mv	a0,s10
    96a0:	1f9040ef          	jal	ra,e098 <__ssprint_r>
    96a4:	74051e63          	bnez	a0,9e00 <_svfprintf_r+0xfdc>
    96a8:	ff048493          	addi	s1,s1,-16
    96ac:	0ec12783          	lw	a5,236(sp)
    96b0:	0e812703          	lw	a4,232(sp)
    96b4:	10c10893          	addi	a7,sp,268
    96b8:	fa994ee3          	blt	s2,s1,9674 <_svfprintf_r+0x850>
    96bc:	000b0e93          	mv	t4,s6
    96c0:	009787b3          	add	a5,a5,s1
    96c4:	00170713          	addi	a4,a4,1
    96c8:	01d8a023          	sw	t4,0(a7)
    96cc:	0098a223          	sw	s1,4(a7)
    96d0:	0ef12623          	sw	a5,236(sp)
    96d4:	0ee12423          	sw	a4,232(sp)
    96d8:	00700693          	li	a3,7
    96dc:	a0e6d4e3          	bge	a3,a4,90e4 <_svfprintf_r+0x2c0>
    96e0:	0e410613          	addi	a2,sp,228
    96e4:	000c0593          	mv	a1,s8
    96e8:	000d0513          	mv	a0,s10
    96ec:	1ad040ef          	jal	ra,e098 <__ssprint_r>
    96f0:	70051863          	bnez	a0,9e00 <_svfprintf_r+0xfdc>
    96f4:	0ec12783          	lw	a5,236(sp)
    96f8:	9edff06f          	j	90e4 <_svfprintf_r+0x2c0>
    96fc:	01412783          	lw	a5,20(sp)
    9700:	0c0103a3          	sb	zero,199(sp)
    9704:	000c8893          	mv	a7,s9
    9708:	0007ab03          	lw	s6,0(a5)
    970c:	00478913          	addi	s2,a5,4
    9710:	4e0b06e3          	beqz	s6,a3fc <_svfprintf_r+0x15d8>
    9714:	fff00793          	li	a5,-1
    9718:	00fd9463          	bne	s11,a5,9720 <_svfprintf_r+0x8fc>
    971c:	2a00106f          	j	a9bc <_svfprintf_r+0x1b98>
    9720:	000d8613          	mv	a2,s11
    9724:	00000593          	li	a1,0
    9728:	000b0513          	mv	a0,s6
    972c:	01912a23          	sw	s9,20(sp)
    9730:	dfdfd0ef          	jal	ra,752c <memchr>
    9734:	00a12823          	sw	a0,16(sp)
    9738:	01412883          	lw	a7,20(sp)
    973c:	00051463          	bnez	a0,9744 <_svfprintf_r+0x920>
    9740:	79c0106f          	j	aedc <_svfprintf_r+0x20b8>
    9744:	01012783          	lw	a5,16(sp)
    9748:	01212a23          	sw	s2,20(sp)
    974c:	00012823          	sw	zero,16(sp)
    9750:	41678cb3          	sub	s9,a5,s6
    9754:	0c714783          	lbu	a5,199(sp)
    9758:	fffcca93          	not	s5,s9
    975c:	41fada93          	srai	s5,s5,0x1f
    9760:	02012423          	sw	zero,40(sp)
    9764:	02012223          	sw	zero,36(sp)
    9768:	00012e23          	sw	zero,28(sp)
    976c:	015cfab3          	and	s5,s9,s5
    9770:	00000d93          	li	s11,0
    9774:	88078ae3          	beqz	a5,9008 <_svfprintf_r+0x1e4>
    9778:	001a8a93          	addi	s5,s5,1
    977c:	88dff06f          	j	9008 <_svfprintf_r+0x1e4>
    9780:	01412703          	lw	a4,20(sp)
    9784:	000c8893          	mv	a7,s9
    9788:	0c0103a3          	sb	zero,199(sp)
    978c:	00072783          	lw	a5,0(a4)
    9790:	00470713          	addi	a4,a4,4
    9794:	00e12a23          	sw	a4,20(sp)
    9798:	14f10623          	sb	a5,332(sp)
    979c:	00100a93          	li	s5,1
    97a0:	00100c93          	li	s9,1
    97a4:	14c10b13          	addi	s6,sp,332
    97a8:	84dff06f          	j	8ff4 <_svfprintf_r+0x1d0>
    97ac:	00044483          	lbu	s1,0(s0)
    97b0:	004a6a13          	ori	s4,s4,4
    97b4:	fd4ff06f          	j	8f88 <_svfprintf_r+0x164>
    97b8:	01412683          	lw	a3,20(sp)
    97bc:	020a7793          	andi	a5,s4,32
    97c0:	000c8893          	mv	a7,s9
    97c4:	0006a703          	lw	a4,0(a3)
    97c8:	00468693          	addi	a3,a3,4
    97cc:	00d12a23          	sw	a3,20(sp)
    97d0:	2e0792e3          	bnez	a5,a2b4 <_svfprintf_r+0x1490>
    97d4:	010a7793          	andi	a5,s4,16
    97d8:	00078463          	beqz	a5,97e0 <_svfprintf_r+0x9bc>
    97dc:	1340106f          	j	a910 <_svfprintf_r+0x1aec>
    97e0:	040a7793          	andi	a5,s4,64
    97e4:	00078463          	beqz	a5,97ec <_svfprintf_r+0x9c8>
    97e8:	3e00106f          	j	abc8 <_svfprintf_r+0x1da4>
    97ec:	200a7a13          	andi	s4,s4,512
    97f0:	000a1463          	bnez	s4,97f8 <_svfprintf_r+0x9d4>
    97f4:	11c0106f          	j	a910 <_svfprintf_r+0x1aec>
    97f8:	00c12783          	lw	a5,12(sp)
    97fc:	00040b13          	mv	s6,s0
    9800:	00f70023          	sb	a5,0(a4)
    9804:	919ff06f          	j	911c <_svfprintf_r+0x2f8>
    9808:	00044483          	lbu	s1,0(s0)
    980c:	06c00793          	li	a5,108
    9810:	3af48ae3          	beq	s1,a5,a3c4 <_svfprintf_r+0x15a0>
    9814:	010a6a13          	ori	s4,s4,16
    9818:	f70ff06f          	j	8f88 <_svfprintf_r+0x164>
    981c:	01412703          	lw	a4,20(sp)
    9820:	03000793          	li	a5,48
    9824:	0cf10423          	sb	a5,200(sp)
    9828:	07800793          	li	a5,120
    982c:	0cf104a3          	sb	a5,201(sp)
    9830:	00470793          	addi	a5,a4,4
    9834:	000c8893          	mv	a7,s9
    9838:	00f12a23          	sw	a5,20(sp)
    983c:	00072c83          	lw	s9,0(a4)
    9840:	000147b7          	lui	a5,0x14
    9844:	2b478793          	addi	a5,a5,692 # 142b4 <__clzsi2+0x9c>
    9848:	02f12a23          	sw	a5,52(sp)
    984c:	00000913          	li	s2,0
    9850:	002a6b93          	ori	s7,s4,2
    9854:	00200793          	li	a5,2
    9858:	07800493          	li	s1,120
    985c:	0c0103a3          	sb	zero,199(sp)
    9860:	fff00693          	li	a3,-1
    9864:	20dd8663          	beq	s11,a3,9a70 <_svfprintf_r+0xc4c>
    9868:	012ce6b3          	or	a3,s9,s2
    986c:	f7fbfa13          	andi	s4,s7,-129
    9870:	1e069e63          	bnez	a3,9a6c <_svfprintf_r+0xc48>
    9874:	260d9463          	bnez	s11,9adc <_svfprintf_r+0xcb8>
    9878:	1c079063          	bnez	a5,9a38 <_svfprintf_r+0xc14>
    987c:	001bfc93          	andi	s9,s7,1
    9880:	1b010b13          	addi	s6,sp,432
    9884:	1c0c92e3          	bnez	s9,a248 <_svfprintf_r+0x1424>
    9888:	0c714783          	lbu	a5,199(sp)
    988c:	000d8a93          	mv	s5,s11
    9890:	019dd463          	bge	s11,s9,9898 <_svfprintf_r+0xa74>
    9894:	000c8a93          	mv	s5,s9
    9898:	00012823          	sw	zero,16(sp)
    989c:	02012423          	sw	zero,40(sp)
    98a0:	02012223          	sw	zero,36(sp)
    98a4:	00012e23          	sw	zero,28(sp)
    98a8:	ec0798e3          	bnez	a5,9778 <_svfprintf_r+0x954>
    98ac:	f5cff06f          	j	9008 <_svfprintf_r+0x1e4>
    98b0:	000c8893          	mv	a7,s9
    98b4:	010a6a13          	ori	s4,s4,16
    98b8:	020a7793          	andi	a5,s4,32
    98bc:	06078ee3          	beqz	a5,a138 <_svfprintf_r+0x1314>
    98c0:	01412783          	lw	a5,20(sp)
    98c4:	00778b13          	addi	s6,a5,7
    98c8:	ff8b7b13          	andi	s6,s6,-8
    98cc:	000b2c83          	lw	s9,0(s6)
    98d0:	004b2903          	lw	s2,4(s6)
    98d4:	008b0793          	addi	a5,s6,8
    98d8:	00f12a23          	sw	a5,20(sp)
    98dc:	bffa7b93          	andi	s7,s4,-1025
    98e0:	00000793          	li	a5,0
    98e4:	f79ff06f          	j	985c <_svfprintf_r+0xa38>
    98e8:	00044483          	lbu	s1,0(s0)
    98ec:	06800793          	li	a5,104
    98f0:	2cf482e3          	beq	s1,a5,a3b4 <_svfprintf_r+0x1590>
    98f4:	040a6a13          	ori	s4,s4,64
    98f8:	e90ff06f          	j	8f88 <_svfprintf_r+0x164>
    98fc:	000c8893          	mv	a7,s9
    9900:	010a6b93          	ori	s7,s4,16
    9904:	020bf793          	andi	a5,s7,32
    9908:	04078ee3          	beqz	a5,a164 <_svfprintf_r+0x1340>
    990c:	01412783          	lw	a5,20(sp)
    9910:	00778b13          	addi	s6,a5,7
    9914:	ff8b7b13          	andi	s6,s6,-8
    9918:	008b0793          	addi	a5,s6,8
    991c:	00f12a23          	sw	a5,20(sp)
    9920:	000b2c83          	lw	s9,0(s6)
    9924:	004b2903          	lw	s2,4(s6)
    9928:	00100793          	li	a5,1
    992c:	f31ff06f          	j	985c <_svfprintf_r+0xa38>
    9930:	00044483          	lbu	s1,0(s0)
    9934:	008a6a13          	ori	s4,s4,8
    9938:	e50ff06f          	j	8f88 <_svfprintf_r+0x164>
    993c:	01412783          	lw	a5,20(sp)
    9940:	00044483          	lbu	s1,0(s0)
    9944:	0007a983          	lw	s3,0(a5)
    9948:	00478793          	addi	a5,a5,4
    994c:	00f12a23          	sw	a5,20(sp)
    9950:	e209dc63          	bgez	s3,8f88 <_svfprintf_r+0x164>
    9954:	413009b3          	neg	s3,s3
    9958:	004a6a13          	ori	s4,s4,4
    995c:	e2cff06f          	j	8f88 <_svfprintf_r+0x164>
    9960:	00044483          	lbu	s1,0(s0)
    9964:	001a6a13          	ori	s4,s4,1
    9968:	e20ff06f          	j	8f88 <_svfprintf_r+0x164>
    996c:	0c714783          	lbu	a5,199(sp)
    9970:	00044483          	lbu	s1,0(s0)
    9974:	e0079a63          	bnez	a5,8f88 <_svfprintf_r+0x164>
    9978:	02000793          	li	a5,32
    997c:	0cf103a3          	sb	a5,199(sp)
    9980:	e08ff06f          	j	8f88 <_svfprintf_r+0x164>
    9984:	00044483          	lbu	s1,0(s0)
    9988:	080a6a13          	ori	s4,s4,128
    998c:	dfcff06f          	j	8f88 <_svfprintf_r+0x164>
    9990:	00044483          	lbu	s1,0(s0)
    9994:	00140713          	addi	a4,s0,1
    9998:	01749463          	bne	s1,s7,99a0 <_svfprintf_r+0xb7c>
    999c:	5990106f          	j	b734 <_svfprintf_r+0x2910>
    99a0:	fd048693          	addi	a3,s1,-48
    99a4:	00070413          	mv	s0,a4
    99a8:	00000d93          	li	s11,0
    99ac:	dedae063          	bltu	s5,a3,8f8c <_svfprintf_r+0x168>
    99b0:	00044483          	lbu	s1,0(s0)
    99b4:	002d9793          	slli	a5,s11,0x2
    99b8:	01b787b3          	add	a5,a5,s11
    99bc:	00179793          	slli	a5,a5,0x1
    99c0:	00d78db3          	add	s11,a5,a3
    99c4:	fd048693          	addi	a3,s1,-48
    99c8:	00140413          	addi	s0,s0,1
    99cc:	fedaf2e3          	bgeu	s5,a3,99b0 <_svfprintf_r+0xb8c>
    99d0:	dbcff06f          	j	8f8c <_svfprintf_r+0x168>
    99d4:	02b00793          	li	a5,43
    99d8:	00044483          	lbu	s1,0(s0)
    99dc:	0cf103a3          	sb	a5,199(sp)
    99e0:	da8ff06f          	j	8f88 <_svfprintf_r+0x164>
    99e4:	000c8893          	mv	a7,s9
    99e8:	010a6a13          	ori	s4,s4,16
    99ec:	020a7793          	andi	a5,s4,32
    99f0:	7a078263          	beqz	a5,a194 <_svfprintf_r+0x1370>
    99f4:	01412783          	lw	a5,20(sp)
    99f8:	00778b13          	addi	s6,a5,7
    99fc:	ff8b7b13          	andi	s6,s6,-8
    9a00:	004b2783          	lw	a5,4(s6)
    9a04:	000b2c83          	lw	s9,0(s6)
    9a08:	008b0713          	addi	a4,s6,8
    9a0c:	00e12a23          	sw	a4,20(sp)
    9a10:	00078913          	mv	s2,a5
    9a14:	7a07c863          	bltz	a5,a1c4 <_svfprintf_r+0x13a0>
    9a18:	fff00793          	li	a5,-1
    9a1c:	000a0b93          	mv	s7,s4
    9a20:	02fd8463          	beq	s11,a5,9a48 <_svfprintf_r+0xc24>
    9a24:	012ce7b3          	or	a5,s9,s2
    9a28:	f7fa7b93          	andi	s7,s4,-129
    9a2c:	00079e63          	bnez	a5,9a48 <_svfprintf_r+0xc24>
    9a30:	020d9263          	bnez	s11,9a54 <_svfprintf_r+0xc30>
    9a34:	000b8a13          	mv	s4,s7
    9a38:	00000d93          	li	s11,0
    9a3c:	00000c93          	li	s9,0
    9a40:	1b010b13          	addi	s6,sp,432
    9a44:	e45ff06f          	j	9888 <_svfprintf_r+0xa64>
    9a48:	400918e3          	bnez	s2,a658 <_svfprintf_r+0x1834>
    9a4c:	00900793          	li	a5,9
    9a50:	4197e4e3          	bltu	a5,s9,a658 <_svfprintf_r+0x1834>
    9a54:	030c8c93          	addi	s9,s9,48
    9a58:	1b9107a3          	sb	s9,431(sp)
    9a5c:	000b8a13          	mv	s4,s7
    9a60:	00100c93          	li	s9,1
    9a64:	1af10b13          	addi	s6,sp,431
    9a68:	e21ff06f          	j	9888 <_svfprintf_r+0xa64>
    9a6c:	000a0b93          	mv	s7,s4
    9a70:	00100693          	li	a3,1
    9a74:	fcd78ae3          	beq	a5,a3,9a48 <_svfprintf_r+0xc24>
    9a78:	00200693          	li	a3,2
    9a7c:	06d78c63          	beq	a5,a3,9af4 <_svfprintf_r+0xcd0>
    9a80:	1b010b13          	addi	s6,sp,432
    9a84:	01d91713          	slli	a4,s2,0x1d
    9a88:	007cf793          	andi	a5,s9,7
    9a8c:	003cdc93          	srli	s9,s9,0x3
    9a90:	03078793          	addi	a5,a5,48
    9a94:	01976cb3          	or	s9,a4,s9
    9a98:	00395913          	srli	s2,s2,0x3
    9a9c:	fefb0fa3          	sb	a5,-1(s6)
    9aa0:	012ce733          	or	a4,s9,s2
    9aa4:	000b0613          	mv	a2,s6
    9aa8:	fffb0b13          	addi	s6,s6,-1
    9aac:	fc071ce3          	bnez	a4,9a84 <_svfprintf_r+0xc60>
    9ab0:	001bf693          	andi	a3,s7,1
    9ab4:	06068a63          	beqz	a3,9b28 <_svfprintf_r+0xd04>
    9ab8:	03000693          	li	a3,48
    9abc:	06d78663          	beq	a5,a3,9b28 <_svfprintf_r+0xd04>
    9ac0:	ffe60613          	addi	a2,a2,-2
    9ac4:	1b010793          	addi	a5,sp,432
    9ac8:	fedb0fa3          	sb	a3,-1(s6)
    9acc:	40c78cb3          	sub	s9,a5,a2
    9ad0:	000b8a13          	mv	s4,s7
    9ad4:	00060b13          	mv	s6,a2
    9ad8:	db1ff06f          	j	9888 <_svfprintf_r+0xa64>
    9adc:	00100713          	li	a4,1
    9ae0:	00e79463          	bne	a5,a4,9ae8 <_svfprintf_r+0xcc4>
    9ae4:	1110106f          	j	b3f4 <_svfprintf_r+0x25d0>
    9ae8:	00200713          	li	a4,2
    9aec:	000a0b93          	mv	s7,s4
    9af0:	f8e798e3          	bne	a5,a4,9a80 <_svfprintf_r+0xc5c>
    9af4:	03412683          	lw	a3,52(sp)
    9af8:	1b010b13          	addi	s6,sp,432
    9afc:	00fcf793          	andi	a5,s9,15
    9b00:	00f687b3          	add	a5,a3,a5
    9b04:	0007c703          	lbu	a4,0(a5)
    9b08:	004cdc93          	srli	s9,s9,0x4
    9b0c:	01c91793          	slli	a5,s2,0x1c
    9b10:	0197ecb3          	or	s9,a5,s9
    9b14:	00495913          	srli	s2,s2,0x4
    9b18:	feeb0fa3          	sb	a4,-1(s6)
    9b1c:	012ce7b3          	or	a5,s9,s2
    9b20:	fffb0b13          	addi	s6,s6,-1
    9b24:	fc079ce3          	bnez	a5,9afc <_svfprintf_r+0xcd8>
    9b28:	1b010793          	addi	a5,sp,432
    9b2c:	41678cb3          	sub	s9,a5,s6
    9b30:	000b8a13          	mv	s4,s7
    9b34:	d55ff06f          	j	9888 <_svfprintf_r+0xa64>
    9b38:	06500713          	li	a4,101
    9b3c:	9c9758e3          	bge	a4,s1,950c <_svfprintf_r+0x6e8>
    9b40:	0f012703          	lw	a4,240(sp)
    9b44:	0a010593          	addi	a1,sp,160
    9b48:	0b010513          	addi	a0,sp,176
    9b4c:	0ae12823          	sw	a4,176(sp)
    9b50:	0f412703          	lw	a4,244(sp)
    9b54:	05112223          	sw	a7,68(sp)
    9b58:	04f12023          	sw	a5,64(sp)
    9b5c:	0ae12a23          	sw	a4,180(sp)
    9b60:	0f812703          	lw	a4,248(sp)
    9b64:	0a012023          	sw	zero,160(sp)
    9b68:	0a012223          	sw	zero,164(sp)
    9b6c:	0ae12c23          	sw	a4,184(sp)
    9b70:	0fc12703          	lw	a4,252(sp)
    9b74:	0a012423          	sw	zero,168(sp)
    9b78:	0a012623          	sw	zero,172(sp)
    9b7c:	0ae12e23          	sw	a4,188(sp)
    9b80:	6a0070ef          	jal	ra,11220 <__eqtf2>
    9b84:	04012783          	lw	a5,64(sp)
    9b88:	04412883          	lw	a7,68(sp)
    9b8c:	38051e63          	bnez	a0,9f28 <_svfprintf_r+0x1104>
    9b90:	0e812703          	lw	a4,232(sp)
    9b94:	000146b7          	lui	a3,0x14
    9b98:	2e468693          	addi	a3,a3,740 # 142e4 <__clzsi2+0xcc>
    9b9c:	00d8a023          	sw	a3,0(a7)
    9ba0:	00178793          	addi	a5,a5,1
    9ba4:	00100693          	li	a3,1
    9ba8:	00170713          	addi	a4,a4,1
    9bac:	00d8a223          	sw	a3,4(a7)
    9bb0:	0ef12623          	sw	a5,236(sp)
    9bb4:	0ee12423          	sw	a4,232(sp)
    9bb8:	00700693          	li	a3,7
    9bbc:	00888893          	addi	a7,a7,8
    9bc0:	44e6cee3          	blt	a3,a4,a81c <_svfprintf_r+0x19f8>
    9bc4:	0cc12703          	lw	a4,204(sp)
    9bc8:	02012683          	lw	a3,32(sp)
    9bcc:	66d75263          	bge	a4,a3,a230 <_svfprintf_r+0x140c>
    9bd0:	03012703          	lw	a4,48(sp)
    9bd4:	02c12683          	lw	a3,44(sp)
    9bd8:	00888893          	addi	a7,a7,8
    9bdc:	fee8ac23          	sw	a4,-8(a7)
    9be0:	0e812703          	lw	a4,232(sp)
    9be4:	00d787b3          	add	a5,a5,a3
    9be8:	fed8ae23          	sw	a3,-4(a7)
    9bec:	00170713          	addi	a4,a4,1
    9bf0:	0ef12623          	sw	a5,236(sp)
    9bf4:	0ee12423          	sw	a4,232(sp)
    9bf8:	00700693          	li	a3,7
    9bfc:	76e6ce63          	blt	a3,a4,a378 <_svfprintf_r+0x1554>
    9c00:	02012703          	lw	a4,32(sp)
    9c04:	fff70493          	addi	s1,a4,-1
    9c08:	cc905663          	blez	s1,90d4 <_svfprintf_r+0x2b0>
    9c0c:	01000693          	li	a3,16
    9c10:	0e812703          	lw	a4,232(sp)
    9c14:	4296d4e3          	bge	a3,s1,a83c <_svfprintf_r+0x1a18>
    9c18:	01000913          	li	s2,16
    9c1c:	00700c93          	li	s9,7
    9c20:	00c0006f          	j	9c2c <_svfprintf_r+0xe08>
    9c24:	ff048493          	addi	s1,s1,-16
    9c28:	40995ae3          	bge	s2,s1,a83c <_svfprintf_r+0x1a18>
    9c2c:	00812683          	lw	a3,8(sp)
    9c30:	01078793          	addi	a5,a5,16
    9c34:	00170713          	addi	a4,a4,1
    9c38:	00d8a023          	sw	a3,0(a7)
    9c3c:	0128a223          	sw	s2,4(a7)
    9c40:	0ef12623          	sw	a5,236(sp)
    9c44:	0ee12423          	sw	a4,232(sp)
    9c48:	00888893          	addi	a7,a7,8
    9c4c:	fcecdce3          	bge	s9,a4,9c24 <_svfprintf_r+0xe00>
    9c50:	0e410613          	addi	a2,sp,228
    9c54:	000c0593          	mv	a1,s8
    9c58:	000d0513          	mv	a0,s10
    9c5c:	43c040ef          	jal	ra,e098 <__ssprint_r>
    9c60:	1a051063          	bnez	a0,9e00 <_svfprintf_r+0xfdc>
    9c64:	0ec12783          	lw	a5,236(sp)
    9c68:	0e812703          	lw	a4,232(sp)
    9c6c:	10c10893          	addi	a7,sp,268
    9c70:	fb5ff06f          	j	9c24 <_svfprintf_r+0xe00>
    9c74:	41598933          	sub	s2,s3,s5
    9c78:	c3205263          	blez	s2,909c <_svfprintf_r+0x278>
    9c7c:	01000613          	li	a2,16
    9c80:	0e812703          	lw	a4,232(sp)
    9c84:	07265463          	bge	a2,s2,9cec <_svfprintf_r+0xec8>
    9c88:	01000e13          	li	t3,16
    9c8c:	00700b93          	li	s7,7
    9c90:	00c0006f          	j	9c9c <_svfprintf_r+0xe78>
    9c94:	ff090913          	addi	s2,s2,-16
    9c98:	052e5a63          	bge	t3,s2,9cec <_svfprintf_r+0xec8>
    9c9c:	00812683          	lw	a3,8(sp)
    9ca0:	01078793          	addi	a5,a5,16
    9ca4:	00170713          	addi	a4,a4,1
    9ca8:	00d8a023          	sw	a3,0(a7)
    9cac:	01c8a223          	sw	t3,4(a7)
    9cb0:	0ef12623          	sw	a5,236(sp)
    9cb4:	0ee12423          	sw	a4,232(sp)
    9cb8:	00888893          	addi	a7,a7,8
    9cbc:	fcebdce3          	bge	s7,a4,9c94 <_svfprintf_r+0xe70>
    9cc0:	0e410613          	addi	a2,sp,228
    9cc4:	000c0593          	mv	a1,s8
    9cc8:	000d0513          	mv	a0,s10
    9ccc:	3cc040ef          	jal	ra,e098 <__ssprint_r>
    9cd0:	12051863          	bnez	a0,9e00 <_svfprintf_r+0xfdc>
    9cd4:	01000e13          	li	t3,16
    9cd8:	ff090913          	addi	s2,s2,-16
    9cdc:	0ec12783          	lw	a5,236(sp)
    9ce0:	0e812703          	lw	a4,232(sp)
    9ce4:	10c10893          	addi	a7,sp,268
    9ce8:	fb2e4ae3          	blt	t3,s2,9c9c <_svfprintf_r+0xe78>
    9cec:	00812683          	lw	a3,8(sp)
    9cf0:	012787b3          	add	a5,a5,s2
    9cf4:	00170713          	addi	a4,a4,1
    9cf8:	00d8a023          	sw	a3,0(a7)
    9cfc:	0128a223          	sw	s2,4(a7)
    9d00:	0ef12623          	sw	a5,236(sp)
    9d04:	0ee12423          	sw	a4,232(sp)
    9d08:	00700693          	li	a3,7
    9d0c:	00888893          	addi	a7,a7,8
    9d10:	b8e6d663          	bge	a3,a4,909c <_svfprintf_r+0x278>
    9d14:	0e410613          	addi	a2,sp,228
    9d18:	000c0593          	mv	a1,s8
    9d1c:	000d0513          	mv	a0,s10
    9d20:	378040ef          	jal	ra,e098 <__ssprint_r>
    9d24:	0c051e63          	bnez	a0,9e00 <_svfprintf_r+0xfdc>
    9d28:	419d8db3          	sub	s11,s11,s9
    9d2c:	0ec12783          	lw	a5,236(sp)
    9d30:	10c10893          	addi	a7,sp,268
    9d34:	b7b05863          	blez	s11,90a4 <_svfprintf_r+0x280>
    9d38:	01000613          	li	a2,16
    9d3c:	0e812703          	lw	a4,232(sp)
    9d40:	07b65263          	bge	a2,s11,9da4 <_svfprintf_r+0xf80>
    9d44:	01000b93          	li	s7,16
    9d48:	00700913          	li	s2,7
    9d4c:	00c0006f          	j	9d58 <_svfprintf_r+0xf34>
    9d50:	ff0d8d93          	addi	s11,s11,-16
    9d54:	05bbd863          	bge	s7,s11,9da4 <_svfprintf_r+0xf80>
    9d58:	00812683          	lw	a3,8(sp)
    9d5c:	01078793          	addi	a5,a5,16
    9d60:	00170713          	addi	a4,a4,1
    9d64:	00d8a023          	sw	a3,0(a7)
    9d68:	0178a223          	sw	s7,4(a7)
    9d6c:	0ef12623          	sw	a5,236(sp)
    9d70:	0ee12423          	sw	a4,232(sp)
    9d74:	00888893          	addi	a7,a7,8
    9d78:	fce95ce3          	bge	s2,a4,9d50 <_svfprintf_r+0xf2c>
    9d7c:	0e410613          	addi	a2,sp,228
    9d80:	000c0593          	mv	a1,s8
    9d84:	000d0513          	mv	a0,s10
    9d88:	310040ef          	jal	ra,e098 <__ssprint_r>
    9d8c:	06051a63          	bnez	a0,9e00 <_svfprintf_r+0xfdc>
    9d90:	ff0d8d93          	addi	s11,s11,-16
    9d94:	0ec12783          	lw	a5,236(sp)
    9d98:	0e812703          	lw	a4,232(sp)
    9d9c:	10c10893          	addi	a7,sp,268
    9da0:	fbbbcce3          	blt	s7,s11,9d58 <_svfprintf_r+0xf34>
    9da4:	00812683          	lw	a3,8(sp)
    9da8:	01b787b3          	add	a5,a5,s11
    9dac:	00170713          	addi	a4,a4,1
    9db0:	00d8a023          	sw	a3,0(a7)
    9db4:	01b8a223          	sw	s11,4(a7)
    9db8:	0ef12623          	sw	a5,236(sp)
    9dbc:	0ee12423          	sw	a4,232(sp)
    9dc0:	00700693          	li	a3,7
    9dc4:	00888893          	addi	a7,a7,8
    9dc8:	ace6de63          	bge	a3,a4,90a4 <_svfprintf_r+0x280>
    9dcc:	0e410613          	addi	a2,sp,228
    9dd0:	000c0593          	mv	a1,s8
    9dd4:	000d0513          	mv	a0,s10
    9dd8:	2c0040ef          	jal	ra,e098 <__ssprint_r>
    9ddc:	02051263          	bnez	a0,9e00 <_svfprintf_r+0xfdc>
    9de0:	0ec12783          	lw	a5,236(sp)
    9de4:	10c10893          	addi	a7,sp,268
    9de8:	abcff06f          	j	90a4 <_svfprintf_r+0x280>
    9dec:	0e410613          	addi	a2,sp,228
    9df0:	000c0593          	mv	a1,s8
    9df4:	000d0513          	mv	a0,s10
    9df8:	2a0040ef          	jal	ra,e098 <__ssprint_r>
    9dfc:	b0050063          	beqz	a0,90fc <_svfprintf_r+0x2d8>
    9e00:	01012b83          	lw	s7,16(sp)
    9e04:	b20b8663          	beqz	s7,9130 <_svfprintf_r+0x30c>
    9e08:	000b8593          	mv	a1,s7
    9e0c:	000d0513          	mv	a0,s10
    9e10:	d1df90ef          	jal	ra,3b2c <_free_r>
    9e14:	b1cff06f          	j	9130 <_svfprintf_r+0x30c>
    9e18:	01000613          	li	a2,16
    9e1c:	0e812703          	lw	a4,232(sp)
    9e20:	00d64463          	blt	a2,a3,9e28 <_svfprintf_r+0x1004>
    9e24:	0e40106f          	j	af08 <_svfprintf_r+0x20e4>
    9e28:	00015637          	lui	a2,0x15
    9e2c:	a3c60e93          	addi	t4,a2,-1476 # 14a3c <blanks.4470>
    9e30:	04812023          	sw	s0,64(sp)
    9e34:	04912223          	sw	s1,68(sp)
    9e38:	000d0413          	mv	s0,s10
    9e3c:	000c0493          	mv	s1,s8
    9e40:	01000e13          	li	t3,16
    9e44:	00700293          	li	t0,7
    9e48:	00068c13          	mv	s8,a3
    9e4c:	000e8d13          	mv	s10,t4
    9e50:	00c0006f          	j	9e5c <_svfprintf_r+0x1038>
    9e54:	ff0c0c13          	addi	s8,s8,-16
    9e58:	058e5a63          	bge	t3,s8,9eac <_svfprintf_r+0x1088>
    9e5c:	01078793          	addi	a5,a5,16
    9e60:	00170713          	addi	a4,a4,1
    9e64:	01a8a023          	sw	s10,0(a7)
    9e68:	01c8a223          	sw	t3,4(a7)
    9e6c:	0ef12623          	sw	a5,236(sp)
    9e70:	0ee12423          	sw	a4,232(sp)
    9e74:	00888893          	addi	a7,a7,8
    9e78:	fce2dee3          	bge	t0,a4,9e54 <_svfprintf_r+0x1030>
    9e7c:	0e410613          	addi	a2,sp,228
    9e80:	00048593          	mv	a1,s1
    9e84:	00040513          	mv	a0,s0
    9e88:	210040ef          	jal	ra,e098 <__ssprint_r>
    9e8c:	160512e3          	bnez	a0,a7f0 <_svfprintf_r+0x19cc>
    9e90:	01000e13          	li	t3,16
    9e94:	ff0c0c13          	addi	s8,s8,-16
    9e98:	0ec12783          	lw	a5,236(sp)
    9e9c:	0e812703          	lw	a4,232(sp)
    9ea0:	10c10893          	addi	a7,sp,268
    9ea4:	00700293          	li	t0,7
    9ea8:	fb8e4ae3          	blt	t3,s8,9e5c <_svfprintf_r+0x1038>
    9eac:	000c0693          	mv	a3,s8
    9eb0:	000d0e93          	mv	t4,s10
    9eb4:	00048c13          	mv	s8,s1
    9eb8:	00040d13          	mv	s10,s0
    9ebc:	04412483          	lw	s1,68(sp)
    9ec0:	04012403          	lw	s0,64(sp)
    9ec4:	00d787b3          	add	a5,a5,a3
    9ec8:	00170713          	addi	a4,a4,1
    9ecc:	00d8a223          	sw	a3,4(a7)
    9ed0:	01d8a023          	sw	t4,0(a7)
    9ed4:	0ef12623          	sw	a5,236(sp)
    9ed8:	0ee12423          	sw	a4,232(sp)
    9edc:	00700693          	li	a3,7
    9ee0:	00888893          	addi	a7,a7,8
    9ee4:	94e6d263          	bge	a3,a4,9028 <_svfprintf_r+0x204>
    9ee8:	0e410613          	addi	a2,sp,228
    9eec:	000c0593          	mv	a1,s8
    9ef0:	000d0513          	mv	a0,s10
    9ef4:	1a4040ef          	jal	ra,e098 <__ssprint_r>
    9ef8:	f00514e3          	bnez	a0,9e00 <_svfprintf_r+0xfdc>
    9efc:	0ec12783          	lw	a5,236(sp)
    9f00:	10c10893          	addi	a7,sp,268
    9f04:	924ff06f          	j	9028 <_svfprintf_r+0x204>
    9f08:	0e410613          	addi	a2,sp,228
    9f0c:	000c0593          	mv	a1,s8
    9f10:	000d0513          	mv	a0,s10
    9f14:	184040ef          	jal	ra,e098 <__ssprint_r>
    9f18:	ee0514e3          	bnez	a0,9e00 <_svfprintf_r+0xfdc>
    9f1c:	0ec12783          	lw	a5,236(sp)
    9f20:	10c10893          	addi	a7,sp,268
    9f24:	970ff06f          	j	9094 <_svfprintf_r+0x270>
    9f28:	0cc12603          	lw	a2,204(sp)
    9f2c:	7ec05c63          	blez	a2,a724 <_svfprintf_r+0x1900>
    9f30:	01c12703          	lw	a4,28(sp)
    9f34:	02012683          	lw	a3,32(sp)
    9f38:	00070493          	mv	s1,a4
    9f3c:	3ce6c263          	blt	a3,a4,a300 <_svfprintf_r+0x14dc>
    9f40:	02905663          	blez	s1,9f6c <_svfprintf_r+0x1148>
    9f44:	0e812703          	lw	a4,232(sp)
    9f48:	009787b3          	add	a5,a5,s1
    9f4c:	0168a023          	sw	s6,0(a7)
    9f50:	00170713          	addi	a4,a4,1
    9f54:	0098a223          	sw	s1,4(a7)
    9f58:	0ef12623          	sw	a5,236(sp)
    9f5c:	0ee12423          	sw	a4,232(sp)
    9f60:	00700693          	li	a3,7
    9f64:	00888893          	addi	a7,a7,8
    9f68:	40e6cce3          	blt	a3,a4,ab80 <_svfprintf_r+0x1d5c>
    9f6c:	fff4c713          	not	a4,s1
    9f70:	41f75713          	srai	a4,a4,0x1f
    9f74:	00e4f4b3          	and	s1,s1,a4
    9f78:	01c12703          	lw	a4,28(sp)
    9f7c:	409704b3          	sub	s1,a4,s1
    9f80:	48904e63          	bgtz	s1,a41c <_svfprintf_r+0x15f8>
    9f84:	01c12683          	lw	a3,28(sp)
    9f88:	400a7713          	andi	a4,s4,1024
    9f8c:	00db0db3          	add	s11,s6,a3
    9f90:	4e071a63          	bnez	a4,a484 <_svfprintf_r+0x1660>
    9f94:	0cc12483          	lw	s1,204(sp)
    9f98:	02012703          	lw	a4,32(sp)
    9f9c:	00e4c663          	blt	s1,a4,9fa8 <_svfprintf_r+0x1184>
    9fa0:	001a7713          	andi	a4,s4,1
    9fa4:	400702e3          	beqz	a4,aba8 <_svfprintf_r+0x1d84>
    9fa8:	03012703          	lw	a4,48(sp)
    9fac:	02c12683          	lw	a3,44(sp)
    9fb0:	00700613          	li	a2,7
    9fb4:	00e8a023          	sw	a4,0(a7)
    9fb8:	0e812703          	lw	a4,232(sp)
    9fbc:	00d787b3          	add	a5,a5,a3
    9fc0:	00d8a223          	sw	a3,4(a7)
    9fc4:	00170713          	addi	a4,a4,1
    9fc8:	0ef12623          	sw	a5,236(sp)
    9fcc:	0ee12423          	sw	a4,232(sp)
    9fd0:	00888893          	addi	a7,a7,8
    9fd4:	6ee640e3          	blt	a2,a4,aeb4 <_svfprintf_r+0x2090>
    9fd8:	02012683          	lw	a3,32(sp)
    9fdc:	00db0733          	add	a4,s6,a3
    9fe0:	409684b3          	sub	s1,a3,s1
    9fe4:	41b70733          	sub	a4,a4,s11
    9fe8:	00048913          	mv	s2,s1
    9fec:	00975463          	bge	a4,s1,9ff4 <_svfprintf_r+0x11d0>
    9ff0:	00070913          	mv	s2,a4
    9ff4:	03205663          	blez	s2,a020 <_svfprintf_r+0x11fc>
    9ff8:	0e812703          	lw	a4,232(sp)
    9ffc:	012787b3          	add	a5,a5,s2
    a000:	01b8a023          	sw	s11,0(a7)
    a004:	00170713          	addi	a4,a4,1
    a008:	0128a223          	sw	s2,4(a7)
    a00c:	0ef12623          	sw	a5,236(sp)
    a010:	0ee12423          	sw	a4,232(sp)
    a014:	00700693          	li	a3,7
    a018:	00888893          	addi	a7,a7,8
    a01c:	6ee6cce3          	blt	a3,a4,af14 <_svfprintf_r+0x20f0>
    a020:	fff94713          	not	a4,s2
    a024:	41f75713          	srai	a4,a4,0x1f
    a028:	00e97733          	and	a4,s2,a4
    a02c:	40e484b3          	sub	s1,s1,a4
    a030:	8a905263          	blez	s1,90d4 <_svfprintf_r+0x2b0>
    a034:	01000693          	li	a3,16
    a038:	0e812703          	lw	a4,232(sp)
    a03c:	0096d0e3          	bge	a3,s1,a83c <_svfprintf_r+0x1a18>
    a040:	01000913          	li	s2,16
    a044:	00700c93          	li	s9,7
    a048:	00c0006f          	j	a054 <_svfprintf_r+0x1230>
    a04c:	ff048493          	addi	s1,s1,-16
    a050:	7e995663          	bge	s2,s1,a83c <_svfprintf_r+0x1a18>
    a054:	00812683          	lw	a3,8(sp)
    a058:	01078793          	addi	a5,a5,16
    a05c:	00170713          	addi	a4,a4,1
    a060:	00d8a023          	sw	a3,0(a7)
    a064:	0128a223          	sw	s2,4(a7)
    a068:	0ef12623          	sw	a5,236(sp)
    a06c:	0ee12423          	sw	a4,232(sp)
    a070:	00888893          	addi	a7,a7,8
    a074:	fcecdce3          	bge	s9,a4,a04c <_svfprintf_r+0x1228>
    a078:	0e410613          	addi	a2,sp,228
    a07c:	000c0593          	mv	a1,s8
    a080:	000d0513          	mv	a0,s10
    a084:	014040ef          	jal	ra,e098 <__ssprint_r>
    a088:	d6051ce3          	bnez	a0,9e00 <_svfprintf_r+0xfdc>
    a08c:	0ec12783          	lw	a5,236(sp)
    a090:	0e812703          	lw	a4,232(sp)
    a094:	10c10893          	addi	a7,sp,268
    a098:	fb5ff06f          	j	a04c <_svfprintf_r+0x1228>
    a09c:	001a7793          	andi	a5,s4,1
    a0a0:	c8079663          	bnez	a5,952c <_svfprintf_r+0x708>
    a0a4:	00d8a223          	sw	a3,4(a7)
    a0a8:	0f912623          	sw	s9,236(sp)
    a0ac:	0e912423          	sw	s1,232(sp)
    a0b0:	00700793          	li	a5,7
    a0b4:	5697cc63          	blt	a5,s1,a62c <_svfprintf_r+0x1808>
    a0b8:	00270713          	addi	a4,a4,2
    a0bc:	01088893          	addi	a7,a7,16
    a0c0:	d40ff06f          	j	9600 <_svfprintf_r+0x7dc>
    a0c4:	d3b05e63          	blez	s11,9600 <_svfprintf_r+0x7dc>
    a0c8:	01000613          	li	a2,16
    a0cc:	01b64463          	blt	a2,s11,a0d4 <_svfprintf_r+0x12b0>
    a0d0:	65c0106f          	j	b72c <_svfprintf_r+0x2908>
    a0d4:	01000713          	li	a4,16
    a0d8:	00700b13          	li	s6,7
    a0dc:	00068493          	mv	s1,a3
    a0e0:	0100006f          	j	a0f0 <_svfprintf_r+0x12cc>
    a0e4:	ff0d8d93          	addi	s11,s11,-16
    a0e8:	11b75ee3          	bge	a4,s11,aa04 <_svfprintf_r+0x1be0>
    a0ec:	00148493          	addi	s1,s1,1
    a0f0:	00812783          	lw	a5,8(sp)
    a0f4:	010c8c93          	addi	s9,s9,16
    a0f8:	00e92223          	sw	a4,4(s2)
    a0fc:	00f92023          	sw	a5,0(s2)
    a100:	0f912623          	sw	s9,236(sp)
    a104:	0e912423          	sw	s1,232(sp)
    a108:	00890913          	addi	s2,s2,8
    a10c:	fc9b5ce3          	bge	s6,s1,a0e4 <_svfprintf_r+0x12c0>
    a110:	0e410613          	addi	a2,sp,228
    a114:	000c0593          	mv	a1,s8
    a118:	000d0513          	mv	a0,s10
    a11c:	77d030ef          	jal	ra,e098 <__ssprint_r>
    a120:	ce0510e3          	bnez	a0,9e00 <_svfprintf_r+0xfdc>
    a124:	0ec12c83          	lw	s9,236(sp)
    a128:	0e812483          	lw	s1,232(sp)
    a12c:	10c10913          	addi	s2,sp,268
    a130:	01000713          	li	a4,16
    a134:	fb1ff06f          	j	a0e4 <_svfprintf_r+0x12c0>
    a138:	01412683          	lw	a3,20(sp)
    a13c:	010a7793          	andi	a5,s4,16
    a140:	00468713          	addi	a4,a3,4
    a144:	18079463          	bnez	a5,a2cc <_svfprintf_r+0x14a8>
    a148:	040a7793          	andi	a5,s4,64
    a14c:	140786e3          	beqz	a5,aa98 <_svfprintf_r+0x1c74>
    a150:	01412783          	lw	a5,20(sp)
    a154:	00000913          	li	s2,0
    a158:	00e12a23          	sw	a4,20(sp)
    a15c:	0007dc83          	lhu	s9,0(a5)
    a160:	f7cff06f          	j	98dc <_svfprintf_r+0xab8>
    a164:	01412703          	lw	a4,20(sp)
    a168:	010bf793          	andi	a5,s7,16
    a16c:	00470693          	addi	a3,a4,4
    a170:	12079863          	bnez	a5,a2a0 <_svfprintf_r+0x147c>
    a174:	040bf793          	andi	a5,s7,64
    a178:	0c0782e3          	beqz	a5,aa3c <_svfprintf_r+0x1c18>
    a17c:	01412783          	lw	a5,20(sp)
    a180:	00000913          	li	s2,0
    a184:	00d12a23          	sw	a3,20(sp)
    a188:	0007dc83          	lhu	s9,0(a5)
    a18c:	00100793          	li	a5,1
    a190:	eccff06f          	j	985c <_svfprintf_r+0xa38>
    a194:	01412683          	lw	a3,20(sp)
    a198:	010a7793          	andi	a5,s4,16
    a19c:	00468713          	addi	a4,a3,4
    a1a0:	0a079c63          	bnez	a5,a258 <_svfprintf_r+0x1434>
    a1a4:	040a7793          	andi	a5,s4,64
    a1a8:	0c0788e3          	beqz	a5,aa78 <_svfprintf_r+0x1c54>
    a1ac:	01412783          	lw	a5,20(sp)
    a1b0:	00e12a23          	sw	a4,20(sp)
    a1b4:	00079c83          	lh	s9,0(a5)
    a1b8:	41fcd913          	srai	s2,s9,0x1f
    a1bc:	00090793          	mv	a5,s2
    a1c0:	8407dce3          	bgez	a5,9a18 <_svfprintf_r+0xbf4>
    a1c4:	019037b3          	snez	a5,s9
    a1c8:	41200933          	neg	s2,s2
    a1cc:	40f90933          	sub	s2,s2,a5
    a1d0:	02d00793          	li	a5,45
    a1d4:	0cf103a3          	sb	a5,199(sp)
    a1d8:	41900cb3          	neg	s9,s9
    a1dc:	000a0b93          	mv	s7,s4
    a1e0:	00100793          	li	a5,1
    a1e4:	e7cff06f          	j	9860 <_svfprintf_r+0xa3c>
    a1e8:	0e410613          	addi	a2,sp,228
    a1ec:	000c0593          	mv	a1,s8
    a1f0:	000d0513          	mv	a0,s10
    a1f4:	6a5030ef          	jal	ra,e098 <__ssprint_r>
    a1f8:	c00514e3          	bnez	a0,9e00 <_svfprintf_r+0xfdc>
    a1fc:	0ec12c83          	lw	s9,236(sp)
    a200:	0e812483          	lw	s1,232(sp)
    a204:	10c10913          	addi	s2,sp,268
    a208:	b3cff06f          	j	9544 <_svfprintf_r+0x720>
    a20c:	0e410613          	addi	a2,sp,228
    a210:	000c0593          	mv	a1,s8
    a214:	000d0513          	mv	a0,s10
    a218:	681030ef          	jal	ra,e098 <__ssprint_r>
    a21c:	be0512e3          	bnez	a0,9e00 <_svfprintf_r+0xfdc>
    a220:	0ec12c83          	lw	s9,236(sp)
    a224:	0e812483          	lw	s1,232(sp)
    a228:	10c10913          	addi	s2,sp,268
    a22c:	b44ff06f          	j	9570 <_svfprintf_r+0x74c>
    a230:	001a7713          	andi	a4,s4,1
    a234:	00071463          	bnez	a4,a23c <_svfprintf_r+0x1418>
    a238:	e9dfe06f          	j	90d4 <_svfprintf_r+0x2b0>
    a23c:	995ff06f          	j	9bd0 <_svfprintf_r+0xdac>
    a240:	000c8893          	mv	a7,s9
    a244:	fa8ff06f          	j	99ec <_svfprintf_r+0xbc8>
    a248:	03000793          	li	a5,48
    a24c:	1af107a3          	sb	a5,431(sp)
    a250:	1af10b13          	addi	s6,sp,431
    a254:	e34ff06f          	j	9888 <_svfprintf_r+0xa64>
    a258:	0006ac83          	lw	s9,0(a3)
    a25c:	00e12a23          	sw	a4,20(sp)
    a260:	41fcd913          	srai	s2,s9,0x1f
    a264:	00090793          	mv	a5,s2
    a268:	facff06f          	j	9a14 <_svfprintf_r+0xbf0>
    a26c:	01412703          	lw	a4,20(sp)
    a270:	00072783          	lw	a5,0(a4)
    a274:	00470713          	addi	a4,a4,4
    a278:	00e12a23          	sw	a4,20(sp)
    a27c:	0007a603          	lw	a2,0(a5)
    a280:	0047a683          	lw	a3,4(a5)
    a284:	0087a703          	lw	a4,8(a5)
    a288:	00c7a783          	lw	a5,12(a5)
    a28c:	0ec12823          	sw	a2,240(sp)
    a290:	0ed12a23          	sw	a3,244(sp)
    a294:	0ee12c23          	sw	a4,248(sp)
    a298:	0ef12e23          	sw	a5,252(sp)
    a29c:	fbdfe06f          	j	9258 <_svfprintf_r+0x434>
    a2a0:	00072c83          	lw	s9,0(a4)
    a2a4:	00000913          	li	s2,0
    a2a8:	00d12a23          	sw	a3,20(sp)
    a2ac:	00100793          	li	a5,1
    a2b0:	dacff06f          	j	985c <_svfprintf_r+0xa38>
    a2b4:	00c12683          	lw	a3,12(sp)
    a2b8:	00040b13          	mv	s6,s0
    a2bc:	41f6d793          	srai	a5,a3,0x1f
    a2c0:	00d72023          	sw	a3,0(a4)
    a2c4:	00f72223          	sw	a5,4(a4)
    a2c8:	e55fe06f          	j	911c <_svfprintf_r+0x2f8>
    a2cc:	0006ac83          	lw	s9,0(a3)
    a2d0:	00000913          	li	s2,0
    a2d4:	00e12a23          	sw	a4,20(sp)
    a2d8:	e04ff06f          	j	98dc <_svfprintf_r+0xab8>
    a2dc:	03c12783          	lw	a5,60(sp)
    a2e0:	00044483          	lbu	s1,0(s0)
    a2e4:	00079463          	bnez	a5,a2ec <_svfprintf_r+0x14c8>
    a2e8:	ca1fe06f          	j	8f88 <_svfprintf_r+0x164>
    a2ec:	0007c783          	lbu	a5,0(a5)
    a2f0:	00079463          	bnez	a5,a2f8 <_svfprintf_r+0x14d4>
    a2f4:	c95fe06f          	j	8f88 <_svfprintf_r+0x164>
    a2f8:	400a6a13          	ori	s4,s4,1024
    a2fc:	c8dfe06f          	j	8f88 <_svfprintf_r+0x164>
    a300:	00068493          	mv	s1,a3
    a304:	c49040e3          	bgtz	s1,9f44 <_svfprintf_r+0x1120>
    a308:	c65ff06f          	j	9f6c <_svfprintf_r+0x1148>
    a30c:	000c8893          	mv	a7,s9
    a310:	000a0b93          	mv	s7,s4
    a314:	df0ff06f          	j	9904 <_svfprintf_r+0xae0>
    a318:	000147b7          	lui	a5,0x14
    a31c:	2b478793          	addi	a5,a5,692 # 142b4 <__clzsi2+0x9c>
    a320:	000c8893          	mv	a7,s9
    a324:	02f12a23          	sw	a5,52(sp)
    a328:	020a7793          	andi	a5,s4,32
    a32c:	2c078063          	beqz	a5,a5ec <_svfprintf_r+0x17c8>
    a330:	01412783          	lw	a5,20(sp)
    a334:	00778b13          	addi	s6,a5,7
    a338:	ff8b7b13          	andi	s6,s6,-8
    a33c:	000b2c83          	lw	s9,0(s6)
    a340:	004b2903          	lw	s2,4(s6)
    a344:	008b0793          	addi	a5,s6,8
    a348:	00f12a23          	sw	a5,20(sp)
    a34c:	001a7793          	andi	a5,s4,1
    a350:	00078e63          	beqz	a5,a36c <_svfprintf_r+0x1548>
    a354:	012ce7b3          	or	a5,s9,s2
    a358:	00078a63          	beqz	a5,a36c <_svfprintf_r+0x1548>
    a35c:	03000793          	li	a5,48
    a360:	0cf10423          	sb	a5,200(sp)
    a364:	0c9104a3          	sb	s1,201(sp)
    a368:	002a6a13          	ori	s4,s4,2
    a36c:	bffa7b93          	andi	s7,s4,-1025
    a370:	00200793          	li	a5,2
    a374:	ce8ff06f          	j	985c <_svfprintf_r+0xa38>
    a378:	0e410613          	addi	a2,sp,228
    a37c:	000c0593          	mv	a1,s8
    a380:	000d0513          	mv	a0,s10
    a384:	515030ef          	jal	ra,e098 <__ssprint_r>
    a388:	a6051ce3          	bnez	a0,9e00 <_svfprintf_r+0xfdc>
    a38c:	0ec12783          	lw	a5,236(sp)
    a390:	10c10893          	addi	a7,sp,268
    a394:	86dff06f          	j	9c00 <_svfprintf_r+0xddc>
    a398:	000147b7          	lui	a5,0x14
    a39c:	2c878793          	addi	a5,a5,712 # 142c8 <__clzsi2+0xb0>
    a3a0:	000c8893          	mv	a7,s9
    a3a4:	02f12a23          	sw	a5,52(sp)
    a3a8:	f81ff06f          	j	a328 <_svfprintf_r+0x1504>
    a3ac:	000c8893          	mv	a7,s9
    a3b0:	d08ff06f          	j	98b8 <_svfprintf_r+0xa94>
    a3b4:	00144483          	lbu	s1,1(s0)
    a3b8:	200a6a13          	ori	s4,s4,512
    a3bc:	00140413          	addi	s0,s0,1
    a3c0:	bc9fe06f          	j	8f88 <_svfprintf_r+0x164>
    a3c4:	00144483          	lbu	s1,1(s0)
    a3c8:	020a6a13          	ori	s4,s4,32
    a3cc:	00140413          	addi	s0,s0,1
    a3d0:	bb9fe06f          	j	8f88 <_svfprintf_r+0x164>
    a3d4:	04000593          	li	a1,64
    a3d8:	000d0513          	mv	a0,s10
    a3dc:	949fc0ef          	jal	ra,6d24 <_malloc_r>
    a3e0:	00ac2023          	sw	a0,0(s8)
    a3e4:	00ac2823          	sw	a0,16(s8)
    a3e8:	00051463          	bnez	a0,a3f0 <_svfprintf_r+0x15cc>
    a3ec:	3800106f          	j	b76c <_svfprintf_r+0x2948>
    a3f0:	04000793          	li	a5,64
    a3f4:	00fc2a23          	sw	a5,20(s8)
    a3f8:	ab5fe06f          	j	8eac <_svfprintf_r+0x88>
    a3fc:	00600793          	li	a5,6
    a400:	000d8c93          	mv	s9,s11
    a404:	79b7ee63          	bltu	a5,s11,aba0 <_svfprintf_r+0x1d7c>
    a408:	00014837          	lui	a6,0x14
    a40c:	000c8a93          	mv	s5,s9
    a410:	01212a23          	sw	s2,20(sp)
    a414:	2dc80b13          	addi	s6,a6,732 # 142dc <__clzsi2+0xc4>
    a418:	bddfe06f          	j	8ff4 <_svfprintf_r+0x1d0>
    a41c:	01000693          	li	a3,16
    a420:	0e812703          	lw	a4,232(sp)
    a424:	6a96d863          	bge	a3,s1,aad4 <_svfprintf_r+0x1cb0>
    a428:	01000c93          	li	s9,16
    a42c:	00700d93          	li	s11,7
    a430:	00c0006f          	j	a43c <_svfprintf_r+0x1618>
    a434:	ff048493          	addi	s1,s1,-16
    a438:	689cde63          	bge	s9,s1,aad4 <_svfprintf_r+0x1cb0>
    a43c:	00812683          	lw	a3,8(sp)
    a440:	01078793          	addi	a5,a5,16
    a444:	00170713          	addi	a4,a4,1
    a448:	00d8a023          	sw	a3,0(a7)
    a44c:	0198a223          	sw	s9,4(a7)
    a450:	0ef12623          	sw	a5,236(sp)
    a454:	0ee12423          	sw	a4,232(sp)
    a458:	00888893          	addi	a7,a7,8
    a45c:	fceddce3          	bge	s11,a4,a434 <_svfprintf_r+0x1610>
    a460:	0e410613          	addi	a2,sp,228
    a464:	000c0593          	mv	a1,s8
    a468:	000d0513          	mv	a0,s10
    a46c:	42d030ef          	jal	ra,e098 <__ssprint_r>
    a470:	980518e3          	bnez	a0,9e00 <_svfprintf_r+0xfdc>
    a474:	0ec12783          	lw	a5,236(sp)
    a478:	0e812703          	lw	a4,232(sp)
    a47c:	10c10893          	addi	a7,sp,268
    a480:	fb5ff06f          	j	a434 <_svfprintf_r+0x1610>
    a484:	02012703          	lw	a4,32(sp)
    a488:	02412c83          	lw	s9,36(sp)
    a48c:	01412e23          	sw	s4,28(sp)
    a490:	04812023          	sw	s0,64(sp)
    a494:	05312223          	sw	s3,68(sp)
    a498:	03512223          	sw	s5,36(sp)
    a49c:	02812983          	lw	s3,40(sp)
    a4a0:	03612423          	sw	s6,40(sp)
    a4a4:	00eb0bb3          	add	s7,s6,a4
    a4a8:	03c12403          	lw	s0,60(sp)
    a4ac:	04812a03          	lw	s4,72(sp)
    a4b0:	04c12a83          	lw	s5,76(sp)
    a4b4:	00700493          	li	s1,7
    a4b8:	01000913          	li	s2,16
    a4bc:	000c0b13          	mv	s6,s8
    a4c0:	080c8863          	beqz	s9,a550 <_svfprintf_r+0x172c>
    a4c4:	08099863          	bnez	s3,a554 <_svfprintf_r+0x1730>
    a4c8:	fff40413          	addi	s0,s0,-1
    a4cc:	fffc8c93          	addi	s9,s9,-1
    a4d0:	0e812703          	lw	a4,232(sp)
    a4d4:	014787b3          	add	a5,a5,s4
    a4d8:	0158a023          	sw	s5,0(a7)
    a4dc:	00170713          	addi	a4,a4,1
    a4e0:	0148a223          	sw	s4,4(a7)
    a4e4:	0ef12623          	sw	a5,236(sp)
    a4e8:	0ee12423          	sw	a4,232(sp)
    a4ec:	00888893          	addi	a7,a7,8
    a4f0:	10e4ce63          	blt	s1,a4,a60c <_svfprintf_r+0x17e8>
    a4f4:	00044683          	lbu	a3,0(s0)
    a4f8:	41bb8633          	sub	a2,s7,s11
    a4fc:	00068c13          	mv	s8,a3
    a500:	00d65463          	bge	a2,a3,a508 <_svfprintf_r+0x16e4>
    a504:	00060c13          	mv	s8,a2
    a508:	03805663          	blez	s8,a534 <_svfprintf_r+0x1710>
    a50c:	0e812683          	lw	a3,232(sp)
    a510:	018787b3          	add	a5,a5,s8
    a514:	01b8a023          	sw	s11,0(a7)
    a518:	00168693          	addi	a3,a3,1
    a51c:	0188a223          	sw	s8,4(a7)
    a520:	0ef12623          	sw	a5,236(sp)
    a524:	0ed12423          	sw	a3,232(sp)
    a528:	34d4c063          	blt	s1,a3,a868 <_svfprintf_r+0x1a44>
    a52c:	00044683          	lbu	a3,0(s0)
    a530:	00888893          	addi	a7,a7,8
    a534:	fffc4613          	not	a2,s8
    a538:	41f65613          	srai	a2,a2,0x1f
    a53c:	00cc7733          	and	a4,s8,a2
    a540:	40e68c33          	sub	s8,a3,a4
    a544:	01804c63          	bgtz	s8,a55c <_svfprintf_r+0x1738>
    a548:	00dd8db3          	add	s11,s11,a3
    a54c:	f60c9ce3          	bnez	s9,a4c4 <_svfprintf_r+0x16a0>
    a550:	72098c63          	beqz	s3,ac88 <_svfprintf_r+0x1e64>
    a554:	fff98993          	addi	s3,s3,-1
    a558:	f79ff06f          	j	a4d0 <_svfprintf_r+0x16ac>
    a55c:	0e812683          	lw	a3,232(sp)
    a560:	01894863          	blt	s2,s8,a570 <_svfprintf_r+0x174c>
    a564:	0580006f          	j	a5bc <_svfprintf_r+0x1798>
    a568:	ff0c0c13          	addi	s8,s8,-16
    a56c:	05895863          	bge	s2,s8,a5bc <_svfprintf_r+0x1798>
    a570:	00812703          	lw	a4,8(sp)
    a574:	01078793          	addi	a5,a5,16
    a578:	00168693          	addi	a3,a3,1
    a57c:	00e8a023          	sw	a4,0(a7)
    a580:	0128a223          	sw	s2,4(a7)
    a584:	0ef12623          	sw	a5,236(sp)
    a588:	0ed12423          	sw	a3,232(sp)
    a58c:	00888893          	addi	a7,a7,8
    a590:	fcd4dce3          	bge	s1,a3,a568 <_svfprintf_r+0x1744>
    a594:	0e410613          	addi	a2,sp,228
    a598:	000b0593          	mv	a1,s6
    a59c:	000d0513          	mv	a0,s10
    a5a0:	2f9030ef          	jal	ra,e098 <__ssprint_r>
    a5a4:	5a051c63          	bnez	a0,ab5c <_svfprintf_r+0x1d38>
    a5a8:	ff0c0c13          	addi	s8,s8,-16
    a5ac:	0ec12783          	lw	a5,236(sp)
    a5b0:	0e812683          	lw	a3,232(sp)
    a5b4:	10c10893          	addi	a7,sp,268
    a5b8:	fb894ce3          	blt	s2,s8,a570 <_svfprintf_r+0x174c>
    a5bc:	00812703          	lw	a4,8(sp)
    a5c0:	018787b3          	add	a5,a5,s8
    a5c4:	00168693          	addi	a3,a3,1
    a5c8:	00e8a023          	sw	a4,0(a7)
    a5cc:	0188a223          	sw	s8,4(a7)
    a5d0:	0ef12623          	sw	a5,236(sp)
    a5d4:	0ed12423          	sw	a3,232(sp)
    a5d8:	76d4c463          	blt	s1,a3,ad40 <_svfprintf_r+0x1f1c>
    a5dc:	00044683          	lbu	a3,0(s0)
    a5e0:	00888893          	addi	a7,a7,8
    a5e4:	00dd8db3          	add	s11,s11,a3
    a5e8:	f65ff06f          	j	a54c <_svfprintf_r+0x1728>
    a5ec:	01412683          	lw	a3,20(sp)
    a5f0:	010a7793          	andi	a5,s4,16
    a5f4:	00468713          	addi	a4,a3,4
    a5f8:	20078463          	beqz	a5,a800 <_svfprintf_r+0x19dc>
    a5fc:	0006ac83          	lw	s9,0(a3)
    a600:	00000913          	li	s2,0
    a604:	00e12a23          	sw	a4,20(sp)
    a608:	d45ff06f          	j	a34c <_svfprintf_r+0x1528>
    a60c:	0e410613          	addi	a2,sp,228
    a610:	000b0593          	mv	a1,s6
    a614:	000d0513          	mv	a0,s10
    a618:	281030ef          	jal	ra,e098 <__ssprint_r>
    a61c:	54051063          	bnez	a0,ab5c <_svfprintf_r+0x1d38>
    a620:	0ec12783          	lw	a5,236(sp)
    a624:	10c10893          	addi	a7,sp,268
    a628:	ecdff06f          	j	a4f4 <_svfprintf_r+0x16d0>
    a62c:	0e410613          	addi	a2,sp,228
    a630:	000c0593          	mv	a1,s8
    a634:	000d0513          	mv	a0,s10
    a638:	261030ef          	jal	ra,e098 <__ssprint_r>
    a63c:	fc051263          	bnez	a0,9e00 <_svfprintf_r+0xfdc>
    a640:	0e812703          	lw	a4,232(sp)
    a644:	0ec12c83          	lw	s9,236(sp)
    a648:	11410893          	addi	a7,sp,276
    a64c:	00170713          	addi	a4,a4,1
    a650:	10c10913          	addi	s2,sp,268
    a654:	fadfe06f          	j	9600 <_svfprintf_r+0x7dc>
    a658:	1b010b13          	addi	s6,sp,432
    a65c:	00000793          	li	a5,0
    a660:	00812823          	sw	s0,16(sp)
    a664:	00912e23          	sw	s1,28(sp)
    a668:	000b0413          	mv	s0,s6
    a66c:	03312223          	sw	s3,36(sp)
    a670:	000c0b13          	mv	s6,s8
    a674:	000c8493          	mv	s1,s9
    a678:	00090993          	mv	s3,s2
    a67c:	03c12c83          	lw	s9,60(sp)
    a680:	400bfa13          	andi	s4,s7,1024
    a684:	0ff00a93          	li	s5,255
    a688:	00088c13          	mv	s8,a7
    a68c:	00078913          	mv	s2,a5
    a690:	0240006f          	j	a6b4 <_svfprintf_r+0x1890>
    a694:	00a00613          	li	a2,10
    a698:	00000693          	li	a3,0
    a69c:	00048513          	mv	a0,s1
    a6a0:	00098593          	mv	a1,s3
    a6a4:	694050ef          	jal	ra,fd38 <__udivdi3>
    a6a8:	4c098063          	beqz	s3,ab68 <_svfprintf_r+0x1d44>
    a6ac:	00050493          	mv	s1,a0
    a6b0:	00058993          	mv	s3,a1
    a6b4:	00a00613          	li	a2,10
    a6b8:	00000693          	li	a3,0
    a6bc:	00048513          	mv	a0,s1
    a6c0:	00098593          	mv	a1,s3
    a6c4:	2a9050ef          	jal	ra,1016c <__umoddi3>
    a6c8:	03050513          	addi	a0,a0,48
    a6cc:	fea40fa3          	sb	a0,-1(s0)
    a6d0:	00190913          	addi	s2,s2,1
    a6d4:	fff40413          	addi	s0,s0,-1
    a6d8:	fa0a0ee3          	beqz	s4,a694 <_svfprintf_r+0x1870>
    a6dc:	000cc683          	lbu	a3,0(s9)
    a6e0:	fad91ae3          	bne	s2,a3,a694 <_svfprintf_r+0x1870>
    a6e4:	fb5908e3          	beq	s2,s5,a694 <_svfprintf_r+0x1870>
    a6e8:	42099a63          	bnez	s3,ab1c <_svfprintf_r+0x1cf8>
    a6ec:	00900793          	li	a5,9
    a6f0:	4297e663          	bltu	a5,s1,ab1c <_svfprintf_r+0x1cf8>
    a6f4:	000c0893          	mv	a7,s8
    a6f8:	1b010793          	addi	a5,sp,432
    a6fc:	000b0c13          	mv	s8,s6
    a700:	00040b13          	mv	s6,s0
    a704:	03912e23          	sw	s9,60(sp)
    a708:	01c12483          	lw	s1,28(sp)
    a70c:	02412983          	lw	s3,36(sp)
    a710:	01012403          	lw	s0,16(sp)
    a714:	03212023          	sw	s2,32(sp)
    a718:	41678cb3          	sub	s9,a5,s6
    a71c:	000b8a13          	mv	s4,s7
    a720:	968ff06f          	j	9888 <_svfprintf_r+0xa64>
    a724:	0e812703          	lw	a4,232(sp)
    a728:	000146b7          	lui	a3,0x14
    a72c:	2e468693          	addi	a3,a3,740 # 142e4 <__clzsi2+0xcc>
    a730:	00d8a023          	sw	a3,0(a7)
    a734:	00178793          	addi	a5,a5,1
    a738:	00100693          	li	a3,1
    a73c:	00170713          	addi	a4,a4,1
    a740:	00d8a223          	sw	a3,4(a7)
    a744:	0ef12623          	sw	a5,236(sp)
    a748:	0ee12423          	sw	a4,232(sp)
    a74c:	00700693          	li	a3,7
    a750:	00888893          	addi	a7,a7,8
    a754:	06e6cc63          	blt	a3,a4,a7cc <_svfprintf_r+0x19a8>
    a758:	1c061463          	bnez	a2,a920 <_svfprintf_r+0x1afc>
    a75c:	02012683          	lw	a3,32(sp)
    a760:	001a7713          	andi	a4,s4,1
    a764:	00d76733          	or	a4,a4,a3
    a768:	00071463          	bnez	a4,a770 <_svfprintf_r+0x194c>
    a76c:	969fe06f          	j	90d4 <_svfprintf_r+0x2b0>
    a770:	03012703          	lw	a4,48(sp)
    a774:	02c12683          	lw	a3,44(sp)
    a778:	00e8a023          	sw	a4,0(a7)
    a77c:	0e812703          	lw	a4,232(sp)
    a780:	00f687b3          	add	a5,a3,a5
    a784:	00d8a223          	sw	a3,4(a7)
    a788:	00170713          	addi	a4,a4,1
    a78c:	0ef12623          	sw	a5,236(sp)
    a790:	0ee12423          	sw	a4,232(sp)
    a794:	00700693          	li	a3,7
    a798:	4ae6ce63          	blt	a3,a4,ac54 <_svfprintf_r+0x1e30>
    a79c:	00888893          	addi	a7,a7,8
    a7a0:	02012683          	lw	a3,32(sp)
    a7a4:	00170713          	addi	a4,a4,1
    a7a8:	0168a023          	sw	s6,0(a7)
    a7ac:	00f687b3          	add	a5,a3,a5
    a7b0:	00d8a223          	sw	a3,4(a7)
    a7b4:	0ef12623          	sw	a5,236(sp)
    a7b8:	0ee12423          	sw	a4,232(sp)
    a7bc:	00700693          	li	a3,7
    a7c0:	00e6c463          	blt	a3,a4,a7c8 <_svfprintf_r+0x19a4>
    a7c4:	90dfe06f          	j	90d0 <_svfprintf_r+0x2ac>
    a7c8:	e5dfe06f          	j	9624 <_svfprintf_r+0x800>
    a7cc:	0e410613          	addi	a2,sp,228
    a7d0:	000c0593          	mv	a1,s8
    a7d4:	000d0513          	mv	a0,s10
    a7d8:	0c1030ef          	jal	ra,e098 <__ssprint_r>
    a7dc:	e2051263          	bnez	a0,9e00 <_svfprintf_r+0xfdc>
    a7e0:	0cc12603          	lw	a2,204(sp)
    a7e4:	0ec12783          	lw	a5,236(sp)
    a7e8:	10c10893          	addi	a7,sp,268
    a7ec:	f6dff06f          	j	a758 <_svfprintf_r+0x1934>
    a7f0:	01012b83          	lw	s7,16(sp)
    a7f4:	00040d13          	mv	s10,s0
    a7f8:	00048c13          	mv	s8,s1
    a7fc:	e08ff06f          	j	9e04 <_svfprintf_r+0xfe0>
    a800:	040a7793          	andi	a5,s4,64
    a804:	24078c63          	beqz	a5,aa5c <_svfprintf_r+0x1c38>
    a808:	01412783          	lw	a5,20(sp)
    a80c:	00000913          	li	s2,0
    a810:	00e12a23          	sw	a4,20(sp)
    a814:	0007dc83          	lhu	s9,0(a5)
    a818:	b35ff06f          	j	a34c <_svfprintf_r+0x1528>
    a81c:	0e410613          	addi	a2,sp,228
    a820:	000c0593          	mv	a1,s8
    a824:	000d0513          	mv	a0,s10
    a828:	071030ef          	jal	ra,e098 <__ssprint_r>
    a82c:	dc051a63          	bnez	a0,9e00 <_svfprintf_r+0xfdc>
    a830:	0ec12783          	lw	a5,236(sp)
    a834:	10c10893          	addi	a7,sp,268
    a838:	b8cff06f          	j	9bc4 <_svfprintf_r+0xda0>
    a83c:	00812683          	lw	a3,8(sp)
    a840:	009787b3          	add	a5,a5,s1
    a844:	0098a223          	sw	s1,4(a7)
    a848:	00d8a023          	sw	a3,0(a7)
    a84c:	00170713          	addi	a4,a4,1
    a850:	0ef12623          	sw	a5,236(sp)
    a854:	0ee12423          	sw	a4,232(sp)
    a858:	00700693          	li	a3,7
    a85c:	00e6c463          	blt	a3,a4,a864 <_svfprintf_r+0x1a40>
    a860:	871fe06f          	j	90d0 <_svfprintf_r+0x2ac>
    a864:	dc1fe06f          	j	9624 <_svfprintf_r+0x800>
    a868:	0e410613          	addi	a2,sp,228
    a86c:	000b0593          	mv	a1,s6
    a870:	000d0513          	mv	a0,s10
    a874:	025030ef          	jal	ra,e098 <__ssprint_r>
    a878:	2e051263          	bnez	a0,ab5c <_svfprintf_r+0x1d38>
    a87c:	00044683          	lbu	a3,0(s0)
    a880:	0ec12783          	lw	a5,236(sp)
    a884:	10c10893          	addi	a7,sp,268
    a888:	cadff06f          	j	a534 <_svfprintf_r+0x1710>
    a88c:	0f012783          	lw	a5,240(sp)
    a890:	0a010593          	addi	a1,sp,160
    a894:	0b010513          	addi	a0,sp,176
    a898:	0af12823          	sw	a5,176(sp)
    a89c:	0f412783          	lw	a5,244(sp)
    a8a0:	0a012023          	sw	zero,160(sp)
    a8a4:	0a012223          	sw	zero,164(sp)
    a8a8:	0af12a23          	sw	a5,180(sp)
    a8ac:	0f812783          	lw	a5,248(sp)
    a8b0:	0a012423          	sw	zero,168(sp)
    a8b4:	0a012623          	sw	zero,172(sp)
    a8b8:	0af12c23          	sw	a5,184(sp)
    a8bc:	0fc12783          	lw	a5,252(sp)
    a8c0:	0af12e23          	sw	a5,188(sp)
    a8c4:	36d060ef          	jal	ra,11430 <__letf2>
    a8c8:	01012883          	lw	a7,16(sp)
    a8cc:	48054e63          	bltz	a0,ad68 <_svfprintf_r+0x1f44>
    a8d0:	0c714783          	lbu	a5,199(sp)
    a8d4:	04700713          	li	a4,71
    a8d8:	28975e63          	bge	a4,s1,ab74 <_svfprintf_r+0x1d50>
    a8dc:	00014837          	lui	a6,0x14
    a8e0:	2a880b13          	addi	s6,a6,680 # 142a8 <__clzsi2+0x90>
    a8e4:	00012823          	sw	zero,16(sp)
    a8e8:	02012423          	sw	zero,40(sp)
    a8ec:	02012223          	sw	zero,36(sp)
    a8f0:	00012e23          	sw	zero,28(sp)
    a8f4:	f7fa7a13          	andi	s4,s4,-129
    a8f8:	00300a93          	li	s5,3
    a8fc:	00300c93          	li	s9,3
    a900:	00000d93          	li	s11,0
    a904:	00078463          	beqz	a5,a90c <_svfprintf_r+0x1ae8>
    a908:	e71fe06f          	j	9778 <_svfprintf_r+0x954>
    a90c:	efcfe06f          	j	9008 <_svfprintf_r+0x1e4>
    a910:	00c12783          	lw	a5,12(sp)
    a914:	00040b13          	mv	s6,s0
    a918:	00f72023          	sw	a5,0(a4)
    a91c:	801fe06f          	j	911c <_svfprintf_r+0x2f8>
    a920:	03012703          	lw	a4,48(sp)
    a924:	02c12683          	lw	a3,44(sp)
    a928:	00888893          	addi	a7,a7,8
    a92c:	fee8ac23          	sw	a4,-8(a7)
    a930:	0e812703          	lw	a4,232(sp)
    a934:	00f687b3          	add	a5,a3,a5
    a938:	fed8ae23          	sw	a3,-4(a7)
    a93c:	00170713          	addi	a4,a4,1
    a940:	0ef12623          	sw	a5,236(sp)
    a944:	0ee12423          	sw	a4,232(sp)
    a948:	00700693          	li	a3,7
    a94c:	30e6c463          	blt	a3,a4,ac54 <_svfprintf_r+0x1e30>
    a950:	e40658e3          	bgez	a2,a7a0 <_svfprintf_r+0x197c>
    a954:	ff000693          	li	a3,-16
    a958:	40c004b3          	neg	s1,a2
    a95c:	32d65ae3          	bge	a2,a3,b490 <_svfprintf_r+0x266c>
    a960:	01000913          	li	s2,16
    a964:	00700c93          	li	s9,7
    a968:	00c0006f          	j	a974 <_svfprintf_r+0x1b50>
    a96c:	ff048493          	addi	s1,s1,-16
    a970:	329950e3          	bge	s2,s1,b490 <_svfprintf_r+0x266c>
    a974:	00812683          	lw	a3,8(sp)
    a978:	01078793          	addi	a5,a5,16
    a97c:	00170713          	addi	a4,a4,1
    a980:	00d8a023          	sw	a3,0(a7)
    a984:	0128a223          	sw	s2,4(a7)
    a988:	0ef12623          	sw	a5,236(sp)
    a98c:	0ee12423          	sw	a4,232(sp)
    a990:	00888893          	addi	a7,a7,8
    a994:	fcecdce3          	bge	s9,a4,a96c <_svfprintf_r+0x1b48>
    a998:	0e410613          	addi	a2,sp,228
    a99c:	000c0593          	mv	a1,s8
    a9a0:	000d0513          	mv	a0,s10
    a9a4:	6f4030ef          	jal	ra,e098 <__ssprint_r>
    a9a8:	c4051c63          	bnez	a0,9e00 <_svfprintf_r+0xfdc>
    a9ac:	0ec12783          	lw	a5,236(sp)
    a9b0:	0e812703          	lw	a4,232(sp)
    a9b4:	10c10893          	addi	a7,sp,268
    a9b8:	fb5ff06f          	j	a96c <_svfprintf_r+0x1b48>
    a9bc:	000b0513          	mv	a0,s6
    a9c0:	05912023          	sw	s9,64(sp)
    a9c4:	b2cfe0ef          	jal	ra,8cf0 <strlen>
    a9c8:	0c714783          	lbu	a5,199(sp)
    a9cc:	fff54a93          	not	s5,a0
    a9d0:	41fada93          	srai	s5,s5,0x1f
    a9d4:	01212a23          	sw	s2,20(sp)
    a9d8:	00012823          	sw	zero,16(sp)
    a9dc:	02012423          	sw	zero,40(sp)
    a9e0:	02012223          	sw	zero,36(sp)
    a9e4:	00012e23          	sw	zero,28(sp)
    a9e8:	04012883          	lw	a7,64(sp)
    a9ec:	00050c93          	mv	s9,a0
    a9f0:	01557ab3          	and	s5,a0,s5
    a9f4:	00000d93          	li	s11,0
    a9f8:	00078463          	beqz	a5,aa00 <_svfprintf_r+0x1bdc>
    a9fc:	d7dfe06f          	j	9778 <_svfprintf_r+0x954>
    aa00:	e08fe06f          	j	9008 <_svfprintf_r+0x1e4>
    aa04:	00148713          	addi	a4,s1,1
    aa08:	00890693          	addi	a3,s2,8
    aa0c:	00812783          	lw	a5,8(sp)
    aa10:	01bc8cb3          	add	s9,s9,s11
    aa14:	01b92223          	sw	s11,4(s2)
    aa18:	00f92023          	sw	a5,0(s2)
    aa1c:	0f912623          	sw	s9,236(sp)
    aa20:	0ee12423          	sw	a4,232(sp)
    aa24:	00700793          	li	a5,7
    aa28:	c0e7c2e3          	blt	a5,a4,a62c <_svfprintf_r+0x1808>
    aa2c:	00170713          	addi	a4,a4,1
    aa30:	00868893          	addi	a7,a3,8
    aa34:	00068913          	mv	s2,a3
    aa38:	bc9fe06f          	j	9600 <_svfprintf_r+0x7dc>
    aa3c:	200bf793          	andi	a5,s7,512
    aa40:	1c078c63          	beqz	a5,ac18 <_svfprintf_r+0x1df4>
    aa44:	01412783          	lw	a5,20(sp)
    aa48:	00000913          	li	s2,0
    aa4c:	00d12a23          	sw	a3,20(sp)
    aa50:	0007cc83          	lbu	s9,0(a5)
    aa54:	00100793          	li	a5,1
    aa58:	e05fe06f          	j	985c <_svfprintf_r+0xa38>
    aa5c:	200a7793          	andi	a5,s4,512
    aa60:	1a078263          	beqz	a5,ac04 <_svfprintf_r+0x1de0>
    aa64:	01412783          	lw	a5,20(sp)
    aa68:	00000913          	li	s2,0
    aa6c:	00e12a23          	sw	a4,20(sp)
    aa70:	0007cc83          	lbu	s9,0(a5)
    aa74:	8d9ff06f          	j	a34c <_svfprintf_r+0x1528>
    aa78:	200a7793          	andi	a5,s4,512
    aa7c:	16078863          	beqz	a5,abec <_svfprintf_r+0x1dc8>
    aa80:	01412783          	lw	a5,20(sp)
    aa84:	00e12a23          	sw	a4,20(sp)
    aa88:	00078c83          	lb	s9,0(a5)
    aa8c:	41fcd913          	srai	s2,s9,0x1f
    aa90:	00090793          	mv	a5,s2
    aa94:	f81fe06f          	j	9a14 <_svfprintf_r+0xbf0>
    aa98:	200a7793          	andi	a5,s4,512
    aa9c:	12078e63          	beqz	a5,abd8 <_svfprintf_r+0x1db4>
    aaa0:	01412783          	lw	a5,20(sp)
    aaa4:	00000913          	li	s2,0
    aaa8:	00e12a23          	sw	a4,20(sp)
    aaac:	0007cc83          	lbu	s9,0(a5)
    aab0:	e2dfe06f          	j	98dc <_svfprintf_r+0xab8>
    aab4:	0fc12783          	lw	a5,252(sp)
    aab8:	1807c863          	bltz	a5,ac48 <_svfprintf_r+0x1e24>
    aabc:	0c714783          	lbu	a5,199(sp)
    aac0:	04700713          	li	a4,71
    aac4:	48975063          	bge	a4,s1,af44 <_svfprintf_r+0x2120>
    aac8:	00014837          	lui	a6,0x14
    aacc:	2b080b13          	addi	s6,a6,688 # 142b0 <__clzsi2+0x98>
    aad0:	e15ff06f          	j	a8e4 <_svfprintf_r+0x1ac0>
    aad4:	00812683          	lw	a3,8(sp)
    aad8:	009787b3          	add	a5,a5,s1
    aadc:	00170713          	addi	a4,a4,1
    aae0:	00d8a023          	sw	a3,0(a7)
    aae4:	0098a223          	sw	s1,4(a7)
    aae8:	0ef12623          	sw	a5,236(sp)
    aaec:	0ee12423          	sw	a4,232(sp)
    aaf0:	00700693          	li	a3,7
    aaf4:	00888893          	addi	a7,a7,8
    aaf8:	c8e6d663          	bge	a3,a4,9f84 <_svfprintf_r+0x1160>
    aafc:	0e410613          	addi	a2,sp,228
    ab00:	000c0593          	mv	a1,s8
    ab04:	000d0513          	mv	a0,s10
    ab08:	590030ef          	jal	ra,e098 <__ssprint_r>
    ab0c:	ae051a63          	bnez	a0,9e00 <_svfprintf_r+0xfdc>
    ab10:	0ec12783          	lw	a5,236(sp)
    ab14:	10c10893          	addi	a7,sp,268
    ab18:	c6cff06f          	j	9f84 <_svfprintf_r+0x1160>
    ab1c:	04812783          	lw	a5,72(sp)
    ab20:	04c12583          	lw	a1,76(sp)
    ab24:	00000913          	li	s2,0
    ab28:	40f40433          	sub	s0,s0,a5
    ab2c:	00078613          	mv	a2,a5
    ab30:	00040513          	mv	a0,s0
    ab34:	a48fe0ef          	jal	ra,8d7c <strncpy>
    ab38:	001cc583          	lbu	a1,1(s9)
    ab3c:	00a00613          	li	a2,10
    ab40:	00000693          	li	a3,0
    ab44:	00b03833          	snez	a6,a1
    ab48:	00048513          	mv	a0,s1
    ab4c:	00098593          	mv	a1,s3
    ab50:	010c8cb3          	add	s9,s9,a6
    ab54:	1e4050ef          	jal	ra,fd38 <__udivdi3>
    ab58:	b55ff06f          	j	a6ac <_svfprintf_r+0x1888>
    ab5c:	01012b83          	lw	s7,16(sp)
    ab60:	000b0c13          	mv	s8,s6
    ab64:	aa0ff06f          	j	9e04 <_svfprintf_r+0xfe0>
    ab68:	00900793          	li	a5,9
    ab6c:	b497e0e3          	bltu	a5,s1,a6ac <_svfprintf_r+0x1888>
    ab70:	b85ff06f          	j	a6f4 <_svfprintf_r+0x18d0>
    ab74:	00014837          	lui	a6,0x14
    ab78:	2a480b13          	addi	s6,a6,676 # 142a4 <__clzsi2+0x8c>
    ab7c:	d69ff06f          	j	a8e4 <_svfprintf_r+0x1ac0>
    ab80:	0e410613          	addi	a2,sp,228
    ab84:	000c0593          	mv	a1,s8
    ab88:	000d0513          	mv	a0,s10
    ab8c:	50c030ef          	jal	ra,e098 <__ssprint_r>
    ab90:	a6051863          	bnez	a0,9e00 <_svfprintf_r+0xfdc>
    ab94:	0ec12783          	lw	a5,236(sp)
    ab98:	10c10893          	addi	a7,sp,268
    ab9c:	bd0ff06f          	j	9f6c <_svfprintf_r+0x1148>
    aba0:	00600c93          	li	s9,6
    aba4:	865ff06f          	j	a408 <_svfprintf_r+0x15e4>
    aba8:	02012703          	lw	a4,32(sp)
    abac:	00eb0833          	add	a6,s6,a4
    abb0:	409704b3          	sub	s1,a4,s1
    abb4:	41b806b3          	sub	a3,a6,s11
    abb8:	00048913          	mv	s2,s1
    abbc:	c696d263          	bge	a3,s1,a020 <_svfprintf_r+0x11fc>
    abc0:	00068913          	mv	s2,a3
    abc4:	c5cff06f          	j	a020 <_svfprintf_r+0x11fc>
    abc8:	00c12783          	lw	a5,12(sp)
    abcc:	00040b13          	mv	s6,s0
    abd0:	00f71023          	sh	a5,0(a4)
    abd4:	d48fe06f          	j	911c <_svfprintf_r+0x2f8>
    abd8:	01412783          	lw	a5,20(sp)
    abdc:	00000913          	li	s2,0
    abe0:	00e12a23          	sw	a4,20(sp)
    abe4:	0007ac83          	lw	s9,0(a5)
    abe8:	cf5fe06f          	j	98dc <_svfprintf_r+0xab8>
    abec:	01412783          	lw	a5,20(sp)
    abf0:	00e12a23          	sw	a4,20(sp)
    abf4:	0007ac83          	lw	s9,0(a5)
    abf8:	41fcd913          	srai	s2,s9,0x1f
    abfc:	00090793          	mv	a5,s2
    ac00:	e15fe06f          	j	9a14 <_svfprintf_r+0xbf0>
    ac04:	01412783          	lw	a5,20(sp)
    ac08:	00000913          	li	s2,0
    ac0c:	00e12a23          	sw	a4,20(sp)
    ac10:	0007ac83          	lw	s9,0(a5)
    ac14:	f38ff06f          	j	a34c <_svfprintf_r+0x1528>
    ac18:	01412783          	lw	a5,20(sp)
    ac1c:	00000913          	li	s2,0
    ac20:	00d12a23          	sw	a3,20(sp)
    ac24:	0007ac83          	lw	s9,0(a5)
    ac28:	00100793          	li	a5,1
    ac2c:	c31fe06f          	j	985c <_svfprintf_r+0xa38>
    ac30:	0e410613          	addi	a2,sp,228
    ac34:	000c0593          	mv	a1,s8
    ac38:	000d0513          	mv	a0,s10
    ac3c:	45c030ef          	jal	ra,e098 <__ssprint_r>
    ac40:	00cc5783          	lhu	a5,12(s8)
    ac44:	cf0fe06f          	j	9134 <_svfprintf_r+0x310>
    ac48:	02d00793          	li	a5,45
    ac4c:	0cf103a3          	sb	a5,199(sp)
    ac50:	e71ff06f          	j	aac0 <_svfprintf_r+0x1c9c>
    ac54:	0e410613          	addi	a2,sp,228
    ac58:	000c0593          	mv	a1,s8
    ac5c:	000d0513          	mv	a0,s10
    ac60:	438030ef          	jal	ra,e098 <__ssprint_r>
    ac64:	98051e63          	bnez	a0,9e00 <_svfprintf_r+0xfdc>
    ac68:	0cc12603          	lw	a2,204(sp)
    ac6c:	0ec12783          	lw	a5,236(sp)
    ac70:	0e812703          	lw	a4,232(sp)
    ac74:	10c10893          	addi	a7,sp,268
    ac78:	b20654e3          	bgez	a2,a7a0 <_svfprintf_r+0x197c>
    ac7c:	cd9ff06f          	j	a954 <_svfprintf_r+0x1b30>
    ac80:	00600d93          	li	s11,6
    ac84:	e38fe06f          	j	92bc <_svfprintf_r+0x498>
    ac88:	02012703          	lw	a4,32(sp)
    ac8c:	000b0c13          	mv	s8,s6
    ac90:	02812b03          	lw	s6,40(sp)
    ac94:	02812e23          	sw	s0,60(sp)
    ac98:	01c12a03          	lw	s4,28(sp)
    ac9c:	00eb0733          	add	a4,s6,a4
    aca0:	04012403          	lw	s0,64(sp)
    aca4:	04412983          	lw	s3,68(sp)
    aca8:	02412a83          	lw	s5,36(sp)
    acac:	afb77463          	bgeu	a4,s11,9f94 <_svfprintf_r+0x1170>
    acb0:	00070d93          	mv	s11,a4
    acb4:	ae0ff06f          	j	9f94 <_svfprintf_r+0x1170>
    acb8:	01c12703          	lw	a4,28(sp)
    acbc:	ffd00793          	li	a5,-3
    acc0:	00f74463          	blt	a4,a5,acc8 <_svfprintf_r+0x1ea4>
    acc4:	00edda63          	bge	s11,a4,acd8 <_svfprintf_r+0x1eb4>
    acc8:	ffe48493          	addi	s1,s1,-2
    accc:	fdf4f793          	andi	a5,s1,-33
    acd0:	02f12423          	sw	a5,40(sp)
    acd4:	edcfe06f          	j	93b0 <_svfprintf_r+0x58c>
    acd8:	01c12703          	lw	a4,28(sp)
    acdc:	02012783          	lw	a5,32(sp)
    ace0:	26f74863          	blt	a4,a5,af50 <_svfprintf_r+0x212c>
    ace4:	05012783          	lw	a5,80(sp)
    ace8:	00070c93          	mv	s9,a4
    acec:	0017f793          	andi	a5,a5,1
    acf0:	00078663          	beqz	a5,acfc <_svfprintf_r+0x1ed8>
    acf4:	02c12783          	lw	a5,44(sp)
    acf8:	00f70cb3          	add	s9,a4,a5
    acfc:	05012783          	lw	a5,80(sp)
    ad00:	4007f793          	andi	a5,a5,1024
    ad04:	00078663          	beqz	a5,ad10 <_svfprintf_r+0x1eec>
    ad08:	01c12783          	lw	a5,28(sp)
    ad0c:	14f040e3          	bgtz	a5,b64c <_svfprintf_r+0x2828>
    ad10:	fffcca93          	not	s5,s9
    ad14:	41fada93          	srai	s5,s5,0x1f
    ad18:	015cfab3          	and	s5,s9,s5
    ad1c:	06700493          	li	s1,103
    ad20:	02012423          	sw	zero,40(sp)
    ad24:	02012223          	sw	zero,36(sp)
    ad28:	fa4fe06f          	j	94cc <_svfprintf_r+0x6a8>
    ad2c:	0c714783          	lbu	a5,199(sp)
    ad30:	00000d93          	li	s11,0
    ad34:	00078463          	beqz	a5,ad3c <_svfprintf_r+0x1f18>
    ad38:	a41fe06f          	j	9778 <_svfprintf_r+0x954>
    ad3c:	accfe06f          	j	9008 <_svfprintf_r+0x1e4>
    ad40:	0e410613          	addi	a2,sp,228
    ad44:	000b0593          	mv	a1,s6
    ad48:	000d0513          	mv	a0,s10
    ad4c:	34c030ef          	jal	ra,e098 <__ssprint_r>
    ad50:	e00516e3          	bnez	a0,ab5c <_svfprintf_r+0x1d38>
    ad54:	00044683          	lbu	a3,0(s0)
    ad58:	0ec12783          	lw	a5,236(sp)
    ad5c:	10c10893          	addi	a7,sp,268
    ad60:	00dd8db3          	add	s11,s11,a3
    ad64:	fe8ff06f          	j	a54c <_svfprintf_r+0x1728>
    ad68:	02d00793          	li	a5,45
    ad6c:	0cf103a3          	sb	a5,199(sp)
    ad70:	b65ff06f          	j	a8d4 <_svfprintf_r+0x1ab0>
    ad74:	0b010a93          	addi	s5,sp,176
    ad78:	0d010793          	addi	a5,sp,208
    ad7c:	0cc10713          	addi	a4,sp,204
    ad80:	0dc10813          	addi	a6,sp,220
    ad84:	000d8693          	mv	a3,s11
    ad88:	00300613          	li	a2,3
    ad8c:	000a8593          	mv	a1,s5
    ad90:	000d0513          	mv	a0,s10
    ad94:	05112023          	sw	a7,64(sp)
    ad98:	0bc12823          	sw	t3,176(sp)
    ad9c:	03c12223          	sw	t3,36(sp)
    ada0:	0bd12a23          	sw	t4,180(sp)
    ada4:	03d12023          	sw	t4,32(sp)
    ada8:	0be12c23          	sw	t5,184(sp)
    adac:	01e12e23          	sw	t5,28(sp)
    adb0:	0b712e23          	sw	s7,188(sp)
    adb4:	a6dfa0ef          	jal	ra,5820 <_ldtoa_r>
    adb8:	00054703          	lbu	a4,0(a0)
    adbc:	03000793          	li	a5,48
    adc0:	01c12f03          	lw	t5,28(sp)
    adc4:	02012e83          	lw	t4,32(sp)
    adc8:	02412e03          	lw	t3,36(sp)
    adcc:	04012883          	lw	a7,64(sp)
    add0:	00050b13          	mv	s6,a0
    add4:	0a010c93          	addi	s9,sp,160
    add8:	06f70c63          	beq	a4,a5,ae50 <_svfprintf_r+0x202c>
    addc:	0cc12783          	lw	a5,204(sp)
    ade0:	01b787b3          	add	a5,a5,s11
    ade4:	00fb0933          	add	s2,s6,a5
    ade8:	000c8593          	mv	a1,s9
    adec:	000a8513          	mv	a0,s5
    adf0:	01112e23          	sw	a7,28(sp)
    adf4:	0bc12823          	sw	t3,176(sp)
    adf8:	0bd12a23          	sw	t4,180(sp)
    adfc:	0be12c23          	sw	t5,184(sp)
    ae00:	0b712e23          	sw	s7,188(sp)
    ae04:	0a012023          	sw	zero,160(sp)
    ae08:	0a012223          	sw	zero,164(sp)
    ae0c:	0a012423          	sw	zero,168(sp)
    ae10:	0a012623          	sw	zero,172(sp)
    ae14:	40c060ef          	jal	ra,11220 <__eqtf2>
    ae18:	01c12883          	lw	a7,28(sp)
    ae1c:	00090693          	mv	a3,s2
    ae20:	00051463          	bnez	a0,ae28 <_svfprintf_r+0x2004>
    ae24:	d5cfe06f          	j	9380 <_svfprintf_r+0x55c>
    ae28:	0dc12683          	lw	a3,220(sp)
    ae2c:	0126e463          	bltu	a3,s2,ae34 <_svfprintf_r+0x2010>
    ae30:	d50fe06f          	j	9380 <_svfprintf_r+0x55c>
    ae34:	03000713          	li	a4,48
    ae38:	00168793          	addi	a5,a3,1
    ae3c:	0cf12e23          	sw	a5,220(sp)
    ae40:	00e68023          	sb	a4,0(a3)
    ae44:	0dc12683          	lw	a3,220(sp)
    ae48:	ff26e8e3          	bltu	a3,s2,ae38 <_svfprintf_r+0x2014>
    ae4c:	d34fe06f          	j	9380 <_svfprintf_r+0x55c>
    ae50:	0a010c93          	addi	s9,sp,160
    ae54:	000c8593          	mv	a1,s9
    ae58:	000a8513          	mv	a0,s5
    ae5c:	05112023          	sw	a7,64(sp)
    ae60:	0bc12823          	sw	t3,176(sp)
    ae64:	03c12223          	sw	t3,36(sp)
    ae68:	0bd12a23          	sw	t4,180(sp)
    ae6c:	03d12023          	sw	t4,32(sp)
    ae70:	0be12c23          	sw	t5,184(sp)
    ae74:	01e12e23          	sw	t5,28(sp)
    ae78:	0b712e23          	sw	s7,188(sp)
    ae7c:	0a012023          	sw	zero,160(sp)
    ae80:	0a012223          	sw	zero,164(sp)
    ae84:	0a012423          	sw	zero,168(sp)
    ae88:	0a012623          	sw	zero,172(sp)
    ae8c:	394060ef          	jal	ra,11220 <__eqtf2>
    ae90:	01c12f03          	lw	t5,28(sp)
    ae94:	02012e83          	lw	t4,32(sp)
    ae98:	02412e03          	lw	t3,36(sp)
    ae9c:	04012883          	lw	a7,64(sp)
    aea0:	f2050ee3          	beqz	a0,addc <_svfprintf_r+0x1fb8>
    aea4:	00100793          	li	a5,1
    aea8:	41b787b3          	sub	a5,a5,s11
    aeac:	0cf12623          	sw	a5,204(sp)
    aeb0:	f31ff06f          	j	ade0 <_svfprintf_r+0x1fbc>
    aeb4:	0e410613          	addi	a2,sp,228
    aeb8:	000c0593          	mv	a1,s8
    aebc:	000d0513          	mv	a0,s10
    aec0:	1d8030ef          	jal	ra,e098 <__ssprint_r>
    aec4:	00050463          	beqz	a0,aecc <_svfprintf_r+0x20a8>
    aec8:	f39fe06f          	j	9e00 <_svfprintf_r+0xfdc>
    aecc:	0cc12483          	lw	s1,204(sp)
    aed0:	0ec12783          	lw	a5,236(sp)
    aed4:	10c10893          	addi	a7,sp,268
    aed8:	900ff06f          	j	9fd8 <_svfprintf_r+0x11b4>
    aedc:	0c714783          	lbu	a5,199(sp)
    aee0:	01212a23          	sw	s2,20(sp)
    aee4:	02012423          	sw	zero,40(sp)
    aee8:	02012223          	sw	zero,36(sp)
    aeec:	00012e23          	sw	zero,28(sp)
    aef0:	000d8a93          	mv	s5,s11
    aef4:	000d8c93          	mv	s9,s11
    aef8:	00000d93          	li	s11,0
    aefc:	00078463          	beqz	a5,af04 <_svfprintf_r+0x20e0>
    af00:	879fe06f          	j	9778 <_svfprintf_r+0x954>
    af04:	904fe06f          	j	9008 <_svfprintf_r+0x1e4>
    af08:	00015637          	lui	a2,0x15
    af0c:	a3c60e93          	addi	t4,a2,-1476 # 14a3c <blanks.4470>
    af10:	fb5fe06f          	j	9ec4 <_svfprintf_r+0x10a0>
    af14:	0e410613          	addi	a2,sp,228
    af18:	000c0593          	mv	a1,s8
    af1c:	000d0513          	mv	a0,s10
    af20:	178030ef          	jal	ra,e098 <__ssprint_r>
    af24:	00050463          	beqz	a0,af2c <_svfprintf_r+0x2108>
    af28:	ed9fe06f          	j	9e00 <_svfprintf_r+0xfdc>
    af2c:	0cc12483          	lw	s1,204(sp)
    af30:	02012703          	lw	a4,32(sp)
    af34:	0ec12783          	lw	a5,236(sp)
    af38:	10c10893          	addi	a7,sp,268
    af3c:	409704b3          	sub	s1,a4,s1
    af40:	8e0ff06f          	j	a020 <_svfprintf_r+0x11fc>
    af44:	00014837          	lui	a6,0x14
    af48:	2ac80b13          	addi	s6,a6,684 # 142ac <__clzsi2+0x94>
    af4c:	999ff06f          	j	a8e4 <_svfprintf_r+0x1ac0>
    af50:	02012783          	lw	a5,32(sp)
    af54:	02c12703          	lw	a4,44(sp)
    af58:	06700493          	li	s1,103
    af5c:	00e78cb3          	add	s9,a5,a4
    af60:	01c12783          	lw	a5,28(sp)
    af64:	76f05463          	blez	a5,b6cc <_svfprintf_r+0x28a8>
    af68:	05012783          	lw	a5,80(sp)
    af6c:	4007f793          	andi	a5,a5,1024
    af70:	6e079063          	bnez	a5,b650 <_svfprintf_r+0x282c>
    af74:	fffcca93          	not	s5,s9
    af78:	41fada93          	srai	s5,s5,0x1f
    af7c:	015cfab3          	and	s5,s9,s5
    af80:	da1ff06f          	j	ad20 <_svfprintf_r+0x1efc>
    af84:	05012783          	lw	a5,80(sp)
    af88:	01c12703          	lw	a4,28(sp)
    af8c:	0017f793          	andi	a5,a5,1
    af90:	01b7e7b3          	or	a5,a5,s11
    af94:	76e05263          	blez	a4,b6f8 <_svfprintf_r+0x28d4>
    af98:	58079e63          	bnez	a5,b534 <_svfprintf_r+0x2710>
    af9c:	01c12c83          	lw	s9,28(sp)
    afa0:	06600493          	li	s1,102
    afa4:	fc5ff06f          	j	af68 <_svfprintf_r+0x2144>
    afa8:	03000793          	li	a5,48
    afac:	0cf10423          	sb	a5,200(sp)
    afb0:	05800793          	li	a5,88
    afb4:	002a6713          	ori	a4,s4,2
    afb8:	0cf104a3          	sb	a5,201(sp)
    afbc:	04e12823          	sw	a4,80(sp)
    afc0:	06300793          	li	a5,99
    afc4:	00012823          	sw	zero,16(sp)
    afc8:	14c10b13          	addi	s6,sp,332
    afcc:	4bb7c063          	blt	a5,s11,b46c <_svfprintf_r+0x2648>
    afd0:	0fc12b83          	lw	s7,252(sp)
    afd4:	fdf4f793          	andi	a5,s1,-33
    afd8:	02f12423          	sw	a5,40(sp)
    afdc:	04012c23          	sw	zero,88(sp)
    afe0:	0f012e03          	lw	t3,240(sp)
    afe4:	0f412e83          	lw	t4,244(sp)
    afe8:	0f812f03          	lw	t5,248(sp)
    afec:	102a6a13          	ori	s4,s4,258
    aff0:	380bc063          	bltz	s7,b370 <_svfprintf_r+0x254c>
    aff4:	06100793          	li	a5,97
    aff8:	54f48863          	beq	s1,a5,b548 <_svfprintf_r+0x2724>
    affc:	04100793          	li	a5,65
    b000:	00f48463          	beq	s1,a5,b008 <_svfprintf_r+0x21e4>
    b004:	ae4fe06f          	j	92e8 <_svfprintf_r+0x4c4>
    b008:	0b010a93          	addi	s5,sp,176
    b00c:	000a8513          	mv	a0,s5
    b010:	05112a23          	sw	a7,84(sp)
    b014:	0bc12823          	sw	t3,176(sp)
    b018:	0bd12a23          	sw	t4,180(sp)
    b01c:	0be12c23          	sw	t5,184(sp)
    b020:	0b712e23          	sw	s7,188(sp)
    b024:	699080ef          	jal	ra,13ebc <__trunctfdf2>
    b028:	0cc10613          	addi	a2,sp,204
    b02c:	fb0fd0ef          	jal	ra,87dc <frexp>
    b030:	00058613          	mv	a2,a1
    b034:	00050593          	mv	a1,a0
    b038:	000a8513          	mv	a0,s5
    b03c:	489080ef          	jal	ra,13cc4 <__extenddftf2>
    b040:	0b012783          	lw	a5,176(sp)
    b044:	0a010c93          	addi	s9,sp,160
    b048:	09010913          	addi	s2,sp,144
    b04c:	08f12823          	sw	a5,144(sp)
    b050:	0b412783          	lw	a5,180(sp)
    b054:	08010613          	addi	a2,sp,128
    b058:	00090593          	mv	a1,s2
    b05c:	08f12a23          	sw	a5,148(sp)
    b060:	0b812783          	lw	a5,184(sp)
    b064:	000c8513          	mv	a0,s9
    b068:	04c12023          	sw	a2,64(sp)
    b06c:	08f12c23          	sw	a5,152(sp)
    b070:	0bc12783          	lw	a5,188(sp)
    b074:	08012023          	sw	zero,128(sp)
    b078:	08012223          	sw	zero,132(sp)
    b07c:	08f12e23          	sw	a5,156(sp)
    b080:	3ffc07b7          	lui	a5,0x3ffc0
    b084:	08f12623          	sw	a5,140(sp)
    b088:	08012423          	sw	zero,136(sp)
    b08c:	4e8060ef          	jal	ra,11574 <__multf3>
    b090:	0a012683          	lw	a3,160(sp)
    b094:	0a412e03          	lw	t3,164(sp)
    b098:	0a812e83          	lw	t4,168(sp)
    b09c:	0ac12f03          	lw	t5,172(sp)
    b0a0:	000c8593          	mv	a1,s9
    b0a4:	000a8513          	mv	a0,s5
    b0a8:	0ad12823          	sw	a3,176(sp)
    b0ac:	04d12223          	sw	a3,68(sp)
    b0b0:	0bc12a23          	sw	t3,180(sp)
    b0b4:	03c12223          	sw	t3,36(sp)
    b0b8:	0bd12c23          	sw	t4,184(sp)
    b0bc:	03d12023          	sw	t4,32(sp)
    b0c0:	0be12e23          	sw	t5,188(sp)
    b0c4:	01e12e23          	sw	t5,28(sp)
    b0c8:	0a012023          	sw	zero,160(sp)
    b0cc:	0a012223          	sw	zero,164(sp)
    b0d0:	0a012423          	sw	zero,168(sp)
    b0d4:	0a012623          	sw	zero,172(sp)
    b0d8:	148060ef          	jal	ra,11220 <__eqtf2>
    b0dc:	01c12f03          	lw	t5,28(sp)
    b0e0:	02012e83          	lw	t4,32(sp)
    b0e4:	02412e03          	lw	t3,36(sp)
    b0e8:	04412683          	lw	a3,68(sp)
    b0ec:	05412883          	lw	a7,84(sp)
    b0f0:	00051663          	bnez	a0,b0fc <_svfprintf_r+0x22d8>
    b0f4:	00100793          	li	a5,1
    b0f8:	0cf12623          	sw	a5,204(sp)
    b0fc:	000147b7          	lui	a5,0x14
    b100:	2c878793          	addi	a5,a5,712 # 142c8 <__clzsi2+0xb0>
    b104:	02f12223          	sw	a5,36(sp)
    b108:	fffd8713          	addi	a4,s11,-1
    b10c:	05412e23          	sw	s4,92(sp)
    b110:	06912223          	sw	s1,100(sp)
    b114:	07b12623          	sw	s11,108(sp)
    b118:	07a12a23          	sw	s10,116(sp)
    b11c:	07812c23          	sw	s8,120(sp)
    b120:	000b0b93          	mv	s7,s6
    b124:	06812023          	sw	s0,96(sp)
    b128:	07312423          	sw	s3,104(sp)
    b12c:	07112823          	sw	a7,112(sp)
    b130:	00070c13          	mv	s8,a4
    b134:	07612e23          	sw	s6,124(sp)
    b138:	00068d13          	mv	s10,a3
    b13c:	000e0d93          	mv	s11,t3
    b140:	000e8493          	mv	s1,t4
    b144:	000f0a13          	mv	s4,t5
    b148:	0480006f          	j	b190 <_svfprintf_r+0x236c>
    b14c:	000c8593          	mv	a1,s9
    b150:	000a8513          	mv	a0,s5
    b154:	02c12023          	sw	a2,32(sp)
    b158:	01f12e23          	sw	t6,28(sp)
    b15c:	0bf12c23          	sw	t6,184(sp)
    b160:	0ac12e23          	sw	a2,188(sp)
    b164:	0b612823          	sw	s6,176(sp)
    b168:	0b312a23          	sw	s3,180(sp)
    b16c:	0a012023          	sw	zero,160(sp)
    b170:	0a012223          	sw	zero,164(sp)
    b174:	0a012423          	sw	zero,168(sp)
    b178:	0a012623          	sw	zero,172(sp)
    b17c:	0a4060ef          	jal	ra,11220 <__eqtf2>
    b180:	01c12f83          	lw	t6,28(sp)
    b184:	02012603          	lw	a2,32(sp)
    b188:	fffc0c13          	addi	s8,s8,-1
    b18c:	0e050263          	beqz	a0,b270 <_svfprintf_r+0x244c>
    b190:	400307b7          	lui	a5,0x40030
    b194:	00090613          	mv	a2,s2
    b198:	000c8593          	mv	a1,s9
    b19c:	000a8513          	mv	a0,s5
    b1a0:	08f12e23          	sw	a5,156(sp)
    b1a4:	0ba12023          	sw	s10,160(sp)
    b1a8:	0bb12223          	sw	s11,164(sp)
    b1ac:	0a912423          	sw	s1,168(sp)
    b1b0:	0b412623          	sw	s4,172(sp)
    b1b4:	08012823          	sw	zero,144(sp)
    b1b8:	08012a23          	sw	zero,148(sp)
    b1bc:	08012c23          	sw	zero,152(sp)
    b1c0:	3b4060ef          	jal	ra,11574 <__multf3>
    b1c4:	000a8513          	mv	a0,s5
    b1c8:	095080ef          	jal	ra,13a5c <__fixtfsi>
    b1cc:	00050593          	mv	a1,a0
    b1d0:	00050413          	mv	s0,a0
    b1d4:	000a8513          	mv	a0,s5
    b1d8:	0b012983          	lw	s3,176(sp)
    b1dc:	0b412483          	lw	s1,180(sp)
    b1e0:	0b812b03          	lw	s6,184(sp)
    b1e4:	0bc12a03          	lw	s4,188(sp)
    b1e8:	189080ef          	jal	ra,13b70 <__floatsitf>
    b1ec:	0b012683          	lw	a3,176(sp)
    b1f0:	04012603          	lw	a2,64(sp)
    b1f4:	00090593          	mv	a1,s2
    b1f8:	08d12023          	sw	a3,128(sp)
    b1fc:	0b412683          	lw	a3,180(sp)
    b200:	000c8513          	mv	a0,s9
    b204:	09312823          	sw	s3,144(sp)
    b208:	08d12223          	sw	a3,132(sp)
    b20c:	0b812683          	lw	a3,184(sp)
    b210:	08912a23          	sw	s1,148(sp)
    b214:	09612c23          	sw	s6,152(sp)
    b218:	08d12423          	sw	a3,136(sp)
    b21c:	0bc12683          	lw	a3,188(sp)
    b220:	09412e23          	sw	s4,156(sp)
    b224:	08d12623          	sw	a3,140(sp)
    b228:	32c070ef          	jal	ra,12554 <__subtf3>
    b22c:	02412783          	lw	a5,36(sp)
    b230:	0a012b03          	lw	s6,160(sp)
    b234:	0a412983          	lw	s3,164(sp)
    b238:	008786b3          	add	a3,a5,s0
    b23c:	0006c683          	lbu	a3,0(a3)
    b240:	0a812f83          	lw	t6,168(sp)
    b244:	0ac12603          	lw	a2,172(sp)
    b248:	05712a23          	sw	s7,84(sp)
    b24c:	00db8023          	sb	a3,0(s7)
    b250:	05812223          	sw	s8,68(sp)
    b254:	fff00793          	li	a5,-1
    b258:	001b8b93          	addi	s7,s7,1
    b25c:	000b0d13          	mv	s10,s6
    b260:	00098d93          	mv	s11,s3
    b264:	000f8493          	mv	s1,t6
    b268:	00060a13          	mv	s4,a2
    b26c:	eefc10e3          	bne	s8,a5,b14c <_svfprintf_r+0x2328>
    b270:	07012883          	lw	a7,112(sp)
    b274:	000b0393          	mv	t2,s6
    b278:	00098293          	mv	t0,s3
    b27c:	3ffe0937          	lui	s2,0x3ffe0
    b280:	000c8593          	mv	a1,s9
    b284:	000a8513          	mv	a0,s5
    b288:	03112023          	sw	a7,32(sp)
    b28c:	00812e23          	sw	s0,28(sp)
    b290:	05c12a03          	lw	s4,92(sp)
    b294:	06412483          	lw	s1,100(sp)
    b298:	06012403          	lw	s0,96(sp)
    b29c:	0a712823          	sw	t2,176(sp)
    b2a0:	06712223          	sw	t2,100(sp)
    b2a4:	0a512a23          	sw	t0,180(sp)
    b2a8:	06512023          	sw	t0,96(sp)
    b2ac:	0bf12c23          	sw	t6,184(sp)
    b2b0:	05f12e23          	sw	t6,92(sp)
    b2b4:	0ac12e23          	sw	a2,188(sp)
    b2b8:	04c12023          	sw	a2,64(sp)
    b2bc:	0a012023          	sw	zero,160(sp)
    b2c0:	0a012223          	sw	zero,164(sp)
    b2c4:	0a012423          	sw	zero,168(sp)
    b2c8:	0b212623          	sw	s2,172(sp)
    b2cc:	020060ef          	jal	ra,112ec <__getf2>
    b2d0:	06c12d83          	lw	s11,108(sp)
    b2d4:	07412d03          	lw	s10,116(sp)
    b2d8:	07812c03          	lw	s8,120(sp)
    b2dc:	07c12b03          	lw	s6,124(sp)
    b2e0:	06812983          	lw	s3,104(sp)
    b2e4:	02012883          	lw	a7,32(sp)
    b2e8:	12a04263          	bgtz	a0,b40c <_svfprintf_r+0x25e8>
    b2ec:	06412383          	lw	t2,100(sp)
    b2f0:	06012283          	lw	t0,96(sp)
    b2f4:	05c12f83          	lw	t6,92(sp)
    b2f8:	04012603          	lw	a2,64(sp)
    b2fc:	000c8593          	mv	a1,s9
    b300:	000a8513          	mv	a0,s5
    b304:	0a712823          	sw	t2,176(sp)
    b308:	0a512a23          	sw	t0,180(sp)
    b30c:	0bf12c23          	sw	t6,184(sp)
    b310:	0ac12e23          	sw	a2,188(sp)
    b314:	0a012023          	sw	zero,160(sp)
    b318:	0a012223          	sw	zero,164(sp)
    b31c:	0a012423          	sw	zero,168(sp)
    b320:	0b212623          	sw	s2,172(sp)
    b324:	6fd050ef          	jal	ra,11220 <__eqtf2>
    b328:	02012883          	lw	a7,32(sp)
    b32c:	00051863          	bnez	a0,b33c <_svfprintf_r+0x2518>
    b330:	01c12783          	lw	a5,28(sp)
    b334:	0017fc93          	andi	s9,a5,1
    b338:	0c0c9a63          	bnez	s9,b40c <_svfprintf_r+0x25e8>
    b33c:	04412783          	lw	a5,68(sp)
    b340:	03000693          	li	a3,48
    b344:	00178713          	addi	a4,a5,1 # 40030001 <//.+0x4001a089>
    b348:	00eb8733          	add	a4,s7,a4
    b34c:	0007c863          	bltz	a5,b35c <_svfprintf_r+0x2538>
    b350:	001b8b93          	addi	s7,s7,1
    b354:	fedb8fa3          	sb	a3,-1(s7)
    b358:	feeb9ce3          	bne	s7,a4,b350 <_svfprintf_r+0x252c>
    b35c:	416b87b3          	sub	a5,s7,s6
    b360:	02f12023          	sw	a5,32(sp)
    b364:	824fe06f          	j	9388 <_svfprintf_r+0x564>
    b368:	00012823          	sw	zero,16(sp)
    b36c:	00078a13          	mv	s4,a5
    b370:	800007b7          	lui	a5,0x80000
    b374:	0177cbb3          	xor	s7,a5,s7
    b378:	02d00793          	li	a5,45
    b37c:	04f12c23          	sw	a5,88(sp)
    b380:	c75ff06f          	j	aff4 <_svfprintf_r+0x21d0>
    b384:	000156b7          	lui	a3,0x15
    b388:	a3c68e93          	addi	t4,a3,-1476 # 14a3c <blanks.4470>
    b38c:	b34fe06f          	j	96c0 <_svfprintf_r+0x89c>
    b390:	001d8913          	addi	s2,s11,1
    b394:	0b010a93          	addi	s5,sp,176
    b398:	0dc10813          	addi	a6,sp,220
    b39c:	0d010793          	addi	a5,sp,208
    b3a0:	0cc10713          	addi	a4,sp,204
    b3a4:	00090693          	mv	a3,s2
    b3a8:	00200613          	li	a2,2
    b3ac:	000a8593          	mv	a1,s5
    b3b0:	000d0513          	mv	a0,s10
    b3b4:	0bc12823          	sw	t3,176(sp)
    b3b8:	03c12223          	sw	t3,36(sp)
    b3bc:	0bd12a23          	sw	t4,180(sp)
    b3c0:	03d12023          	sw	t4,32(sp)
    b3c4:	0be12c23          	sw	t5,184(sp)
    b3c8:	01e12e23          	sw	t5,28(sp)
    b3cc:	0b712e23          	sw	s7,188(sp)
    b3d0:	c50fa0ef          	jal	ra,5820 <_ldtoa_r>
    b3d4:	01c12f03          	lw	t5,28(sp)
    b3d8:	02012e83          	lw	t4,32(sp)
    b3dc:	02412e03          	lw	t3,36(sp)
    b3e0:	04012883          	lw	a7,64(sp)
    b3e4:	00050b13          	mv	s6,a0
    b3e8:	012b0933          	add	s2,s6,s2
    b3ec:	0a010c93          	addi	s9,sp,160
    b3f0:	9f9ff06f          	j	ade8 <_svfprintf_r+0x1fc4>
    b3f4:	000a0b93          	mv	s7,s4
    b3f8:	e5cfe06f          	j	9a54 <_svfprintf_r+0xc30>
    b3fc:	03000793          	li	a5,48
    b400:	0cf10423          	sb	a5,200(sp)
    b404:	07800793          	li	a5,120
    b408:	badff06f          	j	afb4 <_svfprintf_r+0x2190>
    b40c:	05412783          	lw	a5,84(sp)
    b410:	000b8713          	mv	a4,s7
    b414:	0cf12e23          	sw	a5,220(sp)
    b418:	02412783          	lw	a5,36(sp)
    b41c:	fffbc683          	lbu	a3,-1(s7)
    b420:	00f7c603          	lbu	a2,15(a5) # 8000000f <//.+0x7ffea097>
    b424:	02c69063          	bne	a3,a2,b444 <_svfprintf_r+0x2620>
    b428:	03000593          	li	a1,48
    b42c:	feb70fa3          	sb	a1,-1(a4)
    b430:	0dc12703          	lw	a4,220(sp)
    b434:	fff70793          	addi	a5,a4,-1
    b438:	0cf12e23          	sw	a5,220(sp)
    b43c:	fff74683          	lbu	a3,-1(a4)
    b440:	fed606e3          	beq	a2,a3,b42c <_svfprintf_r+0x2608>
    b444:	00168613          	addi	a2,a3,1
    b448:	03900593          	li	a1,57
    b44c:	0ff67613          	andi	a2,a2,255
    b450:	00b68663          	beq	a3,a1,b45c <_svfprintf_r+0x2638>
    b454:	fec70fa3          	sb	a2,-1(a4)
    b458:	f05ff06f          	j	b35c <_svfprintf_r+0x2538>
    b45c:	02412783          	lw	a5,36(sp)
    b460:	00a7c603          	lbu	a2,10(a5)
    b464:	fec70fa3          	sb	a2,-1(a4)
    b468:	ef5ff06f          	j	b35c <_svfprintf_r+0x2538>
    b46c:	001d8593          	addi	a1,s11,1
    b470:	000d0513          	mv	a0,s10
    b474:	01112823          	sw	a7,16(sp)
    b478:	8adfb0ef          	jal	ra,6d24 <_malloc_r>
    b47c:	01012883          	lw	a7,16(sp)
    b480:	00050b13          	mv	s6,a0
    b484:	30050463          	beqz	a0,b78c <_svfprintf_r+0x2968>
    b488:	00a12823          	sw	a0,16(sp)
    b48c:	b45ff06f          	j	afd0 <_svfprintf_r+0x21ac>
    b490:	00812683          	lw	a3,8(sp)
    b494:	009787b3          	add	a5,a5,s1
    b498:	00170713          	addi	a4,a4,1
    b49c:	00d8a023          	sw	a3,0(a7)
    b4a0:	0098a223          	sw	s1,4(a7)
    b4a4:	0ef12623          	sw	a5,236(sp)
    b4a8:	0ee12423          	sw	a4,232(sp)
    b4ac:	00700693          	li	a3,7
    b4b0:	aee6d663          	bge	a3,a4,a79c <_svfprintf_r+0x1978>
    b4b4:	0e410613          	addi	a2,sp,228
    b4b8:	000c0593          	mv	a1,s8
    b4bc:	000d0513          	mv	a0,s10
    b4c0:	3d9020ef          	jal	ra,e098 <__ssprint_r>
    b4c4:	00050463          	beqz	a0,b4cc <_svfprintf_r+0x26a8>
    b4c8:	939fe06f          	j	9e00 <_svfprintf_r+0xfdc>
    b4cc:	0ec12783          	lw	a5,236(sp)
    b4d0:	0e812703          	lw	a4,232(sp)
    b4d4:	10c10893          	addi	a7,sp,268
    b4d8:	ac8ff06f          	j	a7a0 <_svfprintf_r+0x197c>
    b4dc:	01bb0933          	add	s2,s6,s11
    b4e0:	0a010c93          	addi	s9,sp,160
    b4e4:	905ff06f          	j	ade8 <_svfprintf_r+0x1fc4>
    b4e8:	000d8463          	beqz	s11,b4f0 <_svfprintf_r+0x26cc>
    b4ec:	dd1fd06f          	j	92bc <_svfprintf_r+0x498>
    b4f0:	00100d93          	li	s11,1
    b4f4:	dc9fd06f          	j	92bc <_svfprintf_r+0x498>
    b4f8:	fff00793          	li	a5,-1
    b4fc:	00f12623          	sw	a5,12(sp)
    b500:	c41fd06f          	j	9140 <_svfprintf_r+0x31c>
    b504:	0d610713          	addi	a4,sp,214
    b508:	00069863          	bnez	a3,b518 <_svfprintf_r+0x26f4>
    b50c:	03000713          	li	a4,48
    b510:	0ce10b23          	sb	a4,214(sp)
    b514:	0d710713          	addi	a4,sp,215
    b518:	1b010693          	addi	a3,sp,432
    b51c:	03078793          	addi	a5,a5,48
    b520:	40d706b3          	sub	a3,a4,a3
    b524:	00f70023          	sb	a5,0(a4)
    b528:	0dd68793          	addi	a5,a3,221
    b52c:	02f12c23          	sw	a5,56(sp)
    b530:	f59fd06f          	j	9488 <_svfprintf_r+0x664>
    b534:	02c12783          	lw	a5,44(sp)
    b538:	06600493          	li	s1,102
    b53c:	00f70cb3          	add	s9,a4,a5
    b540:	01bc8cb3          	add	s9,s9,s11
    b544:	a25ff06f          	j	af68 <_svfprintf_r+0x2144>
    b548:	0b010a93          	addi	s5,sp,176
    b54c:	000a8513          	mv	a0,s5
    b550:	05112a23          	sw	a7,84(sp)
    b554:	0bc12823          	sw	t3,176(sp)
    b558:	0bd12a23          	sw	t4,180(sp)
    b55c:	0be12c23          	sw	t5,184(sp)
    b560:	0b712e23          	sw	s7,188(sp)
    b564:	159080ef          	jal	ra,13ebc <__trunctfdf2>
    b568:	0cc10613          	addi	a2,sp,204
    b56c:	a70fd0ef          	jal	ra,87dc <frexp>
    b570:	00058613          	mv	a2,a1
    b574:	00050593          	mv	a1,a0
    b578:	000a8513          	mv	a0,s5
    b57c:	748080ef          	jal	ra,13cc4 <__extenddftf2>
    b580:	0b012783          	lw	a5,176(sp)
    b584:	0a010c93          	addi	s9,sp,160
    b588:	09010913          	addi	s2,sp,144
    b58c:	08f12823          	sw	a5,144(sp)
    b590:	0b412783          	lw	a5,180(sp)
    b594:	08010613          	addi	a2,sp,128
    b598:	00090593          	mv	a1,s2
    b59c:	08f12a23          	sw	a5,148(sp)
    b5a0:	0b812783          	lw	a5,184(sp)
    b5a4:	000c8513          	mv	a0,s9
    b5a8:	04c12023          	sw	a2,64(sp)
    b5ac:	08f12c23          	sw	a5,152(sp)
    b5b0:	0bc12783          	lw	a5,188(sp)
    b5b4:	08012023          	sw	zero,128(sp)
    b5b8:	08012223          	sw	zero,132(sp)
    b5bc:	08f12e23          	sw	a5,156(sp)
    b5c0:	3ffc07b7          	lui	a5,0x3ffc0
    b5c4:	08f12623          	sw	a5,140(sp)
    b5c8:	08012423          	sw	zero,136(sp)
    b5cc:	7a9050ef          	jal	ra,11574 <__multf3>
    b5d0:	0a012683          	lw	a3,160(sp)
    b5d4:	0a412e03          	lw	t3,164(sp)
    b5d8:	0a812e83          	lw	t4,168(sp)
    b5dc:	0ac12f03          	lw	t5,172(sp)
    b5e0:	000c8593          	mv	a1,s9
    b5e4:	000a8513          	mv	a0,s5
    b5e8:	0ad12823          	sw	a3,176(sp)
    b5ec:	04d12223          	sw	a3,68(sp)
    b5f0:	0bc12a23          	sw	t3,180(sp)
    b5f4:	03c12223          	sw	t3,36(sp)
    b5f8:	0bd12c23          	sw	t4,184(sp)
    b5fc:	03d12023          	sw	t4,32(sp)
    b600:	0be12e23          	sw	t5,188(sp)
    b604:	01e12e23          	sw	t5,28(sp)
    b608:	0a012023          	sw	zero,160(sp)
    b60c:	0a012223          	sw	zero,164(sp)
    b610:	0a012423          	sw	zero,168(sp)
    b614:	0a012623          	sw	zero,172(sp)
    b618:	409050ef          	jal	ra,11220 <__eqtf2>
    b61c:	01c12f03          	lw	t5,28(sp)
    b620:	02012e83          	lw	t4,32(sp)
    b624:	02412e03          	lw	t3,36(sp)
    b628:	04412683          	lw	a3,68(sp)
    b62c:	05412883          	lw	a7,84(sp)
    b630:	00051663          	bnez	a0,b63c <_svfprintf_r+0x2818>
    b634:	00100793          	li	a5,1
    b638:	0cf12623          	sw	a5,204(sp)
    b63c:	000147b7          	lui	a5,0x14
    b640:	2b478793          	addi	a5,a5,692 # 142b4 <__clzsi2+0x9c>
    b644:	02f12223          	sw	a5,36(sp)
    b648:	ac1ff06f          	j	b108 <_svfprintf_r+0x22e4>
    b64c:	06700493          	li	s1,103
    b650:	03c12603          	lw	a2,60(sp)
    b654:	0ff00713          	li	a4,255
    b658:	00064783          	lbu	a5,0(a2)
    b65c:	12e78263          	beq	a5,a4,b780 <_svfprintf_r+0x295c>
    b660:	01c12683          	lw	a3,28(sp)
    b664:	00000513          	li	a0,0
    b668:	00000593          	li	a1,0
    b66c:	00d7de63          	bge	a5,a3,b688 <_svfprintf_r+0x2864>
    b670:	40f686b3          	sub	a3,a3,a5
    b674:	00164783          	lbu	a5,1(a2)
    b678:	04078463          	beqz	a5,b6c0 <_svfprintf_r+0x289c>
    b67c:	00158593          	addi	a1,a1,1
    b680:	00160613          	addi	a2,a2,1
    b684:	fee794e3          	bne	a5,a4,b66c <_svfprintf_r+0x2848>
    b688:	02c12e23          	sw	a2,60(sp)
    b68c:	00d12e23          	sw	a3,28(sp)
    b690:	02b12223          	sw	a1,36(sp)
    b694:	02a12423          	sw	a0,40(sp)
    b698:	02812703          	lw	a4,40(sp)
    b69c:	02412783          	lw	a5,36(sp)
    b6a0:	00e787b3          	add	a5,a5,a4
    b6a4:	04812703          	lw	a4,72(sp)
    b6a8:	02e787b3          	mul	a5,a5,a4
    b6ac:	01978cb3          	add	s9,a5,s9
    b6b0:	fffcca93          	not	s5,s9
    b6b4:	41fada93          	srai	s5,s5,0x1f
    b6b8:	015cfab3          	and	s5,s9,s5
    b6bc:	e11fd06f          	j	94cc <_svfprintf_r+0x6a8>
    b6c0:	00064783          	lbu	a5,0(a2)
    b6c4:	00150513          	addi	a0,a0,1
    b6c8:	fbdff06f          	j	b684 <_svfprintf_r+0x2860>
    b6cc:	40fc8cb3          	sub	s9,s9,a5
    b6d0:	001c8c93          	addi	s9,s9,1
    b6d4:	fffcca93          	not	s5,s9
    b6d8:	41fada93          	srai	s5,s5,0x1f
    b6dc:	015cfab3          	and	s5,s9,s5
    b6e0:	e40ff06f          	j	ad20 <_svfprintf_r+0x1efc>
    b6e4:	05012783          	lw	a5,80(sp)
    b6e8:	0017f793          	andi	a5,a5,1
    b6ec:	00079463          	bnez	a5,b6f4 <_svfprintf_r+0x28d0>
    b6f0:	db9fd06f          	j	94a8 <_svfprintf_r+0x684>
    b6f4:	dadfd06f          	j	94a0 <_svfprintf_r+0x67c>
    b6f8:	00079a63          	bnez	a5,b70c <_svfprintf_r+0x28e8>
    b6fc:	00100a93          	li	s5,1
    b700:	06600493          	li	s1,102
    b704:	00100c93          	li	s9,1
    b708:	e18ff06f          	j	ad20 <_svfprintf_r+0x1efc>
    b70c:	02c12783          	lw	a5,44(sp)
    b710:	06600493          	li	s1,102
    b714:	00178c93          	addi	s9,a5,1
    b718:	01bc8cb3          	add	s9,s9,s11
    b71c:	fffcca93          	not	s5,s9
    b720:	41fada93          	srai	s5,s5,0x1f
    b724:	015cfab3          	and	s5,s9,s5
    b728:	df8ff06f          	j	ad20 <_svfprintf_r+0x1efc>
    b72c:	00088693          	mv	a3,a7
    b730:	adcff06f          	j	aa0c <_svfprintf_r+0x1be8>
    b734:	01412783          	lw	a5,20(sp)
    b738:	0007ad83          	lw	s11,0(a5)
    b73c:	00478793          	addi	a5,a5,4
    b740:	000dd463          	bgez	s11,b748 <_svfprintf_r+0x2924>
    b744:	fff00d93          	li	s11,-1
    b748:	00144483          	lbu	s1,1(s0)
    b74c:	00f12a23          	sw	a5,20(sp)
    b750:	00070413          	mv	s0,a4
    b754:	835fd06f          	j	8f88 <_svfprintf_r+0x164>
    b758:	000d8913          	mv	s2,s11
    b75c:	c8dff06f          	j	b3e8 <_svfprintf_r+0x25c4>
    b760:	00200793          	li	a5,2
    b764:	02f12c23          	sw	a5,56(sp)
    b768:	d21fd06f          	j	9488 <_svfprintf_r+0x664>
    b76c:	00c00793          	li	a5,12
    b770:	00fd2023          	sw	a5,0(s10)
    b774:	fff00793          	li	a5,-1
    b778:	00f12623          	sw	a5,12(sp)
    b77c:	9c5fd06f          	j	9140 <_svfprintf_r+0x31c>
    b780:	02012423          	sw	zero,40(sp)
    b784:	02012223          	sw	zero,36(sp)
    b788:	f11ff06f          	j	b698 <_svfprintf_r+0x2874>
    b78c:	00cc5783          	lhu	a5,12(s8)
    b790:	0407e713          	ori	a4,a5,64
    b794:	00070793          	mv	a5,a4
    b798:	00ec1623          	sh	a4,12(s8)
    b79c:	999fd06f          	j	9134 <_svfprintf_r+0x310>

0000b7a0 <__sprint_r.part.0>:
    b7a0:	0645a783          	lw	a5,100(a1)
    b7a4:	fd010113          	addi	sp,sp,-48
    b7a8:	01612823          	sw	s6,16(sp)
    b7ac:	02112623          	sw	ra,44(sp)
    b7b0:	02812423          	sw	s0,40(sp)
    b7b4:	02912223          	sw	s1,36(sp)
    b7b8:	03212023          	sw	s2,32(sp)
    b7bc:	01312e23          	sw	s3,28(sp)
    b7c0:	01412c23          	sw	s4,24(sp)
    b7c4:	01512a23          	sw	s5,20(sp)
    b7c8:	01712623          	sw	s7,12(sp)
    b7cc:	01812423          	sw	s8,8(sp)
    b7d0:	01279713          	slli	a4,a5,0x12
    b7d4:	00060b13          	mv	s6,a2
    b7d8:	0a075863          	bgez	a4,b888 <__sprint_r.part.0+0xe8>
    b7dc:	00862783          	lw	a5,8(a2)
    b7e0:	00062b83          	lw	s7,0(a2)
    b7e4:	00058913          	mv	s2,a1
    b7e8:	00050993          	mv	s3,a0
    b7ec:	fff00a93          	li	s5,-1
    b7f0:	08078863          	beqz	a5,b880 <__sprint_r.part.0+0xe0>
    b7f4:	004bac03          	lw	s8,4(s7)
    b7f8:	000ba403          	lw	s0,0(s7)
    b7fc:	002c5a13          	srli	s4,s8,0x2
    b800:	060a0663          	beqz	s4,b86c <__sprint_r.part.0+0xcc>
    b804:	00000493          	li	s1,0
    b808:	00c0006f          	j	b814 <__sprint_r.part.0+0x74>
    b80c:	00440413          	addi	s0,s0,4
    b810:	049a0c63          	beq	s4,s1,b868 <__sprint_r.part.0+0xc8>
    b814:	00042583          	lw	a1,0(s0)
    b818:	00090613          	mv	a2,s2
    b81c:	00098513          	mv	a0,s3
    b820:	0b1010ef          	jal	ra,d0d0 <_fputwc_r>
    b824:	00148493          	addi	s1,s1,1
    b828:	ff5512e3          	bne	a0,s5,b80c <__sprint_r.part.0+0x6c>
    b82c:	fff00513          	li	a0,-1
    b830:	02c12083          	lw	ra,44(sp)
    b834:	02812403          	lw	s0,40(sp)
    b838:	000b2423          	sw	zero,8(s6)
    b83c:	000b2223          	sw	zero,4(s6)
    b840:	02412483          	lw	s1,36(sp)
    b844:	02012903          	lw	s2,32(sp)
    b848:	01c12983          	lw	s3,28(sp)
    b84c:	01812a03          	lw	s4,24(sp)
    b850:	01412a83          	lw	s5,20(sp)
    b854:	01012b03          	lw	s6,16(sp)
    b858:	00c12b83          	lw	s7,12(sp)
    b85c:	00812c03          	lw	s8,8(sp)
    b860:	03010113          	addi	sp,sp,48
    b864:	00008067          	ret
    b868:	008b2783          	lw	a5,8(s6)
    b86c:	ffcc7c13          	andi	s8,s8,-4
    b870:	418787b3          	sub	a5,a5,s8
    b874:	00fb2423          	sw	a5,8(s6)
    b878:	008b8b93          	addi	s7,s7,8
    b87c:	f6079ce3          	bnez	a5,b7f4 <__sprint_r.part.0+0x54>
    b880:	00000513          	li	a0,0
    b884:	fadff06f          	j	b830 <__sprint_r.part.0+0x90>
    b888:	155010ef          	jal	ra,d1dc <__sfvwrite_r>
    b88c:	fa5ff06f          	j	b830 <__sprint_r.part.0+0x90>

0000b890 <__sprint_r>:
    b890:	00862703          	lw	a4,8(a2)
    b894:	00070463          	beqz	a4,b89c <__sprint_r+0xc>
    b898:	f09ff06f          	j	b7a0 <__sprint_r.part.0>
    b89c:	00062223          	sw	zero,4(a2)
    b8a0:	00000513          	li	a0,0
    b8a4:	00008067          	ret

0000b8a8 <_vfiprintf_r>:
    b8a8:	ed010113          	addi	sp,sp,-304
    b8ac:	11312e23          	sw	s3,284(sp)
    b8b0:	11412c23          	sw	s4,280(sp)
    b8b4:	11712623          	sw	s7,268(sp)
    b8b8:	12112623          	sw	ra,300(sp)
    b8bc:	12812423          	sw	s0,296(sp)
    b8c0:	12912223          	sw	s1,292(sp)
    b8c4:	13212023          	sw	s2,288(sp)
    b8c8:	11512a23          	sw	s5,276(sp)
    b8cc:	11612823          	sw	s6,272(sp)
    b8d0:	11812423          	sw	s8,264(sp)
    b8d4:	11912223          	sw	s9,260(sp)
    b8d8:	11a12023          	sw	s10,256(sp)
    b8dc:	0fb12e23          	sw	s11,252(sp)
    b8e0:	00d12823          	sw	a3,16(sp)
    b8e4:	00050a13          	mv	s4,a0
    b8e8:	00058993          	mv	s3,a1
    b8ec:	00060b93          	mv	s7,a2
    b8f0:	00050663          	beqz	a0,b8fc <_vfiprintf_r+0x54>
    b8f4:	03852783          	lw	a5,56(a0)
    b8f8:	62078263          	beqz	a5,bf1c <_vfiprintf_r+0x674>
    b8fc:	00c99703          	lh	a4,12(s3)
    b900:	01071793          	slli	a5,a4,0x10
    b904:	01271693          	slli	a3,a4,0x12
    b908:	0107d793          	srli	a5,a5,0x10
    b90c:	0206c663          	bltz	a3,b938 <_vfiprintf_r+0x90>
    b910:	0649a683          	lw	a3,100(s3)
    b914:	000027b7          	lui	a5,0x2
    b918:	00f767b3          	or	a5,a4,a5
    b91c:	ffffe737          	lui	a4,0xffffe
    b920:	fff70713          	addi	a4,a4,-1 # ffffdfff <//.+0xfffe8087>
    b924:	00e6f733          	and	a4,a3,a4
    b928:	00f99623          	sh	a5,12(s3)
    b92c:	01079793          	slli	a5,a5,0x10
    b930:	06e9a223          	sw	a4,100(s3)
    b934:	0107d793          	srli	a5,a5,0x10
    b938:	0087f713          	andi	a4,a5,8
    b93c:	40070063          	beqz	a4,bd3c <_vfiprintf_r+0x494>
    b940:	0109a703          	lw	a4,16(s3)
    b944:	3e070c63          	beqz	a4,bd3c <_vfiprintf_r+0x494>
    b948:	01a7f793          	andi	a5,a5,26
    b94c:	00a00713          	li	a4,10
    b950:	40e78663          	beq	a5,a4,bd5c <_vfiprintf_r+0x4b4>
    b954:	000157b7          	lui	a5,0x15
    b958:	a5c78793          	addi	a5,a5,-1444 # 14a5c <zeroes.4471+0x10>
    b95c:	00015b37          	lui	s6,0x15
    b960:	04c10493          	addi	s1,sp,76
    b964:	00f12a23          	sw	a5,20(sp)
    b968:	00015937          	lui	s2,0x15
    b96c:	bc8b0793          	addi	a5,s6,-1080 # 14bc8 <blanks.4461>
    b970:	000b8c13          	mv	s8,s7
    b974:	04912023          	sw	s1,64(sp)
    b978:	04012423          	sw	zero,72(sp)
    b97c:	04012223          	sw	zero,68(sp)
    b980:	00012c23          	sw	zero,24(sp)
    b984:	00012e23          	sw	zero,28(sp)
    b988:	02012223          	sw	zero,36(sp)
    b98c:	02012023          	sw	zero,32(sp)
    b990:	00012623          	sw	zero,12(sp)
    b994:	00f12423          	sw	a5,8(sp)
    b998:	bd890913          	addi	s2,s2,-1064 # 14bd8 <zeroes.4462>
    b99c:	00048b93          	mv	s7,s1
    b9a0:	000c4783          	lbu	a5,0(s8)
    b9a4:	26078863          	beqz	a5,bc14 <_vfiprintf_r+0x36c>
    b9a8:	000c0413          	mv	s0,s8
    b9ac:	02500713          	li	a4,37
    b9b0:	46e78663          	beq	a5,a4,be1c <_vfiprintf_r+0x574>
    b9b4:	00144783          	lbu	a5,1(s0)
    b9b8:	00140413          	addi	s0,s0,1
    b9bc:	fe079ae3          	bnez	a5,b9b0 <_vfiprintf_r+0x108>
    b9c0:	41840cb3          	sub	s9,s0,s8
    b9c4:	25840863          	beq	s0,s8,bc14 <_vfiprintf_r+0x36c>
    b9c8:	04812703          	lw	a4,72(sp)
    b9cc:	04412783          	lw	a5,68(sp)
    b9d0:	018ba023          	sw	s8,0(s7)
    b9d4:	00ec8733          	add	a4,s9,a4
    b9d8:	00178793          	addi	a5,a5,1
    b9dc:	019ba223          	sw	s9,4(s7)
    b9e0:	04e12423          	sw	a4,72(sp)
    b9e4:	04f12223          	sw	a5,68(sp)
    b9e8:	00700693          	li	a3,7
    b9ec:	008b8b93          	addi	s7,s7,8
    b9f0:	02f6d063          	bge	a3,a5,ba10 <_vfiprintf_r+0x168>
    b9f4:	3e070ce3          	beqz	a4,c5ec <_vfiprintf_r+0xd44>
    b9f8:	04010613          	addi	a2,sp,64
    b9fc:	00098593          	mv	a1,s3
    ba00:	000a0513          	mv	a0,s4
    ba04:	d9dff0ef          	jal	ra,b7a0 <__sprint_r.part.0>
    ba08:	20051a63          	bnez	a0,bc1c <_vfiprintf_r+0x374>
    ba0c:	00048b93          	mv	s7,s1
    ba10:	00c12703          	lw	a4,12(sp)
    ba14:	00044783          	lbu	a5,0(s0)
    ba18:	01970733          	add	a4,a4,s9
    ba1c:	00e12623          	sw	a4,12(sp)
    ba20:	1e078a63          	beqz	a5,bc14 <_vfiprintf_r+0x36c>
    ba24:	00144703          	lbu	a4,1(s0)
    ba28:	00140c13          	addi	s8,s0,1
    ba2c:	02010da3          	sb	zero,59(sp)
    ba30:	fff00a93          	li	s5,-1
    ba34:	00012223          	sw	zero,4(sp)
    ba38:	00000b13          	li	s6,0
    ba3c:	05a00c93          	li	s9,90
    ba40:	00900d13          	li	s10,9
    ba44:	02a00613          	li	a2,42
    ba48:	001c0c13          	addi	s8,s8,1
    ba4c:	fe070793          	addi	a5,a4,-32
    ba50:	04fce863          	bltu	s9,a5,baa0 <_vfiprintf_r+0x1f8>
    ba54:	01412683          	lw	a3,20(sp)
    ba58:	00279793          	slli	a5,a5,0x2
    ba5c:	00d787b3          	add	a5,a5,a3
    ba60:	0007a783          	lw	a5,0(a5)
    ba64:	00078067          	jr	a5
    ba68:	00012223          	sw	zero,4(sp)
    ba6c:	fd070793          	addi	a5,a4,-48
    ba70:	00412583          	lw	a1,4(sp)
    ba74:	000c4703          	lbu	a4,0(s8)
    ba78:	001c0c13          	addi	s8,s8,1
    ba7c:	00259693          	slli	a3,a1,0x2
    ba80:	00b686b3          	add	a3,a3,a1
    ba84:	00169693          	slli	a3,a3,0x1
    ba88:	00d787b3          	add	a5,a5,a3
    ba8c:	00f12223          	sw	a5,4(sp)
    ba90:	fd070793          	addi	a5,a4,-48
    ba94:	fcfd7ee3          	bgeu	s10,a5,ba70 <_vfiprintf_r+0x1c8>
    ba98:	fe070793          	addi	a5,a4,-32
    ba9c:	fafcfce3          	bgeu	s9,a5,ba54 <_vfiprintf_r+0x1ac>
    baa0:	16070a63          	beqz	a4,bc14 <_vfiprintf_r+0x36c>
    baa4:	08e10623          	sb	a4,140(sp)
    baa8:	02010da3          	sb	zero,59(sp)
    baac:	00100c93          	li	s9,1
    bab0:	00100d13          	li	s10,1
    bab4:	08c10413          	addi	s0,sp,140
    bab8:	00000a93          	li	s5,0
    babc:	002b7f93          	andi	t6,s6,2
    bac0:	000f8463          	beqz	t6,bac8 <_vfiprintf_r+0x220>
    bac4:	002c8c93          	addi	s9,s9,2
    bac8:	04412703          	lw	a4,68(sp)
    bacc:	084b7f13          	andi	t5,s6,132
    bad0:	04812783          	lw	a5,72(sp)
    bad4:	00170693          	addi	a3,a4,1
    bad8:	00068613          	mv	a2,a3
    badc:	000f1863          	bnez	t5,baec <_vfiprintf_r+0x244>
    bae0:	00412583          	lw	a1,4(sp)
    bae4:	41958db3          	sub	s11,a1,s9
    bae8:	0db044e3          	bgtz	s11,c3b0 <_vfiprintf_r+0xb08>
    baec:	03b14583          	lbu	a1,59(sp)
    baf0:	008b8693          	addi	a3,s7,8
    baf4:	02058c63          	beqz	a1,bb2c <_vfiprintf_r+0x284>
    baf8:	03b10713          	addi	a4,sp,59
    bafc:	00178793          	addi	a5,a5,1
    bb00:	00eba023          	sw	a4,0(s7)
    bb04:	00100713          	li	a4,1
    bb08:	00eba223          	sw	a4,4(s7)
    bb0c:	04f12423          	sw	a5,72(sp)
    bb10:	04c12223          	sw	a2,68(sp)
    bb14:	00700713          	li	a4,7
    bb18:	00c74ae3          	blt	a4,a2,c32c <_vfiprintf_r+0xa84>
    bb1c:	00060713          	mv	a4,a2
    bb20:	00068b93          	mv	s7,a3
    bb24:	00160613          	addi	a2,a2,1
    bb28:	00868693          	addi	a3,a3,8
    bb2c:	040f8e63          	beqz	t6,bb88 <_vfiprintf_r+0x2e0>
    bb30:	03c10713          	addi	a4,sp,60
    bb34:	00278793          	addi	a5,a5,2
    bb38:	00eba023          	sw	a4,0(s7)
    bb3c:	00200713          	li	a4,2
    bb40:	00eba223          	sw	a4,4(s7)
    bb44:	04f12423          	sw	a5,72(sp)
    bb48:	04c12223          	sw	a2,68(sp)
    bb4c:	00700713          	li	a4,7
    bb50:	04c752e3          	bge	a4,a2,c394 <_vfiprintf_r+0xaec>
    bb54:	2e0786e3          	beqz	a5,c640 <_vfiprintf_r+0xd98>
    bb58:	04010613          	addi	a2,sp,64
    bb5c:	00098593          	mv	a1,s3
    bb60:	000a0513          	mv	a0,s4
    bb64:	03e12423          	sw	t5,40(sp)
    bb68:	c39ff0ef          	jal	ra,b7a0 <__sprint_r.part.0>
    bb6c:	0a051863          	bnez	a0,bc1c <_vfiprintf_r+0x374>
    bb70:	04412703          	lw	a4,68(sp)
    bb74:	04812783          	lw	a5,72(sp)
    bb78:	02812f03          	lw	t5,40(sp)
    bb7c:	05410693          	addi	a3,sp,84
    bb80:	00170613          	addi	a2,a4,1
    bb84:	00048b93          	mv	s7,s1
    bb88:	08000593          	li	a1,128
    bb8c:	5ebf0063          	beq	t5,a1,c16c <_vfiprintf_r+0x8c4>
    bb90:	41aa8ab3          	sub	s5,s5,s10
    bb94:	6b504c63          	bgtz	s5,c24c <_vfiprintf_r+0x9a4>
    bb98:	00fd07b3          	add	a5,s10,a5
    bb9c:	008ba023          	sw	s0,0(s7)
    bba0:	01aba223          	sw	s10,4(s7)
    bba4:	04f12423          	sw	a5,72(sp)
    bba8:	04c12223          	sw	a2,68(sp)
    bbac:	00700713          	li	a4,7
    bbb0:	02c75263          	bge	a4,a2,bbd4 <_vfiprintf_r+0x32c>
    bbb4:	100780e3          	beqz	a5,c4b4 <_vfiprintf_r+0xc0c>
    bbb8:	04010613          	addi	a2,sp,64
    bbbc:	00098593          	mv	a1,s3
    bbc0:	000a0513          	mv	a0,s4
    bbc4:	bddff0ef          	jal	ra,b7a0 <__sprint_r.part.0>
    bbc8:	04051a63          	bnez	a0,bc1c <_vfiprintf_r+0x374>
    bbcc:	04812783          	lw	a5,72(sp)
    bbd0:	00048693          	mv	a3,s1
    bbd4:	004b7313          	andi	t1,s6,4
    bbd8:	00030863          	beqz	t1,bbe8 <_vfiprintf_r+0x340>
    bbdc:	00412703          	lw	a4,4(sp)
    bbe0:	41970bb3          	sub	s7,a4,s9
    bbe4:	0f7046e3          	bgtz	s7,c4d0 <_vfiprintf_r+0xc28>
    bbe8:	00412403          	lw	s0,4(sp)
    bbec:	01945463          	bge	s0,s9,bbf4 <_vfiprintf_r+0x34c>
    bbf0:	000c8413          	mv	s0,s9
    bbf4:	00c12703          	lw	a4,12(sp)
    bbf8:	00870733          	add	a4,a4,s0
    bbfc:	00e12623          	sw	a4,12(sp)
    bc00:	70079263          	bnez	a5,c304 <_vfiprintf_r+0xa5c>
    bc04:	000c4783          	lbu	a5,0(s8)
    bc08:	04012223          	sw	zero,68(sp)
    bc0c:	00048b93          	mv	s7,s1
    bc10:	d8079ce3          	bnez	a5,b9a8 <_vfiprintf_r+0x100>
    bc14:	04812783          	lw	a5,72(sp)
    bc18:	66079ae3          	bnez	a5,ca8c <_vfiprintf_r+0x11e4>
    bc1c:	00c9d783          	lhu	a5,12(s3)
    bc20:	0407f793          	andi	a5,a5,64
    bc24:	6a0792e3          	bnez	a5,cac8 <_vfiprintf_r+0x1220>
    bc28:	12c12083          	lw	ra,300(sp)
    bc2c:	12812403          	lw	s0,296(sp)
    bc30:	00c12503          	lw	a0,12(sp)
    bc34:	12412483          	lw	s1,292(sp)
    bc38:	12012903          	lw	s2,288(sp)
    bc3c:	11c12983          	lw	s3,284(sp)
    bc40:	11812a03          	lw	s4,280(sp)
    bc44:	11412a83          	lw	s5,276(sp)
    bc48:	11012b03          	lw	s6,272(sp)
    bc4c:	10c12b83          	lw	s7,268(sp)
    bc50:	10812c03          	lw	s8,264(sp)
    bc54:	10412c83          	lw	s9,260(sp)
    bc58:	10012d03          	lw	s10,256(sp)
    bc5c:	0fc12d83          	lw	s11,252(sp)
    bc60:	13010113          	addi	sp,sp,304
    bc64:	00008067          	ret
    bc68:	000a0513          	mv	a0,s4
    bc6c:	e21fa0ef          	jal	ra,6a8c <_localeconv_r>
    bc70:	00452783          	lw	a5,4(a0)
    bc74:	00078513          	mv	a0,a5
    bc78:	02f12023          	sw	a5,32(sp)
    bc7c:	874fd0ef          	jal	ra,8cf0 <strlen>
    bc80:	00050793          	mv	a5,a0
    bc84:	000a0513          	mv	a0,s4
    bc88:	00078413          	mv	s0,a5
    bc8c:	02f12223          	sw	a5,36(sp)
    bc90:	dfdfa0ef          	jal	ra,6a8c <_localeconv_r>
    bc94:	00852783          	lw	a5,8(a0)
    bc98:	02a00613          	li	a2,42
    bc9c:	00f12e23          	sw	a5,28(sp)
    bca0:	2e0418e3          	bnez	s0,c790 <_vfiprintf_r+0xee8>
    bca4:	000c4703          	lbu	a4,0(s8)
    bca8:	da1ff06f          	j	ba48 <_vfiprintf_r+0x1a0>
    bcac:	000c4703          	lbu	a4,0(s8)
    bcb0:	020b6b13          	ori	s6,s6,32
    bcb4:	d95ff06f          	j	ba48 <_vfiprintf_r+0x1a0>
    bcb8:	010b6b13          	ori	s6,s6,16
    bcbc:	020b7793          	andi	a5,s6,32
    bcc0:	18078c63          	beqz	a5,be58 <_vfiprintf_r+0x5b0>
    bcc4:	01012783          	lw	a5,16(sp)
    bcc8:	00778793          	addi	a5,a5,7
    bccc:	ff87f793          	andi	a5,a5,-8
    bcd0:	0047a703          	lw	a4,4(a5)
    bcd4:	0007ad03          	lw	s10,0(a5)
    bcd8:	00878793          	addi	a5,a5,8
    bcdc:	00f12823          	sw	a5,16(sp)
    bce0:	00070c93          	mv	s9,a4
    bce4:	1a074263          	bltz	a4,be88 <_vfiprintf_r+0x5e0>
    bce8:	fff00713          	li	a4,-1
    bcec:	000b0d93          	mv	s11,s6
    bcf0:	00ea8863          	beq	s5,a4,bd00 <_vfiprintf_r+0x458>
    bcf4:	019d6733          	or	a4,s10,s9
    bcf8:	f7fb7d93          	andi	s11,s6,-129
    bcfc:	0e070ee3          	beqz	a4,c5f8 <_vfiprintf_r+0xd50>
    bd00:	160c9ae3          	bnez	s9,c674 <_vfiprintf_r+0xdcc>
    bd04:	00900713          	li	a4,9
    bd08:	17a766e3          	bltu	a4,s10,c674 <_vfiprintf_r+0xdcc>
    bd0c:	030d0793          	addi	a5,s10,48
    bd10:	0ef107a3          	sb	a5,239(sp)
    bd14:	000d8b13          	mv	s6,s11
    bd18:	00100d13          	li	s10,1
    bd1c:	0ef10413          	addi	s0,sp,239
    bd20:	000a8c93          	mv	s9,s5
    bd24:	01aad463          	bge	s5,s10,bd2c <_vfiprintf_r+0x484>
    bd28:	000d0c93          	mv	s9,s10
    bd2c:	03b14783          	lbu	a5,59(sp)
    bd30:	00f037b3          	snez	a5,a5
    bd34:	00fc8cb3          	add	s9,s9,a5
    bd38:	d85ff06f          	j	babc <_vfiprintf_r+0x214>
    bd3c:	00098593          	mv	a1,s3
    bd40:	000a0513          	mv	a0,s4
    bd44:	ba8f70ef          	jal	ra,30ec <__swsetup_r>
    bd48:	580510e3          	bnez	a0,cac8 <_vfiprintf_r+0x1220>
    bd4c:	00c9d783          	lhu	a5,12(s3)
    bd50:	00a00713          	li	a4,10
    bd54:	01a7f793          	andi	a5,a5,26
    bd58:	bee79ee3          	bne	a5,a4,b954 <_vfiprintf_r+0xac>
    bd5c:	00e99783          	lh	a5,14(s3)
    bd60:	be07cae3          	bltz	a5,b954 <_vfiprintf_r+0xac>
    bd64:	12812403          	lw	s0,296(sp)
    bd68:	01012683          	lw	a3,16(sp)
    bd6c:	12c12083          	lw	ra,300(sp)
    bd70:	12412483          	lw	s1,292(sp)
    bd74:	12012903          	lw	s2,288(sp)
    bd78:	11412a83          	lw	s5,276(sp)
    bd7c:	11012b03          	lw	s6,272(sp)
    bd80:	10812c03          	lw	s8,264(sp)
    bd84:	10412c83          	lw	s9,260(sp)
    bd88:	10012d03          	lw	s10,256(sp)
    bd8c:	0fc12d83          	lw	s11,252(sp)
    bd90:	000b8613          	mv	a2,s7
    bd94:	00098593          	mv	a1,s3
    bd98:	10c12b83          	lw	s7,268(sp)
    bd9c:	11c12983          	lw	s3,284(sp)
    bda0:	000a0513          	mv	a0,s4
    bda4:	11812a03          	lw	s4,280(sp)
    bda8:	13010113          	addi	sp,sp,304
    bdac:	5710006f          	j	cb1c <__sbprintf>
    bdb0:	010b6b13          	ori	s6,s6,16
    bdb4:	020b7793          	andi	a5,s6,32
    bdb8:	06078a63          	beqz	a5,be2c <_vfiprintf_r+0x584>
    bdbc:	01012783          	lw	a5,16(sp)
    bdc0:	00778793          	addi	a5,a5,7
    bdc4:	ff87f793          	andi	a5,a5,-8
    bdc8:	0007ad03          	lw	s10,0(a5)
    bdcc:	0047ac83          	lw	s9,4(a5)
    bdd0:	00878793          	addi	a5,a5,8
    bdd4:	00f12823          	sw	a5,16(sp)
    bdd8:	bffb7d93          	andi	s11,s6,-1025
    bddc:	00000713          	li	a4,0
    bde0:	02010da3          	sb	zero,59(sp)
    bde4:	fff00693          	li	a3,-1
    bde8:	0cda8463          	beq	s5,a3,beb0 <_vfiprintf_r+0x608>
    bdec:	019d66b3          	or	a3,s10,s9
    bdf0:	f7fdfb13          	andi	s6,s11,-129
    bdf4:	5a069a63          	bnez	a3,c3a8 <_vfiprintf_r+0xb00>
    bdf8:	300a9e63          	bnez	s5,c114 <_vfiprintf_r+0x86c>
    bdfc:	000712e3          	bnez	a4,c600 <_vfiprintf_r+0xd58>
    be00:	001dfd13          	andi	s10,s11,1
    be04:	0f010413          	addi	s0,sp,240
    be08:	f00d0ce3          	beqz	s10,bd20 <_vfiprintf_r+0x478>
    be0c:	03000793          	li	a5,48
    be10:	0ef107a3          	sb	a5,239(sp)
    be14:	0ef10413          	addi	s0,sp,239
    be18:	f09ff06f          	j	bd20 <_vfiprintf_r+0x478>
    be1c:	41840cb3          	sub	s9,s0,s8
    be20:	bb8414e3          	bne	s0,s8,b9c8 <_vfiprintf_r+0x120>
    be24:	00044783          	lbu	a5,0(s0)
    be28:	bf9ff06f          	j	ba20 <_vfiprintf_r+0x178>
    be2c:	01012683          	lw	a3,16(sp)
    be30:	010b7793          	andi	a5,s6,16
    be34:	00468713          	addi	a4,a3,4
    be38:	180794e3          	bnez	a5,c7c0 <_vfiprintf_r+0xf18>
    be3c:	040b7793          	andi	a5,s6,64
    be40:	380780e3          	beqz	a5,c9c0 <_vfiprintf_r+0x1118>
    be44:	01012783          	lw	a5,16(sp)
    be48:	00000c93          	li	s9,0
    be4c:	00e12823          	sw	a4,16(sp)
    be50:	0007dd03          	lhu	s10,0(a5)
    be54:	f85ff06f          	j	bdd8 <_vfiprintf_r+0x530>
    be58:	01012683          	lw	a3,16(sp)
    be5c:	010b7793          	andi	a5,s6,16
    be60:	00468713          	addi	a4,a3,4
    be64:	10079ce3          	bnez	a5,c77c <_vfiprintf_r+0xed4>
    be68:	040b7793          	andi	a5,s6,64
    be6c:	30078ae3          	beqz	a5,c980 <_vfiprintf_r+0x10d8>
    be70:	01012783          	lw	a5,16(sp)
    be74:	00e12823          	sw	a4,16(sp)
    be78:	00079d03          	lh	s10,0(a5)
    be7c:	41fd5c93          	srai	s9,s10,0x1f
    be80:	000c8713          	mv	a4,s9
    be84:	e60752e3          	bgez	a4,bce8 <_vfiprintf_r+0x440>
    be88:	01a03733          	snez	a4,s10
    be8c:	41900eb3          	neg	t4,s9
    be90:	40ee8cb3          	sub	s9,t4,a4
    be94:	02d00713          	li	a4,45
    be98:	02e10da3          	sb	a4,59(sp)
    be9c:	fff00693          	li	a3,-1
    bea0:	41a00d33          	neg	s10,s10
    bea4:	000b0d93          	mv	s11,s6
    bea8:	00100713          	li	a4,1
    beac:	f4da90e3          	bne	s5,a3,bdec <_vfiprintf_r+0x544>
    beb0:	00100693          	li	a3,1
    beb4:	e4d706e3          	beq	a4,a3,bd00 <_vfiprintf_r+0x458>
    beb8:	00200693          	li	a3,2
    bebc:	26d70663          	beq	a4,a3,c128 <_vfiprintf_r+0x880>
    bec0:	0f010413          	addi	s0,sp,240
    bec4:	01dc9793          	slli	a5,s9,0x1d
    bec8:	007d7713          	andi	a4,s10,7
    becc:	003d5d13          	srli	s10,s10,0x3
    bed0:	03070713          	addi	a4,a4,48
    bed4:	01a7ed33          	or	s10,a5,s10
    bed8:	003cdc93          	srli	s9,s9,0x3
    bedc:	fee40fa3          	sb	a4,-1(s0)
    bee0:	019d67b3          	or	a5,s10,s9
    bee4:	00040613          	mv	a2,s0
    bee8:	fff40413          	addi	s0,s0,-1
    beec:	fc079ce3          	bnez	a5,bec4 <_vfiprintf_r+0x61c>
    bef0:	001df793          	andi	a5,s11,1
    bef4:	26078463          	beqz	a5,c15c <_vfiprintf_r+0x8b4>
    bef8:	03000793          	li	a5,48
    befc:	26f70063          	beq	a4,a5,c15c <_vfiprintf_r+0x8b4>
    bf00:	ffe60613          	addi	a2,a2,-2
    bf04:	fef40fa3          	sb	a5,-1(s0)
    bf08:	0f010793          	addi	a5,sp,240
    bf0c:	40c78d33          	sub	s10,a5,a2
    bf10:	000d8b13          	mv	s6,s11
    bf14:	00060413          	mv	s0,a2
    bf18:	e09ff06f          	j	bd20 <_vfiprintf_r+0x478>
    bf1c:	a45f70ef          	jal	ra,3960 <__sinit>
    bf20:	9ddff06f          	j	b8fc <_vfiprintf_r+0x54>
    bf24:	01012783          	lw	a5,16(sp)
    bf28:	02010da3          	sb	zero,59(sp)
    bf2c:	0007a403          	lw	s0,0(a5)
    bf30:	00478d93          	addi	s11,a5,4
    bf34:	200408e3          	beqz	s0,c944 <_vfiprintf_r+0x109c>
    bf38:	fff00793          	li	a5,-1
    bf3c:	14fa80e3          	beq	s5,a5,c87c <_vfiprintf_r+0xfd4>
    bf40:	000a8613          	mv	a2,s5
    bf44:	00000593          	li	a1,0
    bf48:	00040513          	mv	a0,s0
    bf4c:	de0fb0ef          	jal	ra,752c <memchr>
    bf50:	340508e3          	beqz	a0,caa0 <_vfiprintf_r+0x11f8>
    bf54:	40850d33          	sub	s10,a0,s0
    bf58:	01b12823          	sw	s11,16(sp)
    bf5c:	00000a93          	li	s5,0
    bf60:	dc1ff06f          	j	bd20 <_vfiprintf_r+0x478>
    bf64:	01012703          	lw	a4,16(sp)
    bf68:	02010da3          	sb	zero,59(sp)
    bf6c:	00100c93          	li	s9,1
    bf70:	00072783          	lw	a5,0(a4)
    bf74:	00470713          	addi	a4,a4,4
    bf78:	00e12823          	sw	a4,16(sp)
    bf7c:	08f10623          	sb	a5,140(sp)
    bf80:	00100d13          	li	s10,1
    bf84:	08c10413          	addi	s0,sp,140
    bf88:	b31ff06f          	j	bab8 <_vfiprintf_r+0x210>
    bf8c:	01012783          	lw	a5,16(sp)
    bf90:	03000713          	li	a4,48
    bf94:	02e10e23          	sb	a4,60(sp)
    bf98:	0007ad03          	lw	s10,0(a5)
    bf9c:	00478793          	addi	a5,a5,4
    bfa0:	00f12823          	sw	a5,16(sp)
    bfa4:	000147b7          	lui	a5,0x14
    bfa8:	07800713          	li	a4,120
    bfac:	2b478793          	addi	a5,a5,692 # 142b4 <__clzsi2+0x9c>
    bfb0:	02e10ea3          	sb	a4,61(sp)
    bfb4:	00000c93          	li	s9,0
    bfb8:	002b6d93          	ori	s11,s6,2
    bfbc:	00f12c23          	sw	a5,24(sp)
    bfc0:	00200713          	li	a4,2
    bfc4:	e1dff06f          	j	bde0 <_vfiprintf_r+0x538>
    bfc8:	000c4703          	lbu	a4,0(s8)
    bfcc:	06c00793          	li	a5,108
    bfd0:	14f70ce3          	beq	a4,a5,c928 <_vfiprintf_r+0x1080>
    bfd4:	010b6b13          	ori	s6,s6,16
    bfd8:	a71ff06f          	j	ba48 <_vfiprintf_r+0x1a0>
    bfdc:	000c4703          	lbu	a4,0(s8)
    bfe0:	06800793          	li	a5,104
    bfe4:	12f70ae3          	beq	a4,a5,c918 <_vfiprintf_r+0x1070>
    bfe8:	040b6b13          	ori	s6,s6,64
    bfec:	a5dff06f          	j	ba48 <_vfiprintf_r+0x1a0>
    bff0:	010b6d93          	ori	s11,s6,16
    bff4:	020df793          	andi	a5,s11,32
    bff8:	60078c63          	beqz	a5,c610 <_vfiprintf_r+0xd68>
    bffc:	01012783          	lw	a5,16(sp)
    c000:	00100713          	li	a4,1
    c004:	00778793          	addi	a5,a5,7
    c008:	ff87f793          	andi	a5,a5,-8
    c00c:	0007ad03          	lw	s10,0(a5)
    c010:	0047ac83          	lw	s9,4(a5)
    c014:	00878793          	addi	a5,a5,8
    c018:	00f12823          	sw	a5,16(sp)
    c01c:	dc5ff06f          	j	bde0 <_vfiprintf_r+0x538>
    c020:	000c4703          	lbu	a4,0(s8)
    c024:	080b6b13          	ori	s6,s6,128
    c028:	a21ff06f          	j	ba48 <_vfiprintf_r+0x1a0>
    c02c:	01012683          	lw	a3,16(sp)
    c030:	000c4703          	lbu	a4,0(s8)
    c034:	0006a783          	lw	a5,0(a3)
    c038:	00468693          	addi	a3,a3,4
    c03c:	00d12823          	sw	a3,16(sp)
    c040:	00f12223          	sw	a5,4(sp)
    c044:	a007d2e3          	bgez	a5,ba48 <_vfiprintf_r+0x1a0>
    c048:	40f007b3          	neg	a5,a5
    c04c:	00f12223          	sw	a5,4(sp)
    c050:	004b6b13          	ori	s6,s6,4
    c054:	9f5ff06f          	j	ba48 <_vfiprintf_r+0x1a0>
    c058:	000c4703          	lbu	a4,0(s8)
    c05c:	001b6b13          	ori	s6,s6,1
    c060:	9e9ff06f          	j	ba48 <_vfiprintf_r+0x1a0>
    c064:	03b14783          	lbu	a5,59(sp)
    c068:	000c4703          	lbu	a4,0(s8)
    c06c:	9c079ee3          	bnez	a5,ba48 <_vfiprintf_r+0x1a0>
    c070:	02000793          	li	a5,32
    c074:	02f10da3          	sb	a5,59(sp)
    c078:	9d1ff06f          	j	ba48 <_vfiprintf_r+0x1a0>
    c07c:	000c4703          	lbu	a4,0(s8)
    c080:	004b6b13          	ori	s6,s6,4
    c084:	9c5ff06f          	j	ba48 <_vfiprintf_r+0x1a0>
    c088:	02b00793          	li	a5,43
    c08c:	000c4703          	lbu	a4,0(s8)
    c090:	02f10da3          	sb	a5,59(sp)
    c094:	9b5ff06f          	j	ba48 <_vfiprintf_r+0x1a0>
    c098:	000c4703          	lbu	a4,0(s8)
    c09c:	001c0693          	addi	a3,s8,1
    c0a0:	24c700e3          	beq	a4,a2,cae0 <_vfiprintf_r+0x1238>
    c0a4:	fd070793          	addi	a5,a4,-48
    c0a8:	00068c13          	mv	s8,a3
    c0ac:	00000a93          	li	s5,0
    c0b0:	98fd6ee3          	bltu	s10,a5,ba4c <_vfiprintf_r+0x1a4>
    c0b4:	000c4703          	lbu	a4,0(s8)
    c0b8:	002a9693          	slli	a3,s5,0x2
    c0bc:	01568ab3          	add	s5,a3,s5
    c0c0:	001a9a93          	slli	s5,s5,0x1
    c0c4:	00fa8ab3          	add	s5,s5,a5
    c0c8:	fd070793          	addi	a5,a4,-48
    c0cc:	001c0c13          	addi	s8,s8,1
    c0d0:	fefd72e3          	bgeu	s10,a5,c0b4 <_vfiprintf_r+0x80c>
    c0d4:	979ff06f          	j	ba4c <_vfiprintf_r+0x1a4>
    c0d8:	01012683          	lw	a3,16(sp)
    c0dc:	020b7793          	andi	a5,s6,32
    c0e0:	0006a703          	lw	a4,0(a3)
    c0e4:	00468693          	addi	a3,a3,4
    c0e8:	00d12823          	sw	a3,16(sp)
    c0ec:	6c079063          	bnez	a5,c7ac <_vfiprintf_r+0xf04>
    c0f0:	010b7793          	andi	a5,s6,16
    c0f4:	040792e3          	bnez	a5,c938 <_vfiprintf_r+0x1090>
    c0f8:	040b7793          	andi	a5,s6,64
    c0fc:	120796e3          	bnez	a5,ca28 <_vfiprintf_r+0x1180>
    c100:	200b7313          	andi	t1,s6,512
    c104:	02030ae3          	beqz	t1,c938 <_vfiprintf_r+0x1090>
    c108:	00c12783          	lw	a5,12(sp)
    c10c:	00f70023          	sb	a5,0(a4)
    c110:	891ff06f          	j	b9a0 <_vfiprintf_r+0xf8>
    c114:	00100693          	li	a3,1
    c118:	1ad704e3          	beq	a4,a3,cac0 <_vfiprintf_r+0x1218>
    c11c:	00200693          	li	a3,2
    c120:	000b0d93          	mv	s11,s6
    c124:	d8d71ee3          	bne	a4,a3,bec0 <_vfiprintf_r+0x618>
    c128:	01812683          	lw	a3,24(sp)
    c12c:	0f010413          	addi	s0,sp,240
    c130:	00fd7793          	andi	a5,s10,15
    c134:	00f687b3          	add	a5,a3,a5
    c138:	0007c703          	lbu	a4,0(a5)
    c13c:	004d5d13          	srli	s10,s10,0x4
    c140:	01cc9793          	slli	a5,s9,0x1c
    c144:	01a7ed33          	or	s10,a5,s10
    c148:	004cdc93          	srli	s9,s9,0x4
    c14c:	fee40fa3          	sb	a4,-1(s0)
    c150:	019d67b3          	or	a5,s10,s9
    c154:	fff40413          	addi	s0,s0,-1
    c158:	fc079ce3          	bnez	a5,c130 <_vfiprintf_r+0x888>
    c15c:	0f010793          	addi	a5,sp,240
    c160:	40878d33          	sub	s10,a5,s0
    c164:	000d8b13          	mv	s6,s11
    c168:	bb9ff06f          	j	bd20 <_vfiprintf_r+0x478>
    c16c:	00412583          	lw	a1,4(sp)
    c170:	41958db3          	sub	s11,a1,s9
    c174:	a1b05ee3          	blez	s11,bb90 <_vfiprintf_r+0x2e8>
    c178:	01000593          	li	a1,16
    c17c:	15b5dce3          	bge	a1,s11,cad4 <_vfiprintf_r+0x122c>
    c180:	01000e93          	li	t4,16
    c184:	00700f13          	li	t5,7
    c188:	0180006f          	j	c1a0 <_vfiprintf_r+0x8f8>
    c18c:	00270613          	addi	a2,a4,2
    c190:	008b8b93          	addi	s7,s7,8
    c194:	00068713          	mv	a4,a3
    c198:	ff0d8d93          	addi	s11,s11,-16
    c19c:	05bedc63          	bge	t4,s11,c1f4 <_vfiprintf_r+0x94c>
    c1a0:	01078793          	addi	a5,a5,16
    c1a4:	00170693          	addi	a3,a4,1
    c1a8:	012ba023          	sw	s2,0(s7)
    c1ac:	01dba223          	sw	t4,4(s7)
    c1b0:	04f12423          	sw	a5,72(sp)
    c1b4:	04d12223          	sw	a3,68(sp)
    c1b8:	fcdf5ae3          	bge	t5,a3,c18c <_vfiprintf_r+0x8e4>
    c1bc:	16078063          	beqz	a5,c31c <_vfiprintf_r+0xa74>
    c1c0:	04010613          	addi	a2,sp,64
    c1c4:	00098593          	mv	a1,s3
    c1c8:	000a0513          	mv	a0,s4
    c1cc:	dd4ff0ef          	jal	ra,b7a0 <__sprint_r.part.0>
    c1d0:	a40516e3          	bnez	a0,bc1c <_vfiprintf_r+0x374>
    c1d4:	04412703          	lw	a4,68(sp)
    c1d8:	01000e93          	li	t4,16
    c1dc:	ff0d8d93          	addi	s11,s11,-16
    c1e0:	04812783          	lw	a5,72(sp)
    c1e4:	00048b93          	mv	s7,s1
    c1e8:	00170613          	addi	a2,a4,1
    c1ec:	00700f13          	li	t5,7
    c1f0:	fbbec8e3          	blt	t4,s11,c1a0 <_vfiprintf_r+0x8f8>
    c1f4:	00060593          	mv	a1,a2
    c1f8:	008b8513          	addi	a0,s7,8
    c1fc:	01b787b3          	add	a5,a5,s11
    c200:	012ba023          	sw	s2,0(s7)
    c204:	01bba223          	sw	s11,4(s7)
    c208:	04f12423          	sw	a5,72(sp)
    c20c:	04b12223          	sw	a1,68(sp)
    c210:	00700713          	li	a4,7
    c214:	54b75063          	bge	a4,a1,c754 <_vfiprintf_r+0xeac>
    c218:	7c078c63          	beqz	a5,c9f0 <_vfiprintf_r+0x1148>
    c21c:	04010613          	addi	a2,sp,64
    c220:	00098593          	mv	a1,s3
    c224:	000a0513          	mv	a0,s4
    c228:	d78ff0ef          	jal	ra,b7a0 <__sprint_r.part.0>
    c22c:	9e0518e3          	bnez	a0,bc1c <_vfiprintf_r+0x374>
    c230:	04412703          	lw	a4,68(sp)
    c234:	41aa8ab3          	sub	s5,s5,s10
    c238:	04812783          	lw	a5,72(sp)
    c23c:	05410693          	addi	a3,sp,84
    c240:	00170613          	addi	a2,a4,1
    c244:	00048b93          	mv	s7,s1
    c248:	955058e3          	blez	s5,bb98 <_vfiprintf_r+0x2f0>
    c24c:	01000593          	li	a1,16
    c250:	7955d663          	bge	a1,s5,c9dc <_vfiprintf_r+0x1134>
    c254:	01000893          	li	a7,16
    c258:	00700d93          	li	s11,7
    c25c:	0180006f          	j	c274 <_vfiprintf_r+0x9cc>
    c260:	00270613          	addi	a2,a4,2
    c264:	008b8b93          	addi	s7,s7,8
    c268:	00068713          	mv	a4,a3
    c26c:	ff0a8a93          	addi	s5,s5,-16
    c270:	0558da63          	bge	a7,s5,c2c4 <_vfiprintf_r+0xa1c>
    c274:	01078793          	addi	a5,a5,16
    c278:	00170693          	addi	a3,a4,1
    c27c:	012ba023          	sw	s2,0(s7)
    c280:	011ba223          	sw	a7,4(s7)
    c284:	04f12423          	sw	a5,72(sp)
    c288:	04d12223          	sw	a3,68(sp)
    c28c:	fcdddae3          	bge	s11,a3,c260 <_vfiprintf_r+0x9b8>
    c290:	06078263          	beqz	a5,c2f4 <_vfiprintf_r+0xa4c>
    c294:	04010613          	addi	a2,sp,64
    c298:	00098593          	mv	a1,s3
    c29c:	000a0513          	mv	a0,s4
    c2a0:	d00ff0ef          	jal	ra,b7a0 <__sprint_r.part.0>
    c2a4:	96051ce3          	bnez	a0,bc1c <_vfiprintf_r+0x374>
    c2a8:	04412703          	lw	a4,68(sp)
    c2ac:	01000893          	li	a7,16
    c2b0:	ff0a8a93          	addi	s5,s5,-16
    c2b4:	04812783          	lw	a5,72(sp)
    c2b8:	00048b93          	mv	s7,s1
    c2bc:	00170613          	addi	a2,a4,1
    c2c0:	fb58cae3          	blt	a7,s5,c274 <_vfiprintf_r+0x9cc>
    c2c4:	008b8593          	addi	a1,s7,8
    c2c8:	015787b3          	add	a5,a5,s5
    c2cc:	012ba023          	sw	s2,0(s7)
    c2d0:	015ba223          	sw	s5,4(s7)
    c2d4:	04f12423          	sw	a5,72(sp)
    c2d8:	04c12223          	sw	a2,68(sp)
    c2dc:	00700713          	li	a4,7
    c2e0:	2cc74e63          	blt	a4,a2,c5bc <_vfiprintf_r+0xd14>
    c2e4:	00160613          	addi	a2,a2,1
    c2e8:	00858693          	addi	a3,a1,8
    c2ec:	00058b93          	mv	s7,a1
    c2f0:	8a9ff06f          	j	bb98 <_vfiprintf_r+0x2f0>
    c2f4:	00100613          	li	a2,1
    c2f8:	00000713          	li	a4,0
    c2fc:	00048b93          	mv	s7,s1
    c300:	f6dff06f          	j	c26c <_vfiprintf_r+0x9c4>
    c304:	04010613          	addi	a2,sp,64
    c308:	00098593          	mv	a1,s3
    c30c:	000a0513          	mv	a0,s4
    c310:	c90ff0ef          	jal	ra,b7a0 <__sprint_r.part.0>
    c314:	8e0508e3          	beqz	a0,bc04 <_vfiprintf_r+0x35c>
    c318:	905ff06f          	j	bc1c <_vfiprintf_r+0x374>
    c31c:	00100613          	li	a2,1
    c320:	00000713          	li	a4,0
    c324:	00048b93          	mv	s7,s1
    c328:	e71ff06f          	j	c198 <_vfiprintf_r+0x8f0>
    c32c:	32078463          	beqz	a5,c654 <_vfiprintf_r+0xdac>
    c330:	04010613          	addi	a2,sp,64
    c334:	00098593          	mv	a1,s3
    c338:	000a0513          	mv	a0,s4
    c33c:	03e12623          	sw	t5,44(sp)
    c340:	03f12423          	sw	t6,40(sp)
    c344:	c5cff0ef          	jal	ra,b7a0 <__sprint_r.part.0>
    c348:	8c051ae3          	bnez	a0,bc1c <_vfiprintf_r+0x374>
    c34c:	04412703          	lw	a4,68(sp)
    c350:	04812783          	lw	a5,72(sp)
    c354:	02c12f03          	lw	t5,44(sp)
    c358:	02812f83          	lw	t6,40(sp)
    c35c:	05410693          	addi	a3,sp,84
    c360:	00170613          	addi	a2,a4,1
    c364:	00048b93          	mv	s7,s1
    c368:	fc4ff06f          	j	bb2c <_vfiprintf_r+0x284>
    c36c:	3a079863          	bnez	a5,c71c <_vfiprintf_r+0xe74>
    c370:	03b14703          	lbu	a4,59(sp)
    c374:	68071c63          	bnez	a4,ca0c <_vfiprintf_r+0x1164>
    c378:	440f8c63          	beqz	t6,c7d0 <_vfiprintf_r+0xf28>
    c37c:	03c10793          	addi	a5,sp,60
    c380:	04f12623          	sw	a5,76(sp)
    c384:	00200793          	li	a5,2
    c388:	04f12823          	sw	a5,80(sp)
    c38c:	05410693          	addi	a3,sp,84
    c390:	00100613          	li	a2,1
    c394:	00068b93          	mv	s7,a3
    c398:	00060713          	mv	a4,a2
    c39c:	00170613          	addi	a2,a4,1
    c3a0:	008b8693          	addi	a3,s7,8
    c3a4:	fe4ff06f          	j	bb88 <_vfiprintf_r+0x2e0>
    c3a8:	000b0d93          	mv	s11,s6
    c3ac:	b05ff06f          	j	beb0 <_vfiprintf_r+0x608>
    c3b0:	01000613          	li	a2,16
    c3b4:	6fb65e63          	bge	a2,s11,cab0 <_vfiprintf_r+0x1208>
    c3b8:	000b8613          	mv	a2,s7
    c3bc:	01000e93          	li	t4,16
    c3c0:	00040b93          	mv	s7,s0
    c3c4:	00700293          	li	t0,7
    c3c8:	00098413          	mv	s0,s3
    c3cc:	03f12423          	sw	t6,40(sp)
    c3d0:	000d8993          	mv	s3,s11
    c3d4:	000c0d93          	mv	s11,s8
    c3d8:	000a8c13          	mv	s8,s5
    c3dc:	000f0a93          	mv	s5,t5
    c3e0:	01c0006f          	j	c3fc <_vfiprintf_r+0xb54>
    c3e4:	00270513          	addi	a0,a4,2
    c3e8:	00860613          	addi	a2,a2,8
    c3ec:	00068713          	mv	a4,a3
    c3f0:	ff098993          	addi	s3,s3,-16
    c3f4:	053ede63          	bge	t4,s3,c450 <_vfiprintf_r+0xba8>
    c3f8:	00170693          	addi	a3,a4,1
    c3fc:	00812583          	lw	a1,8(sp)
    c400:	01078793          	addi	a5,a5,16
    c404:	01d62223          	sw	t4,4(a2)
    c408:	00b62023          	sw	a1,0(a2)
    c40c:	04f12423          	sw	a5,72(sp)
    c410:	04d12223          	sw	a3,68(sp)
    c414:	fcd2d8e3          	bge	t0,a3,c3e4 <_vfiprintf_r+0xb3c>
    c418:	08078663          	beqz	a5,c4a4 <_vfiprintf_r+0xbfc>
    c41c:	04010613          	addi	a2,sp,64
    c420:	00040593          	mv	a1,s0
    c424:	000a0513          	mv	a0,s4
    c428:	b78ff0ef          	jal	ra,b7a0 <__sprint_r.part.0>
    c42c:	4a051463          	bnez	a0,c8d4 <_vfiprintf_r+0x102c>
    c430:	04412703          	lw	a4,68(sp)
    c434:	01000e93          	li	t4,16
    c438:	ff098993          	addi	s3,s3,-16
    c43c:	04812783          	lw	a5,72(sp)
    c440:	00048613          	mv	a2,s1
    c444:	00170513          	addi	a0,a4,1
    c448:	00700293          	li	t0,7
    c44c:	fb3ec6e3          	blt	t4,s3,c3f8 <_vfiprintf_r+0xb50>
    c450:	02812f83          	lw	t6,40(sp)
    c454:	000a8f13          	mv	t5,s5
    c458:	00050593          	mv	a1,a0
    c45c:	000c0a93          	mv	s5,s8
    c460:	000d8c13          	mv	s8,s11
    c464:	00098d93          	mv	s11,s3
    c468:	00040993          	mv	s3,s0
    c46c:	000b8413          	mv	s0,s7
    c470:	00060b93          	mv	s7,a2
    c474:	00812703          	lw	a4,8(sp)
    c478:	01b787b3          	add	a5,a5,s11
    c47c:	01bba223          	sw	s11,4(s7)
    c480:	00eba023          	sw	a4,0(s7)
    c484:	04f12423          	sw	a5,72(sp)
    c488:	04b12223          	sw	a1,68(sp)
    c48c:	00700713          	li	a4,7
    c490:	ecb74ee3          	blt	a4,a1,c36c <_vfiprintf_r+0xac4>
    c494:	008b8b93          	addi	s7,s7,8
    c498:	00158613          	addi	a2,a1,1
    c49c:	00058713          	mv	a4,a1
    c4a0:	e4cff06f          	j	baec <_vfiprintf_r+0x244>
    c4a4:	00000713          	li	a4,0
    c4a8:	00100513          	li	a0,1
    c4ac:	00048613          	mv	a2,s1
    c4b0:	f41ff06f          	j	c3f0 <_vfiprintf_r+0xb48>
    c4b4:	04012223          	sw	zero,68(sp)
    c4b8:	004b7313          	andi	t1,s6,4
    c4bc:	0e030263          	beqz	t1,c5a0 <_vfiprintf_r+0xcf8>
    c4c0:	00412703          	lw	a4,4(sp)
    c4c4:	41970bb3          	sub	s7,a4,s9
    c4c8:	0d705c63          	blez	s7,c5a0 <_vfiprintf_r+0xcf8>
    c4cc:	00048693          	mv	a3,s1
    c4d0:	01000713          	li	a4,16
    c4d4:	04412603          	lw	a2,68(sp)
    c4d8:	5f775063          	bge	a4,s7,cab8 <_vfiprintf_r+0x1210>
    c4dc:	01000d13          	li	s10,16
    c4e0:	00700d93          	li	s11,7
    c4e4:	0180006f          	j	c4fc <_vfiprintf_r+0xc54>
    c4e8:	00260513          	addi	a0,a2,2
    c4ec:	00868693          	addi	a3,a3,8
    c4f0:	00070613          	mv	a2,a4
    c4f4:	ff0b8b93          	addi	s7,s7,-16
    c4f8:	057d5a63          	bge	s10,s7,c54c <_vfiprintf_r+0xca4>
    c4fc:	00812583          	lw	a1,8(sp)
    c500:	01078793          	addi	a5,a5,16
    c504:	00160713          	addi	a4,a2,1
    c508:	00b6a023          	sw	a1,0(a3)
    c50c:	01a6a223          	sw	s10,4(a3)
    c510:	04f12423          	sw	a5,72(sp)
    c514:	04e12223          	sw	a4,68(sp)
    c518:	fcedd8e3          	bge	s11,a4,c4e8 <_vfiprintf_r+0xc40>
    c51c:	06078a63          	beqz	a5,c590 <_vfiprintf_r+0xce8>
    c520:	04010613          	addi	a2,sp,64
    c524:	00098593          	mv	a1,s3
    c528:	000a0513          	mv	a0,s4
    c52c:	a74ff0ef          	jal	ra,b7a0 <__sprint_r.part.0>
    c530:	ee051663          	bnez	a0,bc1c <_vfiprintf_r+0x374>
    c534:	04412603          	lw	a2,68(sp)
    c538:	ff0b8b93          	addi	s7,s7,-16
    c53c:	04812783          	lw	a5,72(sp)
    c540:	00048693          	mv	a3,s1
    c544:	00160513          	addi	a0,a2,1
    c548:	fb7d4ae3          	blt	s10,s7,c4fc <_vfiprintf_r+0xc54>
    c54c:	00050593          	mv	a1,a0
    c550:	00812703          	lw	a4,8(sp)
    c554:	017787b3          	add	a5,a5,s7
    c558:	0176a223          	sw	s7,4(a3)
    c55c:	00e6a023          	sw	a4,0(a3)
    c560:	04f12423          	sw	a5,72(sp)
    c564:	04b12223          	sw	a1,68(sp)
    c568:	00700713          	li	a4,7
    c56c:	e6b75e63          	bge	a4,a1,bbe8 <_vfiprintf_r+0x340>
    c570:	02078863          	beqz	a5,c5a0 <_vfiprintf_r+0xcf8>
    c574:	04010613          	addi	a2,sp,64
    c578:	00098593          	mv	a1,s3
    c57c:	000a0513          	mv	a0,s4
    c580:	a20ff0ef          	jal	ra,b7a0 <__sprint_r.part.0>
    c584:	e8051c63          	bnez	a0,bc1c <_vfiprintf_r+0x374>
    c588:	04812783          	lw	a5,72(sp)
    c58c:	e5cff06f          	j	bbe8 <_vfiprintf_r+0x340>
    c590:	00100513          	li	a0,1
    c594:	00000613          	li	a2,0
    c598:	00048693          	mv	a3,s1
    c59c:	f59ff06f          	j	c4f4 <_vfiprintf_r+0xc4c>
    c5a0:	00412403          	lw	s0,4(sp)
    c5a4:	01945463          	bge	s0,s9,c5ac <_vfiprintf_r+0xd04>
    c5a8:	000c8413          	mv	s0,s9
    c5ac:	00c12783          	lw	a5,12(sp)
    c5b0:	008787b3          	add	a5,a5,s0
    c5b4:	00f12623          	sw	a5,12(sp)
    c5b8:	e4cff06f          	j	bc04 <_vfiprintf_r+0x35c>
    c5bc:	32078063          	beqz	a5,c8dc <_vfiprintf_r+0x1034>
    c5c0:	04010613          	addi	a2,sp,64
    c5c4:	00098593          	mv	a1,s3
    c5c8:	000a0513          	mv	a0,s4
    c5cc:	9d4ff0ef          	jal	ra,b7a0 <__sprint_r.part.0>
    c5d0:	e4051663          	bnez	a0,bc1c <_vfiprintf_r+0x374>
    c5d4:	04412603          	lw	a2,68(sp)
    c5d8:	04812783          	lw	a5,72(sp)
    c5dc:	05410693          	addi	a3,sp,84
    c5e0:	00160613          	addi	a2,a2,1
    c5e4:	00048b93          	mv	s7,s1
    c5e8:	db0ff06f          	j	bb98 <_vfiprintf_r+0x2f0>
    c5ec:	04012223          	sw	zero,68(sp)
    c5f0:	00048b93          	mv	s7,s1
    c5f4:	c1cff06f          	j	ba10 <_vfiprintf_r+0x168>
    c5f8:	f00a9a63          	bnez	s5,bd0c <_vfiprintf_r+0x464>
    c5fc:	000d8b13          	mv	s6,s11
    c600:	00000a93          	li	s5,0
    c604:	00000d13          	li	s10,0
    c608:	0f010413          	addi	s0,sp,240
    c60c:	f14ff06f          	j	bd20 <_vfiprintf_r+0x478>
    c610:	01012683          	lw	a3,16(sp)
    c614:	010df793          	andi	a5,s11,16
    c618:	00468713          	addi	a4,a3,4
    c61c:	14079663          	bnez	a5,c768 <_vfiprintf_r+0xec0>
    c620:	040df793          	andi	a5,s11,64
    c624:	36078e63          	beqz	a5,c9a0 <_vfiprintf_r+0x10f8>
    c628:	01012783          	lw	a5,16(sp)
    c62c:	00000c93          	li	s9,0
    c630:	00e12823          	sw	a4,16(sp)
    c634:	0007dd03          	lhu	s10,0(a5)
    c638:	00100713          	li	a4,1
    c63c:	fa4ff06f          	j	bde0 <_vfiprintf_r+0x538>
    c640:	05410693          	addi	a3,sp,84
    c644:	00100613          	li	a2,1
    c648:	00000713          	li	a4,0
    c64c:	00048b93          	mv	s7,s1
    c650:	d38ff06f          	j	bb88 <_vfiprintf_r+0x2e0>
    c654:	160f8e63          	beqz	t6,c7d0 <_vfiprintf_r+0xf28>
    c658:	03c10793          	addi	a5,sp,60
    c65c:	04f12623          	sw	a5,76(sp)
    c660:	00200793          	li	a5,2
    c664:	04f12823          	sw	a5,80(sp)
    c668:	05410b93          	addi	s7,sp,84
    c66c:	00100713          	li	a4,1
    c670:	d2dff06f          	j	c39c <_vfiprintf_r+0xaf4>
    c674:	400df793          	andi	a5,s11,1024
    c678:	03412423          	sw	s4,40(sp)
    c67c:	03312623          	sw	s3,44(sp)
    c680:	000c8a13          	mv	s4,s9
    c684:	000d0993          	mv	s3,s10
    c688:	00000b13          	li	s6,0
    c68c:	01c12d03          	lw	s10,28(sp)
    c690:	0f010413          	addi	s0,sp,240
    c694:	00078c93          	mv	s9,a5
    c698:	0240006f          	j	c6bc <_vfiprintf_r+0xe14>
    c69c:	00a00613          	li	a2,10
    c6a0:	00000693          	li	a3,0
    c6a4:	00098513          	mv	a0,s3
    c6a8:	000a0593          	mv	a1,s4
    c6ac:	68c030ef          	jal	ra,fd38 <__udivdi3>
    c6b0:	320a0a63          	beqz	s4,c9e4 <_vfiprintf_r+0x113c>
    c6b4:	00050993          	mv	s3,a0
    c6b8:	00058a13          	mv	s4,a1
    c6bc:	00a00613          	li	a2,10
    c6c0:	00000693          	li	a3,0
    c6c4:	00098513          	mv	a0,s3
    c6c8:	000a0593          	mv	a1,s4
    c6cc:	2a1030ef          	jal	ra,1016c <__umoddi3>
    c6d0:	03050513          	addi	a0,a0,48
    c6d4:	fea40fa3          	sb	a0,-1(s0)
    c6d8:	001b0b13          	addi	s6,s6,1
    c6dc:	fff40413          	addi	s0,s0,-1
    c6e0:	fa0c8ee3          	beqz	s9,c69c <_vfiprintf_r+0xdf4>
    c6e4:	000d4683          	lbu	a3,0(s10)
    c6e8:	fb669ae3          	bne	a3,s6,c69c <_vfiprintf_r+0xdf4>
    c6ec:	0ff00793          	li	a5,255
    c6f0:	fafb06e3          	beq	s6,a5,c69c <_vfiprintf_r+0xdf4>
    c6f4:	1a0a1063          	bnez	s4,c894 <_vfiprintf_r+0xfec>
    c6f8:	00900793          	li	a5,9
    c6fc:	1937ec63          	bltu	a5,s3,c894 <_vfiprintf_r+0xfec>
    c700:	0f010793          	addi	a5,sp,240
    c704:	01a12e23          	sw	s10,28(sp)
    c708:	02812a03          	lw	s4,40(sp)
    c70c:	02c12983          	lw	s3,44(sp)
    c710:	40878d33          	sub	s10,a5,s0
    c714:	000d8b13          	mv	s6,s11
    c718:	e08ff06f          	j	bd20 <_vfiprintf_r+0x478>
    c71c:	04010613          	addi	a2,sp,64
    c720:	00098593          	mv	a1,s3
    c724:	000a0513          	mv	a0,s4
    c728:	03e12623          	sw	t5,44(sp)
    c72c:	03f12423          	sw	t6,40(sp)
    c730:	870ff0ef          	jal	ra,b7a0 <__sprint_r.part.0>
    c734:	ce051463          	bnez	a0,bc1c <_vfiprintf_r+0x374>
    c738:	04412703          	lw	a4,68(sp)
    c73c:	04812783          	lw	a5,72(sp)
    c740:	02c12f03          	lw	t5,44(sp)
    c744:	02812f83          	lw	t6,40(sp)
    c748:	00048b93          	mv	s7,s1
    c74c:	00170613          	addi	a2,a4,1
    c750:	b9cff06f          	j	baec <_vfiprintf_r+0x244>
    c754:	00158613          	addi	a2,a1,1
    c758:	00850693          	addi	a3,a0,8
    c75c:	00058713          	mv	a4,a1
    c760:	00050b93          	mv	s7,a0
    c764:	c2cff06f          	j	bb90 <_vfiprintf_r+0x2e8>
    c768:	00e12823          	sw	a4,16(sp)
    c76c:	0006ad03          	lw	s10,0(a3)
    c770:	00000c93          	li	s9,0
    c774:	00100713          	li	a4,1
    c778:	e68ff06f          	j	bde0 <_vfiprintf_r+0x538>
    c77c:	0006ad03          	lw	s10,0(a3)
    c780:	00e12823          	sw	a4,16(sp)
    c784:	41fd5c93          	srai	s9,s10,0x1f
    c788:	000c8713          	mv	a4,s9
    c78c:	d58ff06f          	j	bce4 <_vfiprintf_r+0x43c>
    c790:	01c12783          	lw	a5,28(sp)
    c794:	000c4703          	lbu	a4,0(s8)
    c798:	aa078863          	beqz	a5,ba48 <_vfiprintf_r+0x1a0>
    c79c:	0007c783          	lbu	a5,0(a5)
    c7a0:	aa078463          	beqz	a5,ba48 <_vfiprintf_r+0x1a0>
    c7a4:	400b6b13          	ori	s6,s6,1024
    c7a8:	aa0ff06f          	j	ba48 <_vfiprintf_r+0x1a0>
    c7ac:	00c12683          	lw	a3,12(sp)
    c7b0:	41f6d793          	srai	a5,a3,0x1f
    c7b4:	00d72023          	sw	a3,0(a4)
    c7b8:	00f72223          	sw	a5,4(a4)
    c7bc:	9e4ff06f          	j	b9a0 <_vfiprintf_r+0xf8>
    c7c0:	0006ad03          	lw	s10,0(a3)
    c7c4:	00000c93          	li	s9,0
    c7c8:	00e12823          	sw	a4,16(sp)
    c7cc:	e0cff06f          	j	bdd8 <_vfiprintf_r+0x530>
    c7d0:	00000713          	li	a4,0
    c7d4:	05410693          	addi	a3,sp,84
    c7d8:	00100613          	li	a2,1
    c7dc:	00048b93          	mv	s7,s1
    c7e0:	ba8ff06f          	j	bb88 <_vfiprintf_r+0x2e0>
    c7e4:	000b0d93          	mv	s11,s6
    c7e8:	80dff06f          	j	bff4 <_vfiprintf_r+0x74c>
    c7ec:	000147b7          	lui	a5,0x14
    c7f0:	2c878793          	addi	a5,a5,712 # 142c8 <__clzsi2+0xb0>
    c7f4:	00f12c23          	sw	a5,24(sp)
    c7f8:	020b7793          	andi	a5,s6,32
    c7fc:	06078063          	beqz	a5,c85c <_vfiprintf_r+0xfb4>
    c800:	01012783          	lw	a5,16(sp)
    c804:	00778793          	addi	a5,a5,7
    c808:	ff87f793          	andi	a5,a5,-8
    c80c:	0007ad03          	lw	s10,0(a5)
    c810:	0047ac83          	lw	s9,4(a5)
    c814:	00878793          	addi	a5,a5,8
    c818:	00f12823          	sw	a5,16(sp)
    c81c:	001b7693          	andi	a3,s6,1
    c820:	00068e63          	beqz	a3,c83c <_vfiprintf_r+0xf94>
    c824:	019d66b3          	or	a3,s10,s9
    c828:	00068a63          	beqz	a3,c83c <_vfiprintf_r+0xf94>
    c82c:	03000693          	li	a3,48
    c830:	02d10e23          	sb	a3,60(sp)
    c834:	02e10ea3          	sb	a4,61(sp)
    c838:	002b6b13          	ori	s6,s6,2
    c83c:	bffb7d93          	andi	s11,s6,-1025
    c840:	00200713          	li	a4,2
    c844:	d9cff06f          	j	bde0 <_vfiprintf_r+0x538>
    c848:	000147b7          	lui	a5,0x14
    c84c:	2b478793          	addi	a5,a5,692 # 142b4 <__clzsi2+0x9c>
    c850:	00f12c23          	sw	a5,24(sp)
    c854:	020b7793          	andi	a5,s6,32
    c858:	fa0794e3          	bnez	a5,c800 <_vfiprintf_r+0xf58>
    c85c:	01012603          	lw	a2,16(sp)
    c860:	010b7793          	andi	a5,s6,16
    c864:	00460693          	addi	a3,a2,4
    c868:	08078a63          	beqz	a5,c8fc <_vfiprintf_r+0x1054>
    c86c:	00062d03          	lw	s10,0(a2)
    c870:	00000c93          	li	s9,0
    c874:	00d12823          	sw	a3,16(sp)
    c878:	fa5ff06f          	j	c81c <_vfiprintf_r+0xf74>
    c87c:	00040513          	mv	a0,s0
    c880:	c70fc0ef          	jal	ra,8cf0 <strlen>
    c884:	00050d13          	mv	s10,a0
    c888:	01b12823          	sw	s11,16(sp)
    c88c:	00000a93          	li	s5,0
    c890:	c90ff06f          	j	bd20 <_vfiprintf_r+0x478>
    c894:	02412783          	lw	a5,36(sp)
    c898:	02012583          	lw	a1,32(sp)
    c89c:	00000b13          	li	s6,0
    c8a0:	40f40433          	sub	s0,s0,a5
    c8a4:	00078613          	mv	a2,a5
    c8a8:	00040513          	mv	a0,s0
    c8ac:	cd0fc0ef          	jal	ra,8d7c <strncpy>
    c8b0:	001d4583          	lbu	a1,1(s10)
    c8b4:	00a00613          	li	a2,10
    c8b8:	00000693          	li	a3,0
    c8bc:	00b03733          	snez	a4,a1
    c8c0:	00098513          	mv	a0,s3
    c8c4:	000a0593          	mv	a1,s4
    c8c8:	00ed0d33          	add	s10,s10,a4
    c8cc:	46c030ef          	jal	ra,fd38 <__udivdi3>
    c8d0:	de5ff06f          	j	c6b4 <_vfiprintf_r+0xe0c>
    c8d4:	00040993          	mv	s3,s0
    c8d8:	b44ff06f          	j	bc1c <_vfiprintf_r+0x374>
    c8dc:	00100713          	li	a4,1
    c8e0:	000d0793          	mv	a5,s10
    c8e4:	04812623          	sw	s0,76(sp)
    c8e8:	05a12823          	sw	s10,80(sp)
    c8ec:	05a12423          	sw	s10,72(sp)
    c8f0:	04e12223          	sw	a4,68(sp)
    c8f4:	05410693          	addi	a3,sp,84
    c8f8:	adcff06f          	j	bbd4 <_vfiprintf_r+0x32c>
    c8fc:	040b7793          	andi	a5,s6,64
    c900:	06078263          	beqz	a5,c964 <_vfiprintf_r+0x10bc>
    c904:	01012783          	lw	a5,16(sp)
    c908:	00000c93          	li	s9,0
    c90c:	00d12823          	sw	a3,16(sp)
    c910:	0007dd03          	lhu	s10,0(a5)
    c914:	f09ff06f          	j	c81c <_vfiprintf_r+0xf74>
    c918:	001c4703          	lbu	a4,1(s8)
    c91c:	200b6b13          	ori	s6,s6,512
    c920:	001c0c13          	addi	s8,s8,1
    c924:	924ff06f          	j	ba48 <_vfiprintf_r+0x1a0>
    c928:	001c4703          	lbu	a4,1(s8)
    c92c:	020b6b13          	ori	s6,s6,32
    c930:	001c0c13          	addi	s8,s8,1
    c934:	914ff06f          	j	ba48 <_vfiprintf_r+0x1a0>
    c938:	00c12783          	lw	a5,12(sp)
    c93c:	00f72023          	sw	a5,0(a4)
    c940:	860ff06f          	j	b9a0 <_vfiprintf_r+0xf8>
    c944:	00600793          	li	a5,6
    c948:	000a8d13          	mv	s10,s5
    c94c:	0b57ec63          	bltu	a5,s5,ca04 <_vfiprintf_r+0x115c>
    c950:	00014e37          	lui	t3,0x14
    c954:	000d0c93          	mv	s9,s10
    c958:	01b12823          	sw	s11,16(sp)
    c95c:	2dce0413          	addi	s0,t3,732 # 142dc <__clzsi2+0xc4>
    c960:	958ff06f          	j	bab8 <_vfiprintf_r+0x210>
    c964:	200b7793          	andi	a5,s6,512
    c968:	10078863          	beqz	a5,ca78 <_vfiprintf_r+0x11d0>
    c96c:	01012783          	lw	a5,16(sp)
    c970:	00000c93          	li	s9,0
    c974:	00d12823          	sw	a3,16(sp)
    c978:	0007cd03          	lbu	s10,0(a5)
    c97c:	ea1ff06f          	j	c81c <_vfiprintf_r+0xf74>
    c980:	200b7793          	andi	a5,s6,512
    c984:	0c078e63          	beqz	a5,ca60 <_vfiprintf_r+0x11b8>
    c988:	01012783          	lw	a5,16(sp)
    c98c:	00e12823          	sw	a4,16(sp)
    c990:	00078d03          	lb	s10,0(a5)
    c994:	41fd5c93          	srai	s9,s10,0x1f
    c998:	000c8713          	mv	a4,s9
    c99c:	b48ff06f          	j	bce4 <_vfiprintf_r+0x43c>
    c9a0:	200df793          	andi	a5,s11,512
    c9a4:	0a078263          	beqz	a5,ca48 <_vfiprintf_r+0x11a0>
    c9a8:	01012783          	lw	a5,16(sp)
    c9ac:	00000c93          	li	s9,0
    c9b0:	00e12823          	sw	a4,16(sp)
    c9b4:	0007cd03          	lbu	s10,0(a5)
    c9b8:	00100713          	li	a4,1
    c9bc:	c24ff06f          	j	bde0 <_vfiprintf_r+0x538>
    c9c0:	200b7793          	andi	a5,s6,512
    c9c4:	06078863          	beqz	a5,ca34 <_vfiprintf_r+0x118c>
    c9c8:	01012783          	lw	a5,16(sp)
    c9cc:	00000c93          	li	s9,0
    c9d0:	00e12823          	sw	a4,16(sp)
    c9d4:	0007cd03          	lbu	s10,0(a5)
    c9d8:	c00ff06f          	j	bdd8 <_vfiprintf_r+0x530>
    c9dc:	00068593          	mv	a1,a3
    c9e0:	8e9ff06f          	j	c2c8 <_vfiprintf_r+0xa20>
    c9e4:	00900793          	li	a5,9
    c9e8:	cd37e6e3          	bltu	a5,s3,c6b4 <_vfiprintf_r+0xe0c>
    c9ec:	d15ff06f          	j	c700 <_vfiprintf_r+0xe58>
    c9f0:	05410693          	addi	a3,sp,84
    c9f4:	00100613          	li	a2,1
    c9f8:	00000713          	li	a4,0
    c9fc:	00048b93          	mv	s7,s1
    ca00:	990ff06f          	j	bb90 <_vfiprintf_r+0x2e8>
    ca04:	00600d13          	li	s10,6
    ca08:	f49ff06f          	j	c950 <_vfiprintf_r+0x10a8>
    ca0c:	03b10793          	addi	a5,sp,59
    ca10:	04f12623          	sw	a5,76(sp)
    ca14:	00100793          	li	a5,1
    ca18:	04f12823          	sw	a5,80(sp)
    ca1c:	05410693          	addi	a3,sp,84
    ca20:	00100613          	li	a2,1
    ca24:	8f8ff06f          	j	bb1c <_vfiprintf_r+0x274>
    ca28:	00c12783          	lw	a5,12(sp)
    ca2c:	00f71023          	sh	a5,0(a4)
    ca30:	f71fe06f          	j	b9a0 <_vfiprintf_r+0xf8>
    ca34:	01012783          	lw	a5,16(sp)
    ca38:	00000c93          	li	s9,0
    ca3c:	00e12823          	sw	a4,16(sp)
    ca40:	0007ad03          	lw	s10,0(a5)
    ca44:	b94ff06f          	j	bdd8 <_vfiprintf_r+0x530>
    ca48:	01012783          	lw	a5,16(sp)
    ca4c:	00000c93          	li	s9,0
    ca50:	00e12823          	sw	a4,16(sp)
    ca54:	0007ad03          	lw	s10,0(a5)
    ca58:	00100713          	li	a4,1
    ca5c:	b84ff06f          	j	bde0 <_vfiprintf_r+0x538>
    ca60:	01012783          	lw	a5,16(sp)
    ca64:	00e12823          	sw	a4,16(sp)
    ca68:	0007ad03          	lw	s10,0(a5)
    ca6c:	41fd5c93          	srai	s9,s10,0x1f
    ca70:	000c8713          	mv	a4,s9
    ca74:	a70ff06f          	j	bce4 <_vfiprintf_r+0x43c>
    ca78:	01012783          	lw	a5,16(sp)
    ca7c:	00000c93          	li	s9,0
    ca80:	00d12823          	sw	a3,16(sp)
    ca84:	0007ad03          	lw	s10,0(a5)
    ca88:	d95ff06f          	j	c81c <_vfiprintf_r+0xf74>
    ca8c:	04010613          	addi	a2,sp,64
    ca90:	00098593          	mv	a1,s3
    ca94:	000a0513          	mv	a0,s4
    ca98:	d09fe0ef          	jal	ra,b7a0 <__sprint_r.part.0>
    ca9c:	980ff06f          	j	bc1c <_vfiprintf_r+0x374>
    caa0:	000a8d13          	mv	s10,s5
    caa4:	01b12823          	sw	s11,16(sp)
    caa8:	00000a93          	li	s5,0
    caac:	a74ff06f          	j	bd20 <_vfiprintf_r+0x478>
    cab0:	00068593          	mv	a1,a3
    cab4:	9c1ff06f          	j	c474 <_vfiprintf_r+0xbcc>
    cab8:	00160593          	addi	a1,a2,1
    cabc:	a95ff06f          	j	c550 <_vfiprintf_r+0xca8>
    cac0:	000b0d93          	mv	s11,s6
    cac4:	a48ff06f          	j	bd0c <_vfiprintf_r+0x464>
    cac8:	fff00793          	li	a5,-1
    cacc:	00f12623          	sw	a5,12(sp)
    cad0:	958ff06f          	j	bc28 <_vfiprintf_r+0x380>
    cad4:	00068513          	mv	a0,a3
    cad8:	00060593          	mv	a1,a2
    cadc:	f20ff06f          	j	c1fc <_vfiprintf_r+0x954>
    cae0:	01012783          	lw	a5,16(sp)
    cae4:	0007aa83          	lw	s5,0(a5)
    cae8:	00478793          	addi	a5,a5,4
    caec:	000ad463          	bgez	s5,caf4 <_vfiprintf_r+0x124c>
    caf0:	fff00a93          	li	s5,-1
    caf4:	001c4703          	lbu	a4,1(s8)
    caf8:	00f12823          	sw	a5,16(sp)
    cafc:	00068c13          	mv	s8,a3
    cb00:	f49fe06f          	j	ba48 <_vfiprintf_r+0x1a0>

0000cb04 <vfiprintf>:
    cb04:	00050793          	mv	a5,a0
    cb08:	1d81a503          	lw	a0,472(gp) # 15a90 <_impure_ptr>
    cb0c:	00060693          	mv	a3,a2
    cb10:	00058613          	mv	a2,a1
    cb14:	00078593          	mv	a1,a5
    cb18:	d91fe06f          	j	b8a8 <_vfiprintf_r>

0000cb1c <__sbprintf>:
    cb1c:	00c5d783          	lhu	a5,12(a1)
    cb20:	0645ae03          	lw	t3,100(a1)
    cb24:	00e5d303          	lhu	t1,14(a1)
    cb28:	01c5a883          	lw	a7,28(a1)
    cb2c:	0245a803          	lw	a6,36(a1)
    cb30:	b8010113          	addi	sp,sp,-1152
    cb34:	ffd7f793          	andi	a5,a5,-3
    cb38:	40000713          	li	a4,1024
    cb3c:	46812c23          	sw	s0,1144(sp)
    cb40:	00f11a23          	sh	a5,20(sp)
    cb44:	00058413          	mv	s0,a1
    cb48:	07010793          	addi	a5,sp,112
    cb4c:	00810593          	addi	a1,sp,8
    cb50:	46912a23          	sw	s1,1140(sp)
    cb54:	47212823          	sw	s2,1136(sp)
    cb58:	46112e23          	sw	ra,1148(sp)
    cb5c:	00050913          	mv	s2,a0
    cb60:	07c12623          	sw	t3,108(sp)
    cb64:	00611b23          	sh	t1,22(sp)
    cb68:	03112223          	sw	a7,36(sp)
    cb6c:	03012623          	sw	a6,44(sp)
    cb70:	00f12423          	sw	a5,8(sp)
    cb74:	00f12c23          	sw	a5,24(sp)
    cb78:	00e12823          	sw	a4,16(sp)
    cb7c:	00e12e23          	sw	a4,28(sp)
    cb80:	02012023          	sw	zero,32(sp)
    cb84:	d25fe0ef          	jal	ra,b8a8 <_vfiprintf_r>
    cb88:	00050493          	mv	s1,a0
    cb8c:	02055c63          	bgez	a0,cbc4 <__sbprintf+0xa8>
    cb90:	01415783          	lhu	a5,20(sp)
    cb94:	0407f793          	andi	a5,a5,64
    cb98:	00078863          	beqz	a5,cba8 <__sbprintf+0x8c>
    cb9c:	00c45783          	lhu	a5,12(s0)
    cba0:	0407e793          	ori	a5,a5,64
    cba4:	00f41623          	sh	a5,12(s0)
    cba8:	47c12083          	lw	ra,1148(sp)
    cbac:	47812403          	lw	s0,1144(sp)
    cbb0:	47012903          	lw	s2,1136(sp)
    cbb4:	00048513          	mv	a0,s1
    cbb8:	47412483          	lw	s1,1140(sp)
    cbbc:	48010113          	addi	sp,sp,1152
    cbc0:	00008067          	ret
    cbc4:	00810593          	addi	a1,sp,8
    cbc8:	00090513          	mv	a0,s2
    cbcc:	9f9f60ef          	jal	ra,35c4 <_fflush_r>
    cbd0:	fc0500e3          	beqz	a0,cb90 <__sbprintf+0x74>
    cbd4:	fff00493          	li	s1,-1
    cbd8:	fb9ff06f          	j	cb90 <__sbprintf+0x74>

0000cbdc <_wctomb_r>:
    cbdc:	d201a303          	lw	t1,-736(gp) # 155d8 <__global_locale+0xe0>
    cbe0:	00030067          	jr	t1

0000cbe4 <__ascii_wctomb>:
    cbe4:	02058463          	beqz	a1,cc0c <__ascii_wctomb+0x28>
    cbe8:	0ff00793          	li	a5,255
    cbec:	00c7e863          	bltu	a5,a2,cbfc <__ascii_wctomb+0x18>
    cbf0:	00c58023          	sb	a2,0(a1)
    cbf4:	00100513          	li	a0,1
    cbf8:	00008067          	ret
    cbfc:	08a00793          	li	a5,138
    cc00:	00f52023          	sw	a5,0(a0)
    cc04:	fff00513          	li	a0,-1
    cc08:	00008067          	ret
    cc0c:	00000513          	li	a0,0
    cc10:	00008067          	ret

0000cc14 <_write_r>:
    cc14:	ff010113          	addi	sp,sp,-16
    cc18:	00058713          	mv	a4,a1
    cc1c:	00812423          	sw	s0,8(sp)
    cc20:	00912223          	sw	s1,4(sp)
    cc24:	00060593          	mv	a1,a2
    cc28:	00050413          	mv	s0,a0
    cc2c:	00068613          	mv	a2,a3
    cc30:	00070513          	mv	a0,a4
    cc34:	00112623          	sw	ra,12(sp)
    cc38:	6a01ae23          	sw	zero,1724(gp) # 15f74 <errno>
    cc3c:	000030ef          	jal	ra,fc3c <_write>
    cc40:	fff00793          	li	a5,-1
    cc44:	00f50c63          	beq	a0,a5,cc5c <_write_r+0x48>
    cc48:	00c12083          	lw	ra,12(sp)
    cc4c:	00812403          	lw	s0,8(sp)
    cc50:	00412483          	lw	s1,4(sp)
    cc54:	01010113          	addi	sp,sp,16
    cc58:	00008067          	ret
    cc5c:	6bc1a783          	lw	a5,1724(gp) # 15f74 <errno>
    cc60:	fe0784e3          	beqz	a5,cc48 <_write_r+0x34>
    cc64:	00c12083          	lw	ra,12(sp)
    cc68:	00f42023          	sw	a5,0(s0)
    cc6c:	00812403          	lw	s0,8(sp)
    cc70:	00412483          	lw	s1,4(sp)
    cc74:	01010113          	addi	sp,sp,16
    cc78:	00008067          	ret

0000cc7c <__assert_func>:
    cc7c:	1d81a703          	lw	a4,472(gp) # 15a90 <_impure_ptr>
    cc80:	ff010113          	addi	sp,sp,-16
    cc84:	00068793          	mv	a5,a3
    cc88:	00060813          	mv	a6,a2
    cc8c:	00112623          	sw	ra,12(sp)
    cc90:	00c72883          	lw	a7,12(a4)
    cc94:	00050693          	mv	a3,a0
    cc98:	00058713          	mv	a4,a1
    cc9c:	00078613          	mv	a2,a5
    cca0:	02080063          	beqz	a6,ccc0 <__assert_func+0x44>
    cca4:	000157b7          	lui	a5,0x15
    cca8:	be878793          	addi	a5,a5,-1048 # 14be8 <zeroes.4462+0x10>
    ccac:	000155b7          	lui	a1,0x15
    ccb0:	bf858593          	addi	a1,a1,-1032 # 14bf8 <zeroes.4462+0x20>
    ccb4:	00088513          	mv	a0,a7
    ccb8:	2a0000ef          	jal	ra,cf58 <fiprintf>
    ccbc:	0f1020ef          	jal	ra,f5ac <abort>
    ccc0:	00015837          	lui	a6,0x15
    ccc4:	bf480793          	addi	a5,a6,-1036 # 14bf4 <zeroes.4462+0x1c>
    ccc8:	bf480813          	addi	a6,a6,-1036
    cccc:	fe1ff06f          	j	ccac <__assert_func+0x30>

0000ccd0 <__assert>:
    ccd0:	ff010113          	addi	sp,sp,-16
    ccd4:	00060693          	mv	a3,a2
    ccd8:	00000613          	li	a2,0
    ccdc:	00112623          	sw	ra,12(sp)
    cce0:	f9dff0ef          	jal	ra,cc7c <__assert_func>

0000cce4 <atexit>:
    cce4:	00050593          	mv	a1,a0
    cce8:	00000693          	li	a3,0
    ccec:	00000613          	li	a2,0
    ccf0:	00000513          	li	a0,0
    ccf4:	0d10206f          	j	f5c4 <__register_exitproc>

0000ccf8 <_calloc_r>:
    ccf8:	02c585b3          	mul	a1,a1,a2
    ccfc:	ff010113          	addi	sp,sp,-16
    cd00:	00812423          	sw	s0,8(sp)
    cd04:	00112623          	sw	ra,12(sp)
    cd08:	81cfa0ef          	jal	ra,6d24 <_malloc_r>
    cd0c:	00050413          	mv	s0,a0
    cd10:	02050863          	beqz	a0,cd40 <_calloc_r+0x48>
    cd14:	ffc52603          	lw	a2,-4(a0)
    cd18:	02400713          	li	a4,36
    cd1c:	ffc67613          	andi	a2,a2,-4
    cd20:	ffc60613          	addi	a2,a2,-4
    cd24:	06c76063          	bltu	a4,a2,cd84 <_calloc_r+0x8c>
    cd28:	01300693          	li	a3,19
    cd2c:	00050793          	mv	a5,a0
    cd30:	02c6e263          	bltu	a3,a2,cd54 <_calloc_r+0x5c>
    cd34:	0007a023          	sw	zero,0(a5)
    cd38:	0007a223          	sw	zero,4(a5)
    cd3c:	0007a423          	sw	zero,8(a5)
    cd40:	00c12083          	lw	ra,12(sp)
    cd44:	00040513          	mv	a0,s0
    cd48:	00812403          	lw	s0,8(sp)
    cd4c:	01010113          	addi	sp,sp,16
    cd50:	00008067          	ret
    cd54:	00052023          	sw	zero,0(a0)
    cd58:	00052223          	sw	zero,4(a0)
    cd5c:	01b00793          	li	a5,27
    cd60:	04c7f063          	bgeu	a5,a2,cda0 <_calloc_r+0xa8>
    cd64:	00052423          	sw	zero,8(a0)
    cd68:	00052623          	sw	zero,12(a0)
    cd6c:	01050793          	addi	a5,a0,16
    cd70:	fce612e3          	bne	a2,a4,cd34 <_calloc_r+0x3c>
    cd74:	00052823          	sw	zero,16(a0)
    cd78:	01850793          	addi	a5,a0,24
    cd7c:	00052a23          	sw	zero,20(a0)
    cd80:	fb5ff06f          	j	cd34 <_calloc_r+0x3c>
    cd84:	00000593          	li	a1,0
    cd88:	f4cf30ef          	jal	ra,4d4 <memset>
    cd8c:	00c12083          	lw	ra,12(sp)
    cd90:	00040513          	mv	a0,s0
    cd94:	00812403          	lw	s0,8(sp)
    cd98:	01010113          	addi	sp,sp,16
    cd9c:	00008067          	ret
    cda0:	00850793          	addi	a5,a0,8
    cda4:	f91ff06f          	j	cd34 <_calloc_r+0x3c>

0000cda8 <_close_r>:
    cda8:	ff010113          	addi	sp,sp,-16
    cdac:	00812423          	sw	s0,8(sp)
    cdb0:	00912223          	sw	s1,4(sp)
    cdb4:	00050413          	mv	s0,a0
    cdb8:	00058513          	mv	a0,a1
    cdbc:	00112623          	sw	ra,12(sp)
    cdc0:	6a01ae23          	sw	zero,1724(gp) # 15f74 <errno>
    cdc4:	3c5020ef          	jal	ra,f988 <_close>
    cdc8:	fff00793          	li	a5,-1
    cdcc:	00f50c63          	beq	a0,a5,cde4 <_close_r+0x3c>
    cdd0:	00c12083          	lw	ra,12(sp)
    cdd4:	00812403          	lw	s0,8(sp)
    cdd8:	00412483          	lw	s1,4(sp)
    cddc:	01010113          	addi	sp,sp,16
    cde0:	00008067          	ret
    cde4:	6bc1a783          	lw	a5,1724(gp) # 15f74 <errno>
    cde8:	fe0784e3          	beqz	a5,cdd0 <_close_r+0x28>
    cdec:	00c12083          	lw	ra,12(sp)
    cdf0:	00f42023          	sw	a5,0(s0)
    cdf4:	00812403          	lw	s0,8(sp)
    cdf8:	00412483          	lw	s1,4(sp)
    cdfc:	01010113          	addi	sp,sp,16
    ce00:	00008067          	ret

0000ce04 <_fclose_r>:
    ce04:	ff010113          	addi	sp,sp,-16
    ce08:	00112623          	sw	ra,12(sp)
    ce0c:	00812423          	sw	s0,8(sp)
    ce10:	00912223          	sw	s1,4(sp)
    ce14:	01212023          	sw	s2,0(sp)
    ce18:	02058063          	beqz	a1,ce38 <_fclose_r+0x34>
    ce1c:	00058413          	mv	s0,a1
    ce20:	00050493          	mv	s1,a0
    ce24:	00050663          	beqz	a0,ce30 <_fclose_r+0x2c>
    ce28:	03852783          	lw	a5,56(a0)
    ce2c:	0a078c63          	beqz	a5,cee4 <_fclose_r+0xe0>
    ce30:	00c41783          	lh	a5,12(s0)
    ce34:	02079263          	bnez	a5,ce58 <_fclose_r+0x54>
    ce38:	00c12083          	lw	ra,12(sp)
    ce3c:	00812403          	lw	s0,8(sp)
    ce40:	00000913          	li	s2,0
    ce44:	00412483          	lw	s1,4(sp)
    ce48:	00090513          	mv	a0,s2
    ce4c:	00012903          	lw	s2,0(sp)
    ce50:	01010113          	addi	sp,sp,16
    ce54:	00008067          	ret
    ce58:	00040593          	mv	a1,s0
    ce5c:	00048513          	mv	a0,s1
    ce60:	d08f60ef          	jal	ra,3368 <__sflush_r>
    ce64:	02c42783          	lw	a5,44(s0)
    ce68:	00050913          	mv	s2,a0
    ce6c:	00078a63          	beqz	a5,ce80 <_fclose_r+0x7c>
    ce70:	01c42583          	lw	a1,28(s0)
    ce74:	00048513          	mv	a0,s1
    ce78:	000780e7          	jalr	a5
    ce7c:	06054c63          	bltz	a0,cef4 <_fclose_r+0xf0>
    ce80:	00c45783          	lhu	a5,12(s0)
    ce84:	0807f793          	andi	a5,a5,128
    ce88:	06079e63          	bnez	a5,cf04 <_fclose_r+0x100>
    ce8c:	03042583          	lw	a1,48(s0)
    ce90:	00058c63          	beqz	a1,cea8 <_fclose_r+0xa4>
    ce94:	04040793          	addi	a5,s0,64
    ce98:	00f58663          	beq	a1,a5,cea4 <_fclose_r+0xa0>
    ce9c:	00048513          	mv	a0,s1
    cea0:	c8df60ef          	jal	ra,3b2c <_free_r>
    cea4:	02042823          	sw	zero,48(s0)
    cea8:	04442583          	lw	a1,68(s0)
    ceac:	00058863          	beqz	a1,cebc <_fclose_r+0xb8>
    ceb0:	00048513          	mv	a0,s1
    ceb4:	c79f60ef          	jal	ra,3b2c <_free_r>
    ceb8:	04042223          	sw	zero,68(s0)
    cebc:	ab5f60ef          	jal	ra,3970 <__sfp_lock_acquire>
    cec0:	00041623          	sh	zero,12(s0)
    cec4:	ab1f60ef          	jal	ra,3974 <__sfp_lock_release>
    cec8:	00c12083          	lw	ra,12(sp)
    cecc:	00812403          	lw	s0,8(sp)
    ced0:	00412483          	lw	s1,4(sp)
    ced4:	00090513          	mv	a0,s2
    ced8:	00012903          	lw	s2,0(sp)
    cedc:	01010113          	addi	sp,sp,16
    cee0:	00008067          	ret
    cee4:	a7df60ef          	jal	ra,3960 <__sinit>
    cee8:	00c41783          	lh	a5,12(s0)
    ceec:	f40786e3          	beqz	a5,ce38 <_fclose_r+0x34>
    cef0:	f69ff06f          	j	ce58 <_fclose_r+0x54>
    cef4:	00c45783          	lhu	a5,12(s0)
    cef8:	fff00913          	li	s2,-1
    cefc:	0807f793          	andi	a5,a5,128
    cf00:	f80786e3          	beqz	a5,ce8c <_fclose_r+0x88>
    cf04:	01042583          	lw	a1,16(s0)
    cf08:	00048513          	mv	a0,s1
    cf0c:	c21f60ef          	jal	ra,3b2c <_free_r>
    cf10:	f7dff06f          	j	ce8c <_fclose_r+0x88>

0000cf14 <fclose>:
    cf14:	00050593          	mv	a1,a0
    cf18:	1d81a503          	lw	a0,472(gp) # 15a90 <_impure_ptr>
    cf1c:	ee9ff06f          	j	ce04 <_fclose_r>

0000cf20 <_fiprintf_r>:
    cf20:	fc010113          	addi	sp,sp,-64
    cf24:	02c10313          	addi	t1,sp,44
    cf28:	02d12623          	sw	a3,44(sp)
    cf2c:	00030693          	mv	a3,t1
    cf30:	00112e23          	sw	ra,28(sp)
    cf34:	02e12823          	sw	a4,48(sp)
    cf38:	02f12a23          	sw	a5,52(sp)
    cf3c:	03012c23          	sw	a6,56(sp)
    cf40:	03112e23          	sw	a7,60(sp)
    cf44:	00612623          	sw	t1,12(sp)
    cf48:	961fe0ef          	jal	ra,b8a8 <_vfiprintf_r>
    cf4c:	01c12083          	lw	ra,28(sp)
    cf50:	04010113          	addi	sp,sp,64
    cf54:	00008067          	ret

0000cf58 <fiprintf>:
    cf58:	00050e13          	mv	t3,a0
    cf5c:	fc010113          	addi	sp,sp,-64
    cf60:	1d81a503          	lw	a0,472(gp) # 15a90 <_impure_ptr>
    cf64:	02810313          	addi	t1,sp,40
    cf68:	02c12423          	sw	a2,40(sp)
    cf6c:	02d12623          	sw	a3,44(sp)
    cf70:	00058613          	mv	a2,a1
    cf74:	00030693          	mv	a3,t1
    cf78:	000e0593          	mv	a1,t3
    cf7c:	00112e23          	sw	ra,28(sp)
    cf80:	02e12823          	sw	a4,48(sp)
    cf84:	02f12a23          	sw	a5,52(sp)
    cf88:	03012c23          	sw	a6,56(sp)
    cf8c:	03112e23          	sw	a7,60(sp)
    cf90:	00612623          	sw	t1,12(sp)
    cf94:	915fe0ef          	jal	ra,b8a8 <_vfiprintf_r>
    cf98:	01c12083          	lw	ra,28(sp)
    cf9c:	04010113          	addi	sp,sp,64
    cfa0:	00008067          	ret

0000cfa4 <__fputwc>:
    cfa4:	fd010113          	addi	sp,sp,-48
    cfa8:	02812423          	sw	s0,40(sp)
    cfac:	01312e23          	sw	s3,28(sp)
    cfb0:	01612823          	sw	s6,16(sp)
    cfb4:	02112623          	sw	ra,44(sp)
    cfb8:	02912223          	sw	s1,36(sp)
    cfbc:	03212023          	sw	s2,32(sp)
    cfc0:	01412c23          	sw	s4,24(sp)
    cfc4:	01512a23          	sw	s5,20(sp)
    cfc8:	00050b13          	mv	s6,a0
    cfcc:	00058993          	mv	s3,a1
    cfd0:	00060413          	mv	s0,a2
    cfd4:	b45f90ef          	jal	ra,6b18 <__locale_mb_cur_max>
    cfd8:	00100793          	li	a5,1
    cfdc:	02f51063          	bne	a0,a5,cffc <__fputwc+0x58>
    cfe0:	fff98793          	addi	a5,s3,-1
    cfe4:	0fe00713          	li	a4,254
    cfe8:	00f76a63          	bltu	a4,a5,cffc <__fputwc+0x58>
    cfec:	0ff9f713          	andi	a4,s3,255
    cff0:	00e10623          	sb	a4,12(sp)
    cff4:	00100913          	li	s2,1
    cff8:	02c0006f          	j	d024 <__fputwc+0x80>
    cffc:	05c40693          	addi	a3,s0,92
    d000:	00098613          	mv	a2,s3
    d004:	00c10593          	addi	a1,sp,12
    d008:	000b0513          	mv	a0,s6
    d00c:	4a0020ef          	jal	ra,f4ac <_wcrtomb_r>
    d010:	fff00793          	li	a5,-1
    d014:	00050913          	mv	s2,a0
    d018:	0af50463          	beq	a0,a5,d0c0 <__fputwc+0x11c>
    d01c:	08050e63          	beqz	a0,d0b8 <__fputwc+0x114>
    d020:	00c14703          	lbu	a4,12(sp)
    d024:	00000493          	li	s1,0
    d028:	fff00a13          	li	s4,-1
    d02c:	00a00a93          	li	s5,10
    d030:	0280006f          	j	d058 <__fputwc+0xb4>
    d034:	00042783          	lw	a5,0(s0)
    d038:	00178693          	addi	a3,a5,1
    d03c:	00d42023          	sw	a3,0(s0)
    d040:	00e78023          	sb	a4,0(a5)
    d044:	00148493          	addi	s1,s1,1
    d048:	00c10793          	addi	a5,sp,12
    d04c:	009787b3          	add	a5,a5,s1
    d050:	0724f463          	bgeu	s1,s2,d0b8 <__fputwc+0x114>
    d054:	0007c703          	lbu	a4,0(a5)
    d058:	00842783          	lw	a5,8(s0)
    d05c:	fff78793          	addi	a5,a5,-1
    d060:	00f42423          	sw	a5,8(s0)
    d064:	fc07d8e3          	bgez	a5,d034 <__fputwc+0x90>
    d068:	01842683          	lw	a3,24(s0)
    d06c:	00070593          	mv	a1,a4
    d070:	00040613          	mv	a2,s0
    d074:	000b0513          	mv	a0,s6
    d078:	00d7c463          	blt	a5,a3,d080 <__fputwc+0xdc>
    d07c:	fb571ce3          	bne	a4,s5,d034 <__fputwc+0x90>
    d080:	294020ef          	jal	ra,f314 <__swbuf_r>
    d084:	fd4510e3          	bne	a0,s4,d044 <__fputwc+0xa0>
    d088:	fff00913          	li	s2,-1
    d08c:	02c12083          	lw	ra,44(sp)
    d090:	02812403          	lw	s0,40(sp)
    d094:	02412483          	lw	s1,36(sp)
    d098:	01c12983          	lw	s3,28(sp)
    d09c:	01812a03          	lw	s4,24(sp)
    d0a0:	01412a83          	lw	s5,20(sp)
    d0a4:	01012b03          	lw	s6,16(sp)
    d0a8:	00090513          	mv	a0,s2
    d0ac:	02012903          	lw	s2,32(sp)
    d0b0:	03010113          	addi	sp,sp,48
    d0b4:	00008067          	ret
    d0b8:	00098913          	mv	s2,s3
    d0bc:	fd1ff06f          	j	d08c <__fputwc+0xe8>
    d0c0:	00c45783          	lhu	a5,12(s0)
    d0c4:	0407e793          	ori	a5,a5,64
    d0c8:	00f41623          	sh	a5,12(s0)
    d0cc:	fc1ff06f          	j	d08c <__fputwc+0xe8>

0000d0d0 <_fputwc_r>:
    d0d0:	00c61783          	lh	a5,12(a2)
    d0d4:	01279713          	slli	a4,a5,0x12
    d0d8:	02074063          	bltz	a4,d0f8 <_fputwc_r+0x28>
    d0dc:	06462703          	lw	a4,100(a2)
    d0e0:	000026b7          	lui	a3,0x2
    d0e4:	00d7e7b3          	or	a5,a5,a3
    d0e8:	000026b7          	lui	a3,0x2
    d0ec:	00d76733          	or	a4,a4,a3
    d0f0:	00f61623          	sh	a5,12(a2)
    d0f4:	06e62223          	sw	a4,100(a2)
    d0f8:	eadff06f          	j	cfa4 <__fputwc>

0000d0fc <fputwc>:
    d0fc:	fe010113          	addi	sp,sp,-32
    d100:	00812c23          	sw	s0,24(sp)
    d104:	1d81a403          	lw	s0,472(gp) # 15a90 <_impure_ptr>
    d108:	00112e23          	sw	ra,28(sp)
    d10c:	00058613          	mv	a2,a1
    d110:	00050593          	mv	a1,a0
    d114:	00040663          	beqz	s0,d120 <fputwc+0x24>
    d118:	03842783          	lw	a5,56(s0)
    d11c:	04078063          	beqz	a5,d15c <fputwc+0x60>
    d120:	00c61783          	lh	a5,12(a2)
    d124:	01279713          	slli	a4,a5,0x12
    d128:	02074063          	bltz	a4,d148 <fputwc+0x4c>
    d12c:	06462703          	lw	a4,100(a2)
    d130:	000026b7          	lui	a3,0x2
    d134:	00d7e7b3          	or	a5,a5,a3
    d138:	000026b7          	lui	a3,0x2
    d13c:	00d76733          	or	a4,a4,a3
    d140:	00f61623          	sh	a5,12(a2)
    d144:	06e62223          	sw	a4,100(a2)
    d148:	00040513          	mv	a0,s0
    d14c:	01812403          	lw	s0,24(sp)
    d150:	01c12083          	lw	ra,28(sp)
    d154:	02010113          	addi	sp,sp,32
    d158:	e4dff06f          	j	cfa4 <__fputwc>
    d15c:	00a12423          	sw	a0,8(sp)
    d160:	00040513          	mv	a0,s0
    d164:	00c12623          	sw	a2,12(sp)
    d168:	ff8f60ef          	jal	ra,3960 <__sinit>
    d16c:	00c12603          	lw	a2,12(sp)
    d170:	00812583          	lw	a1,8(sp)
    d174:	fadff06f          	j	d120 <fputwc+0x24>

0000d178 <_fstat_r>:
    d178:	ff010113          	addi	sp,sp,-16
    d17c:	00058713          	mv	a4,a1
    d180:	00812423          	sw	s0,8(sp)
    d184:	00912223          	sw	s1,4(sp)
    d188:	00050413          	mv	s0,a0
    d18c:	00060593          	mv	a1,a2
    d190:	00070513          	mv	a0,a4
    d194:	00112623          	sw	ra,12(sp)
    d198:	6a01ae23          	sw	zero,1724(gp) # 15f74 <errno>
    d19c:	089020ef          	jal	ra,fa24 <_fstat>
    d1a0:	fff00793          	li	a5,-1
    d1a4:	00f50c63          	beq	a0,a5,d1bc <_fstat_r+0x44>
    d1a8:	00c12083          	lw	ra,12(sp)
    d1ac:	00812403          	lw	s0,8(sp)
    d1b0:	00412483          	lw	s1,4(sp)
    d1b4:	01010113          	addi	sp,sp,16
    d1b8:	00008067          	ret
    d1bc:	6bc1a783          	lw	a5,1724(gp) # 15f74 <errno>
    d1c0:	fe0784e3          	beqz	a5,d1a8 <_fstat_r+0x30>
    d1c4:	00c12083          	lw	ra,12(sp)
    d1c8:	00f42023          	sw	a5,0(s0)
    d1cc:	00812403          	lw	s0,8(sp)
    d1d0:	00412483          	lw	s1,4(sp)
    d1d4:	01010113          	addi	sp,sp,16
    d1d8:	00008067          	ret

0000d1dc <__sfvwrite_r>:
    d1dc:	00862783          	lw	a5,8(a2)
    d1e0:	30078863          	beqz	a5,d4f0 <__sfvwrite_r+0x314>
    d1e4:	00c5d783          	lhu	a5,12(a1)
    d1e8:	fd010113          	addi	sp,sp,-48
    d1ec:	02812423          	sw	s0,40(sp)
    d1f0:	01412c23          	sw	s4,24(sp)
    d1f4:	01512a23          	sw	s5,20(sp)
    d1f8:	02112623          	sw	ra,44(sp)
    d1fc:	02912223          	sw	s1,36(sp)
    d200:	03212023          	sw	s2,32(sp)
    d204:	01312e23          	sw	s3,28(sp)
    d208:	01612823          	sw	s6,16(sp)
    d20c:	01712623          	sw	s7,12(sp)
    d210:	01812423          	sw	s8,8(sp)
    d214:	01912223          	sw	s9,4(sp)
    d218:	01a12023          	sw	s10,0(sp)
    d21c:	0087f713          	andi	a4,a5,8
    d220:	00060a13          	mv	s4,a2
    d224:	00050a93          	mv	s5,a0
    d228:	00058413          	mv	s0,a1
    d22c:	08070663          	beqz	a4,d2b8 <__sfvwrite_r+0xdc>
    d230:	0105a703          	lw	a4,16(a1)
    d234:	08070263          	beqz	a4,d2b8 <__sfvwrite_r+0xdc>
    d238:	0027f713          	andi	a4,a5,2
    d23c:	000a2483          	lw	s1,0(s4)
    d240:	08070c63          	beqz	a4,d2d8 <__sfvwrite_r+0xfc>
    d244:	02442783          	lw	a5,36(s0)
    d248:	01c42583          	lw	a1,28(s0)
    d24c:	80000b37          	lui	s6,0x80000
    d250:	00000993          	li	s3,0
    d254:	00000913          	li	s2,0
    d258:	c00b4b13          	xori	s6,s6,-1024
    d25c:	00098613          	mv	a2,s3
    d260:	000a8513          	mv	a0,s5
    d264:	04090263          	beqz	s2,d2a8 <__sfvwrite_r+0xcc>
    d268:	00090693          	mv	a3,s2
    d26c:	012b7463          	bgeu	s6,s2,d274 <__sfvwrite_r+0x98>
    d270:	000b0693          	mv	a3,s6
    d274:	000780e7          	jalr	a5
    d278:	26a05263          	blez	a0,d4dc <__sfvwrite_r+0x300>
    d27c:	008a2783          	lw	a5,8(s4)
    d280:	00a989b3          	add	s3,s3,a0
    d284:	40a90933          	sub	s2,s2,a0
    d288:	40a78533          	sub	a0,a5,a0
    d28c:	00aa2423          	sw	a0,8(s4)
    d290:	20050063          	beqz	a0,d490 <__sfvwrite_r+0x2b4>
    d294:	02442783          	lw	a5,36(s0)
    d298:	01c42583          	lw	a1,28(s0)
    d29c:	00098613          	mv	a2,s3
    d2a0:	000a8513          	mv	a0,s5
    d2a4:	fc0912e3          	bnez	s2,d268 <__sfvwrite_r+0x8c>
    d2a8:	0004a983          	lw	s3,0(s1)
    d2ac:	0044a903          	lw	s2,4(s1)
    d2b0:	00848493          	addi	s1,s1,8
    d2b4:	fa9ff06f          	j	d25c <__sfvwrite_r+0x80>
    d2b8:	00040593          	mv	a1,s0
    d2bc:	000a8513          	mv	a0,s5
    d2c0:	e2df50ef          	jal	ra,30ec <__swsetup_r>
    d2c4:	3a051463          	bnez	a0,d66c <__sfvwrite_r+0x490>
    d2c8:	00c45783          	lhu	a5,12(s0)
    d2cc:	000a2483          	lw	s1,0(s4)
    d2d0:	0027f713          	andi	a4,a5,2
    d2d4:	f60718e3          	bnez	a4,d244 <__sfvwrite_r+0x68>
    d2d8:	0017f713          	andi	a4,a5,1
    d2dc:	12071663          	bnez	a4,d408 <__sfvwrite_r+0x22c>
    d2e0:	00842c83          	lw	s9,8(s0)
    d2e4:	00042503          	lw	a0,0(s0)
    d2e8:	80000b37          	lui	s6,0x80000
    d2ec:	ffeb4b93          	xori	s7,s6,-2
    d2f0:	00000c13          	li	s8,0
    d2f4:	00000913          	li	s2,0
    d2f8:	fffb4b13          	not	s6,s6
    d2fc:	0e090e63          	beqz	s2,d3f8 <__sfvwrite_r+0x21c>
    d300:	2007f713          	andi	a4,a5,512
    d304:	24070863          	beqz	a4,d554 <__sfvwrite_r+0x378>
    d308:	000c8d13          	mv	s10,s9
    d30c:	2d996e63          	bltu	s2,s9,d5e8 <__sfvwrite_r+0x40c>
    d310:	4807f713          	andi	a4,a5,1152
    d314:	08070a63          	beqz	a4,d3a8 <__sfvwrite_r+0x1cc>
    d318:	01442983          	lw	s3,20(s0)
    d31c:	01042583          	lw	a1,16(s0)
    d320:	00190713          	addi	a4,s2,1
    d324:	00199693          	slli	a3,s3,0x1
    d328:	013686b3          	add	a3,a3,s3
    d32c:	01f6d993          	srli	s3,a3,0x1f
    d330:	40b50d33          	sub	s10,a0,a1
    d334:	00d989b3          	add	s3,s3,a3
    d338:	4019d993          	srai	s3,s3,0x1
    d33c:	01a70733          	add	a4,a4,s10
    d340:	00098613          	mv	a2,s3
    d344:	00e9f663          	bgeu	s3,a4,d350 <__sfvwrite_r+0x174>
    d348:	00070993          	mv	s3,a4
    d34c:	00070613          	mv	a2,a4
    d350:	4007f793          	andi	a5,a5,1024
    d354:	2c078663          	beqz	a5,d620 <__sfvwrite_r+0x444>
    d358:	00060593          	mv	a1,a2
    d35c:	000a8513          	mv	a0,s5
    d360:	9c5f90ef          	jal	ra,6d24 <_malloc_r>
    d364:	00050c93          	mv	s9,a0
    d368:	2e050a63          	beqz	a0,d65c <__sfvwrite_r+0x480>
    d36c:	01042583          	lw	a1,16(s0)
    d370:	000d0613          	mv	a2,s10
    d374:	3c4000ef          	jal	ra,d738 <memcpy>
    d378:	00c45783          	lhu	a5,12(s0)
    d37c:	b7f7f793          	andi	a5,a5,-1153
    d380:	0807e793          	ori	a5,a5,128
    d384:	00f41623          	sh	a5,12(s0)
    d388:	01ac8533          	add	a0,s9,s10
    d38c:	41a987b3          	sub	a5,s3,s10
    d390:	01942823          	sw	s9,16(s0)
    d394:	00a42023          	sw	a0,0(s0)
    d398:	01342a23          	sw	s3,20(s0)
    d39c:	00090c93          	mv	s9,s2
    d3a0:	00f42423          	sw	a5,8(s0)
    d3a4:	00090d13          	mv	s10,s2
    d3a8:	000d0613          	mv	a2,s10
    d3ac:	000c0593          	mv	a1,s8
    d3b0:	4a4000ef          	jal	ra,d854 <memmove>
    d3b4:	00842703          	lw	a4,8(s0)
    d3b8:	00042783          	lw	a5,0(s0)
    d3bc:	00090993          	mv	s3,s2
    d3c0:	41970cb3          	sub	s9,a4,s9
    d3c4:	01a787b3          	add	a5,a5,s10
    d3c8:	01942423          	sw	s9,8(s0)
    d3cc:	00f42023          	sw	a5,0(s0)
    d3d0:	00000913          	li	s2,0
    d3d4:	008a2603          	lw	a2,8(s4)
    d3d8:	013c0c33          	add	s8,s8,s3
    d3dc:	413609b3          	sub	s3,a2,s3
    d3e0:	013a2423          	sw	s3,8(s4)
    d3e4:	0a098663          	beqz	s3,d490 <__sfvwrite_r+0x2b4>
    d3e8:	00842c83          	lw	s9,8(s0)
    d3ec:	00042503          	lw	a0,0(s0)
    d3f0:	00c45783          	lhu	a5,12(s0)
    d3f4:	f00916e3          	bnez	s2,d300 <__sfvwrite_r+0x124>
    d3f8:	0004ac03          	lw	s8,0(s1)
    d3fc:	0044a903          	lw	s2,4(s1)
    d400:	00848493          	addi	s1,s1,8
    d404:	ef9ff06f          	j	d2fc <__sfvwrite_r+0x120>
    d408:	00000b13          	li	s6,0
    d40c:	00000513          	li	a0,0
    d410:	00000c13          	li	s8,0
    d414:	00000993          	li	s3,0
    d418:	0e098063          	beqz	s3,d4f8 <__sfvwrite_r+0x31c>
    d41c:	0e050663          	beqz	a0,d508 <__sfvwrite_r+0x32c>
    d420:	000b0793          	mv	a5,s6
    d424:	00098b93          	mv	s7,s3
    d428:	0137f463          	bgeu	a5,s3,d430 <__sfvwrite_r+0x254>
    d42c:	00078b93          	mv	s7,a5
    d430:	00042503          	lw	a0,0(s0)
    d434:	01042783          	lw	a5,16(s0)
    d438:	01442683          	lw	a3,20(s0)
    d43c:	00a7f863          	bgeu	a5,a0,d44c <__sfvwrite_r+0x270>
    d440:	00842903          	lw	s2,8(s0)
    d444:	01268933          	add	s2,a3,s2
    d448:	0f794063          	blt	s2,s7,d528 <__sfvwrite_r+0x34c>
    d44c:	1adbc463          	blt	s7,a3,d5f4 <__sfvwrite_r+0x418>
    d450:	02442783          	lw	a5,36(s0)
    d454:	01c42583          	lw	a1,28(s0)
    d458:	000c0613          	mv	a2,s8
    d45c:	000a8513          	mv	a0,s5
    d460:	000780e7          	jalr	a5
    d464:	00050913          	mv	s2,a0
    d468:	06a05a63          	blez	a0,d4dc <__sfvwrite_r+0x300>
    d46c:	412b0b33          	sub	s6,s6,s2
    d470:	00100513          	li	a0,1
    d474:	040b0c63          	beqz	s6,d4cc <__sfvwrite_r+0x2f0>
    d478:	008a2603          	lw	a2,8(s4)
    d47c:	012c0c33          	add	s8,s8,s2
    d480:	412989b3          	sub	s3,s3,s2
    d484:	41260933          	sub	s2,a2,s2
    d488:	012a2423          	sw	s2,8(s4)
    d48c:	f80916e3          	bnez	s2,d418 <__sfvwrite_r+0x23c>
    d490:	00000513          	li	a0,0
    d494:	02c12083          	lw	ra,44(sp)
    d498:	02812403          	lw	s0,40(sp)
    d49c:	02412483          	lw	s1,36(sp)
    d4a0:	02012903          	lw	s2,32(sp)
    d4a4:	01c12983          	lw	s3,28(sp)
    d4a8:	01812a03          	lw	s4,24(sp)
    d4ac:	01412a83          	lw	s5,20(sp)
    d4b0:	01012b03          	lw	s6,16(sp)
    d4b4:	00c12b83          	lw	s7,12(sp)
    d4b8:	00812c03          	lw	s8,8(sp)
    d4bc:	00412c83          	lw	s9,4(sp)
    d4c0:	00012d03          	lw	s10,0(sp)
    d4c4:	03010113          	addi	sp,sp,48
    d4c8:	00008067          	ret
    d4cc:	00040593          	mv	a1,s0
    d4d0:	000a8513          	mv	a0,s5
    d4d4:	8f0f60ef          	jal	ra,35c4 <_fflush_r>
    d4d8:	fa0500e3          	beqz	a0,d478 <__sfvwrite_r+0x29c>
    d4dc:	00c41783          	lh	a5,12(s0)
    d4e0:	0407e793          	ori	a5,a5,64
    d4e4:	00f41623          	sh	a5,12(s0)
    d4e8:	fff00513          	li	a0,-1
    d4ec:	fa9ff06f          	j	d494 <__sfvwrite_r+0x2b8>
    d4f0:	00000513          	li	a0,0
    d4f4:	00008067          	ret
    d4f8:	0044a983          	lw	s3,4(s1)
    d4fc:	0004ac03          	lw	s8,0(s1)
    d500:	00848493          	addi	s1,s1,8
    d504:	fe098ae3          	beqz	s3,d4f8 <__sfvwrite_r+0x31c>
    d508:	00098613          	mv	a2,s3
    d50c:	00a00593          	li	a1,10
    d510:	000c0513          	mv	a0,s8
    d514:	818fa0ef          	jal	ra,752c <memchr>
    d518:	12050c63          	beqz	a0,d650 <__sfvwrite_r+0x474>
    d51c:	00150513          	addi	a0,a0,1
    d520:	41850b33          	sub	s6,a0,s8
    d524:	efdff06f          	j	d420 <__sfvwrite_r+0x244>
    d528:	000c0593          	mv	a1,s8
    d52c:	00090613          	mv	a2,s2
    d530:	324000ef          	jal	ra,d854 <memmove>
    d534:	00042783          	lw	a5,0(s0)
    d538:	00040593          	mv	a1,s0
    d53c:	000a8513          	mv	a0,s5
    d540:	012787b3          	add	a5,a5,s2
    d544:	00f42023          	sw	a5,0(s0)
    d548:	87cf60ef          	jal	ra,35c4 <_fflush_r>
    d54c:	f20500e3          	beqz	a0,d46c <__sfvwrite_r+0x290>
    d550:	f8dff06f          	j	d4dc <__sfvwrite_r+0x300>
    d554:	01042783          	lw	a5,16(s0)
    d558:	04a7e263          	bltu	a5,a0,d59c <__sfvwrite_r+0x3c0>
    d55c:	01442783          	lw	a5,20(s0)
    d560:	02f96e63          	bltu	s2,a5,d59c <__sfvwrite_r+0x3c0>
    d564:	00090693          	mv	a3,s2
    d568:	012bf463          	bgeu	s7,s2,d570 <__sfvwrite_r+0x394>
    d56c:	000b0693          	mv	a3,s6
    d570:	02f6c6b3          	div	a3,a3,a5
    d574:	02442703          	lw	a4,36(s0)
    d578:	01c42583          	lw	a1,28(s0)
    d57c:	000c0613          	mv	a2,s8
    d580:	000a8513          	mv	a0,s5
    d584:	02f686b3          	mul	a3,a3,a5
    d588:	000700e7          	jalr	a4
    d58c:	00050993          	mv	s3,a0
    d590:	f4a056e3          	blez	a0,d4dc <__sfvwrite_r+0x300>
    d594:	41390933          	sub	s2,s2,s3
    d598:	e3dff06f          	j	d3d4 <__sfvwrite_r+0x1f8>
    d59c:	000c8993          	mv	s3,s9
    d5a0:	01997463          	bgeu	s2,s9,d5a8 <__sfvwrite_r+0x3cc>
    d5a4:	00090993          	mv	s3,s2
    d5a8:	00098613          	mv	a2,s3
    d5ac:	000c0593          	mv	a1,s8
    d5b0:	2a4000ef          	jal	ra,d854 <memmove>
    d5b4:	00842783          	lw	a5,8(s0)
    d5b8:	00042703          	lw	a4,0(s0)
    d5bc:	413787b3          	sub	a5,a5,s3
    d5c0:	01370733          	add	a4,a4,s3
    d5c4:	00f42423          	sw	a5,8(s0)
    d5c8:	00e42023          	sw	a4,0(s0)
    d5cc:	fc0794e3          	bnez	a5,d594 <__sfvwrite_r+0x3b8>
    d5d0:	00040593          	mv	a1,s0
    d5d4:	000a8513          	mv	a0,s5
    d5d8:	fedf50ef          	jal	ra,35c4 <_fflush_r>
    d5dc:	f00510e3          	bnez	a0,d4dc <__sfvwrite_r+0x300>
    d5e0:	41390933          	sub	s2,s2,s3
    d5e4:	df1ff06f          	j	d3d4 <__sfvwrite_r+0x1f8>
    d5e8:	00090c93          	mv	s9,s2
    d5ec:	00090d13          	mv	s10,s2
    d5f0:	db9ff06f          	j	d3a8 <__sfvwrite_r+0x1cc>
    d5f4:	000b8613          	mv	a2,s7
    d5f8:	000c0593          	mv	a1,s8
    d5fc:	258000ef          	jal	ra,d854 <memmove>
    d600:	00842783          	lw	a5,8(s0)
    d604:	00042603          	lw	a2,0(s0)
    d608:	000b8913          	mv	s2,s7
    d60c:	417787b3          	sub	a5,a5,s7
    d610:	01760633          	add	a2,a2,s7
    d614:	00f42423          	sw	a5,8(s0)
    d618:	00c42023          	sw	a2,0(s0)
    d61c:	e51ff06f          	j	d46c <__sfvwrite_r+0x290>
    d620:	000a8513          	mv	a0,s5
    d624:	3b8000ef          	jal	ra,d9dc <_realloc_r>
    d628:	00050c93          	mv	s9,a0
    d62c:	d4051ee3          	bnez	a0,d388 <__sfvwrite_r+0x1ac>
    d630:	01042583          	lw	a1,16(s0)
    d634:	000a8513          	mv	a0,s5
    d638:	cf4f60ef          	jal	ra,3b2c <_free_r>
    d63c:	00c41783          	lh	a5,12(s0)
    d640:	00c00713          	li	a4,12
    d644:	00eaa023          	sw	a4,0(s5)
    d648:	f7f7f793          	andi	a5,a5,-129
    d64c:	e95ff06f          	j	d4e0 <__sfvwrite_r+0x304>
    d650:	00198793          	addi	a5,s3,1
    d654:	00078b13          	mv	s6,a5
    d658:	dcdff06f          	j	d424 <__sfvwrite_r+0x248>
    d65c:	00c00713          	li	a4,12
    d660:	00c41783          	lh	a5,12(s0)
    d664:	00eaa023          	sw	a4,0(s5)
    d668:	e79ff06f          	j	d4e0 <__sfvwrite_r+0x304>
    d66c:	fff00513          	li	a0,-1
    d670:	e25ff06f          	j	d494 <__sfvwrite_r+0x2b8>

0000d674 <_isatty_r>:
    d674:	ff010113          	addi	sp,sp,-16
    d678:	00812423          	sw	s0,8(sp)
    d67c:	00912223          	sw	s1,4(sp)
    d680:	00050413          	mv	s0,a0
    d684:	00058513          	mv	a0,a1
    d688:	00112623          	sw	ra,12(sp)
    d68c:	6a01ae23          	sw	zero,1724(gp) # 15f74 <errno>
    d690:	40c020ef          	jal	ra,fa9c <_isatty>
    d694:	fff00793          	li	a5,-1
    d698:	00f50c63          	beq	a0,a5,d6b0 <_isatty_r+0x3c>
    d69c:	00c12083          	lw	ra,12(sp)
    d6a0:	00812403          	lw	s0,8(sp)
    d6a4:	00412483          	lw	s1,4(sp)
    d6a8:	01010113          	addi	sp,sp,16
    d6ac:	00008067          	ret
    d6b0:	6bc1a783          	lw	a5,1724(gp) # 15f74 <errno>
    d6b4:	fe0784e3          	beqz	a5,d69c <_isatty_r+0x28>
    d6b8:	00c12083          	lw	ra,12(sp)
    d6bc:	00f42023          	sw	a5,0(s0)
    d6c0:	00812403          	lw	s0,8(sp)
    d6c4:	00412483          	lw	s1,4(sp)
    d6c8:	01010113          	addi	sp,sp,16
    d6cc:	00008067          	ret

0000d6d0 <_lseek_r>:
    d6d0:	ff010113          	addi	sp,sp,-16
    d6d4:	00058713          	mv	a4,a1
    d6d8:	00812423          	sw	s0,8(sp)
    d6dc:	00912223          	sw	s1,4(sp)
    d6e0:	00060593          	mv	a1,a2
    d6e4:	00050413          	mv	s0,a0
    d6e8:	00068613          	mv	a2,a3
    d6ec:	00070513          	mv	a0,a4
    d6f0:	00112623          	sw	ra,12(sp)
    d6f4:	6a01ae23          	sw	zero,1724(gp) # 15f74 <errno>
    d6f8:	408020ef          	jal	ra,fb00 <_lseek>
    d6fc:	fff00793          	li	a5,-1
    d700:	00f50c63          	beq	a0,a5,d718 <_lseek_r+0x48>
    d704:	00c12083          	lw	ra,12(sp)
    d708:	00812403          	lw	s0,8(sp)
    d70c:	00412483          	lw	s1,4(sp)
    d710:	01010113          	addi	sp,sp,16
    d714:	00008067          	ret
    d718:	6bc1a783          	lw	a5,1724(gp) # 15f74 <errno>
    d71c:	fe0784e3          	beqz	a5,d704 <_lseek_r+0x34>
    d720:	00c12083          	lw	ra,12(sp)
    d724:	00f42023          	sw	a5,0(s0)
    d728:	00812403          	lw	s0,8(sp)
    d72c:	00412483          	lw	s1,4(sp)
    d730:	01010113          	addi	sp,sp,16
    d734:	00008067          	ret

0000d738 <memcpy>:
    d738:	00a5c7b3          	xor	a5,a1,a0
    d73c:	0037f793          	andi	a5,a5,3
    d740:	00c508b3          	add	a7,a0,a2
    d744:	06079263          	bnez	a5,d7a8 <memcpy+0x70>
    d748:	00300793          	li	a5,3
    d74c:	04c7fe63          	bgeu	a5,a2,d7a8 <memcpy+0x70>
    d750:	00357793          	andi	a5,a0,3
    d754:	00050713          	mv	a4,a0
    d758:	06079863          	bnez	a5,d7c8 <memcpy+0x90>
    d75c:	ffc8f613          	andi	a2,a7,-4
    d760:	fe060793          	addi	a5,a2,-32
    d764:	08f76c63          	bltu	a4,a5,d7fc <memcpy+0xc4>
    d768:	02c77c63          	bgeu	a4,a2,d7a0 <memcpy+0x68>
    d76c:	00058693          	mv	a3,a1
    d770:	00070793          	mv	a5,a4
    d774:	0006a803          	lw	a6,0(a3) # 2000 <_vfprintf_r+0x19c4>
    d778:	00478793          	addi	a5,a5,4
    d77c:	00468693          	addi	a3,a3,4
    d780:	ff07ae23          	sw	a6,-4(a5)
    d784:	fec7e8e3          	bltu	a5,a2,d774 <memcpy+0x3c>
    d788:	fff60793          	addi	a5,a2,-1
    d78c:	40e787b3          	sub	a5,a5,a4
    d790:	ffc7f793          	andi	a5,a5,-4
    d794:	00478793          	addi	a5,a5,4
    d798:	00f70733          	add	a4,a4,a5
    d79c:	00f585b3          	add	a1,a1,a5
    d7a0:	01176863          	bltu	a4,a7,d7b0 <memcpy+0x78>
    d7a4:	00008067          	ret
    d7a8:	00050713          	mv	a4,a0
    d7ac:	ff157ce3          	bgeu	a0,a7,d7a4 <memcpy+0x6c>
    d7b0:	0005c783          	lbu	a5,0(a1)
    d7b4:	00170713          	addi	a4,a4,1
    d7b8:	00158593          	addi	a1,a1,1
    d7bc:	fef70fa3          	sb	a5,-1(a4)
    d7c0:	ff1768e3          	bltu	a4,a7,d7b0 <memcpy+0x78>
    d7c4:	00008067          	ret
    d7c8:	0005c683          	lbu	a3,0(a1)
    d7cc:	00170713          	addi	a4,a4,1
    d7d0:	00377793          	andi	a5,a4,3
    d7d4:	fed70fa3          	sb	a3,-1(a4)
    d7d8:	00158593          	addi	a1,a1,1
    d7dc:	f80780e3          	beqz	a5,d75c <memcpy+0x24>
    d7e0:	0005c683          	lbu	a3,0(a1)
    d7e4:	00170713          	addi	a4,a4,1
    d7e8:	00377793          	andi	a5,a4,3
    d7ec:	fed70fa3          	sb	a3,-1(a4)
    d7f0:	00158593          	addi	a1,a1,1
    d7f4:	fc079ae3          	bnez	a5,d7c8 <memcpy+0x90>
    d7f8:	f65ff06f          	j	d75c <memcpy+0x24>
    d7fc:	0045a683          	lw	a3,4(a1)
    d800:	0005a283          	lw	t0,0(a1)
    d804:	0085af83          	lw	t6,8(a1)
    d808:	00c5af03          	lw	t5,12(a1)
    d80c:	0105ae83          	lw	t4,16(a1)
    d810:	0145ae03          	lw	t3,20(a1)
    d814:	0185a303          	lw	t1,24(a1)
    d818:	01c5a803          	lw	a6,28(a1)
    d81c:	00d72223          	sw	a3,4(a4)
    d820:	0205a683          	lw	a3,32(a1)
    d824:	00572023          	sw	t0,0(a4)
    d828:	01f72423          	sw	t6,8(a4)
    d82c:	01e72623          	sw	t5,12(a4)
    d830:	01d72823          	sw	t4,16(a4)
    d834:	01c72a23          	sw	t3,20(a4)
    d838:	00672c23          	sw	t1,24(a4)
    d83c:	01072e23          	sw	a6,28(a4)
    d840:	02d72023          	sw	a3,32(a4)
    d844:	02470713          	addi	a4,a4,36
    d848:	02458593          	addi	a1,a1,36
    d84c:	faf768e3          	bltu	a4,a5,d7fc <memcpy+0xc4>
    d850:	f19ff06f          	j	d768 <memcpy+0x30>

0000d854 <memmove>:
    d854:	02a5f663          	bgeu	a1,a0,d880 <memmove+0x2c>
    d858:	00c587b3          	add	a5,a1,a2
    d85c:	02f57263          	bgeu	a0,a5,d880 <memmove+0x2c>
    d860:	00c50733          	add	a4,a0,a2
    d864:	0e060a63          	beqz	a2,d958 <memmove+0x104>
    d868:	fff7c683          	lbu	a3,-1(a5)
    d86c:	fff78793          	addi	a5,a5,-1
    d870:	fff70713          	addi	a4,a4,-1
    d874:	00d70023          	sb	a3,0(a4)
    d878:	fef598e3          	bne	a1,a5,d868 <memmove+0x14>
    d87c:	00008067          	ret
    d880:	00f00793          	li	a5,15
    d884:	02c7e863          	bltu	a5,a2,d8b4 <memmove+0x60>
    d888:	00050793          	mv	a5,a0
    d88c:	fff60693          	addi	a3,a2,-1
    d890:	0c060c63          	beqz	a2,d968 <memmove+0x114>
    d894:	00168693          	addi	a3,a3,1
    d898:	00d786b3          	add	a3,a5,a3
    d89c:	0005c703          	lbu	a4,0(a1)
    d8a0:	00178793          	addi	a5,a5,1
    d8a4:	00158593          	addi	a1,a1,1
    d8a8:	fee78fa3          	sb	a4,-1(a5)
    d8ac:	fed798e3          	bne	a5,a3,d89c <memmove+0x48>
    d8b0:	00008067          	ret
    d8b4:	00a5e7b3          	or	a5,a1,a0
    d8b8:	0037f793          	andi	a5,a5,3
    d8bc:	0a079063          	bnez	a5,d95c <memmove+0x108>
    d8c0:	ff060893          	addi	a7,a2,-16
    d8c4:	ff08f893          	andi	a7,a7,-16
    d8c8:	01088893          	addi	a7,a7,16
    d8cc:	01150833          	add	a6,a0,a7
    d8d0:	00058713          	mv	a4,a1
    d8d4:	00050793          	mv	a5,a0
    d8d8:	00072683          	lw	a3,0(a4)
    d8dc:	01070713          	addi	a4,a4,16
    d8e0:	01078793          	addi	a5,a5,16
    d8e4:	fed7a823          	sw	a3,-16(a5)
    d8e8:	ff472683          	lw	a3,-12(a4)
    d8ec:	fed7aa23          	sw	a3,-12(a5)
    d8f0:	ff872683          	lw	a3,-8(a4)
    d8f4:	fed7ac23          	sw	a3,-8(a5)
    d8f8:	ffc72683          	lw	a3,-4(a4)
    d8fc:	fed7ae23          	sw	a3,-4(a5)
    d900:	fcf81ce3          	bne	a6,a5,d8d8 <memmove+0x84>
    d904:	00c67713          	andi	a4,a2,12
    d908:	011585b3          	add	a1,a1,a7
    d90c:	00f67813          	andi	a6,a2,15
    d910:	04070e63          	beqz	a4,d96c <memmove+0x118>
    d914:	00058713          	mv	a4,a1
    d918:	00078893          	mv	a7,a5
    d91c:	00300e13          	li	t3,3
    d920:	00072303          	lw	t1,0(a4)
    d924:	00470713          	addi	a4,a4,4
    d928:	40e806b3          	sub	a3,a6,a4
    d92c:	0068a023          	sw	t1,0(a7)
    d930:	00d586b3          	add	a3,a1,a3
    d934:	00488893          	addi	a7,a7,4
    d938:	fede64e3          	bltu	t3,a3,d920 <memmove+0xcc>
    d93c:	ffc80713          	addi	a4,a6,-4
    d940:	ffc77713          	andi	a4,a4,-4
    d944:	00470713          	addi	a4,a4,4
    d948:	00367613          	andi	a2,a2,3
    d94c:	00e787b3          	add	a5,a5,a4
    d950:	00e585b3          	add	a1,a1,a4
    d954:	f39ff06f          	j	d88c <memmove+0x38>
    d958:	00008067          	ret
    d95c:	fff60693          	addi	a3,a2,-1
    d960:	00050793          	mv	a5,a0
    d964:	f31ff06f          	j	d894 <memmove+0x40>
    d968:	00008067          	ret
    d96c:	00080613          	mv	a2,a6
    d970:	f1dff06f          	j	d88c <memmove+0x38>

0000d974 <_read_r>:
    d974:	ff010113          	addi	sp,sp,-16
    d978:	00058713          	mv	a4,a1
    d97c:	00812423          	sw	s0,8(sp)
    d980:	00912223          	sw	s1,4(sp)
    d984:	00060593          	mv	a1,a2
    d988:	00050413          	mv	s0,a0
    d98c:	00068613          	mv	a2,a3
    d990:	00070513          	mv	a0,a4
    d994:	00112623          	sw	ra,12(sp)
    d998:	6a01ae23          	sw	zero,1724(gp) # 15f74 <errno>
    d99c:	1b4020ef          	jal	ra,fb50 <_read>
    d9a0:	fff00793          	li	a5,-1
    d9a4:	00f50c63          	beq	a0,a5,d9bc <_read_r+0x48>
    d9a8:	00c12083          	lw	ra,12(sp)
    d9ac:	00812403          	lw	s0,8(sp)
    d9b0:	00412483          	lw	s1,4(sp)
    d9b4:	01010113          	addi	sp,sp,16
    d9b8:	00008067          	ret
    d9bc:	6bc1a783          	lw	a5,1724(gp) # 15f74 <errno>
    d9c0:	fe0784e3          	beqz	a5,d9a8 <_read_r+0x34>
    d9c4:	00c12083          	lw	ra,12(sp)
    d9c8:	00f42023          	sw	a5,0(s0)
    d9cc:	00812403          	lw	s0,8(sp)
    d9d0:	00412483          	lw	s1,4(sp)
    d9d4:	01010113          	addi	sp,sp,16
    d9d8:	00008067          	ret

0000d9dc <_realloc_r>:
    d9dc:	fd010113          	addi	sp,sp,-48
    d9e0:	03212023          	sw	s2,32(sp)
    d9e4:	02112623          	sw	ra,44(sp)
    d9e8:	02812423          	sw	s0,40(sp)
    d9ec:	02912223          	sw	s1,36(sp)
    d9f0:	01312e23          	sw	s3,28(sp)
    d9f4:	01412c23          	sw	s4,24(sp)
    d9f8:	01512a23          	sw	s5,20(sp)
    d9fc:	01612823          	sw	s6,16(sp)
    da00:	01712623          	sw	s7,12(sp)
    da04:	01812423          	sw	s8,8(sp)
    da08:	00060913          	mv	s2,a2
    da0c:	1c058463          	beqz	a1,dbd4 <_realloc_r+0x1f8>
    da10:	00058413          	mv	s0,a1
    da14:	00050993          	mv	s3,a0
    da18:	be9f90ef          	jal	ra,7600 <__malloc_lock>
    da1c:	00b90493          	addi	s1,s2,11
    da20:	01600793          	li	a5,22
    da24:	0e97fc63          	bgeu	a5,s1,db1c <_realloc_r+0x140>
    da28:	ff84f493          	andi	s1,s1,-8
    da2c:	00048713          	mv	a4,s1
    da30:	0e04cc63          	bltz	s1,db28 <_realloc_r+0x14c>
    da34:	0f24ea63          	bltu	s1,s2,db28 <_realloc_r+0x14c>
    da38:	ffc42783          	lw	a5,-4(s0)
    da3c:	ff840a93          	addi	s5,s0,-8
    da40:	ffc7fa13          	andi	s4,a5,-4
    da44:	014a8b33          	add	s6,s5,s4
    da48:	12ea5c63          	bge	s4,a4,db80 <_realloc_r+0x1a4>
    da4c:	dac18b93          	addi	s7,gp,-596 # 15664 <__malloc_av_>
    da50:	008ba603          	lw	a2,8(s7)
    da54:	004b2683          	lw	a3,4(s6) # 80000004 <//.+0x7ffea08c>
    da58:	1f660063          	beq	a2,s6,dc38 <_realloc_r+0x25c>
    da5c:	ffe6f613          	andi	a2,a3,-2
    da60:	00cb0633          	add	a2,s6,a2
    da64:	00462603          	lw	a2,4(a2)
    da68:	00167613          	andi	a2,a2,1
    da6c:	14061663          	bnez	a2,dbb8 <_realloc_r+0x1dc>
    da70:	ffc6f693          	andi	a3,a3,-4
    da74:	00da0633          	add	a2,s4,a3
    da78:	0ee65863          	bge	a2,a4,db68 <_realloc_r+0x18c>
    da7c:	0017f793          	andi	a5,a5,1
    da80:	02079463          	bnez	a5,daa8 <_realloc_r+0xcc>
    da84:	ff842c03          	lw	s8,-8(s0)
    da88:	418a8c33          	sub	s8,s5,s8
    da8c:	004c2783          	lw	a5,4(s8)
    da90:	ffc7f793          	andi	a5,a5,-4
    da94:	00d786b3          	add	a3,a5,a3
    da98:	01468bb3          	add	s7,a3,s4
    da9c:	34ebda63          	bge	s7,a4,ddf0 <_realloc_r+0x414>
    daa0:	00fa0bb3          	add	s7,s4,a5
    daa4:	2cebd463          	bge	s7,a4,dd6c <_realloc_r+0x390>
    daa8:	00090593          	mv	a1,s2
    daac:	00098513          	mv	a0,s3
    dab0:	a74f90ef          	jal	ra,6d24 <_malloc_r>
    dab4:	00050913          	mv	s2,a0
    dab8:	04050c63          	beqz	a0,db10 <_realloc_r+0x134>
    dabc:	ffc42783          	lw	a5,-4(s0)
    dac0:	ff850713          	addi	a4,a0,-8
    dac4:	ffe7f793          	andi	a5,a5,-2
    dac8:	00fa87b3          	add	a5,s5,a5
    dacc:	28e78663          	beq	a5,a4,dd58 <_realloc_r+0x37c>
    dad0:	ffca0613          	addi	a2,s4,-4
    dad4:	02400793          	li	a5,36
    dad8:	30c7e663          	bltu	a5,a2,dde4 <_realloc_r+0x408>
    dadc:	01300713          	li	a4,19
    dae0:	00042683          	lw	a3,0(s0)
    dae4:	20c76e63          	bltu	a4,a2,dd00 <_realloc_r+0x324>
    dae8:	00050793          	mv	a5,a0
    daec:	00040713          	mv	a4,s0
    daf0:	00d7a023          	sw	a3,0(a5)
    daf4:	00472683          	lw	a3,4(a4)
    daf8:	00d7a223          	sw	a3,4(a5)
    dafc:	00872703          	lw	a4,8(a4)
    db00:	00e7a423          	sw	a4,8(a5)
    db04:	00040593          	mv	a1,s0
    db08:	00098513          	mv	a0,s3
    db0c:	820f60ef          	jal	ra,3b2c <_free_r>
    db10:	00098513          	mv	a0,s3
    db14:	af1f90ef          	jal	ra,7604 <__malloc_unlock>
    db18:	01c0006f          	j	db34 <_realloc_r+0x158>
    db1c:	01000493          	li	s1,16
    db20:	01000713          	li	a4,16
    db24:	f124fae3          	bgeu	s1,s2,da38 <_realloc_r+0x5c>
    db28:	00c00793          	li	a5,12
    db2c:	00f9a023          	sw	a5,0(s3)
    db30:	00000913          	li	s2,0
    db34:	02c12083          	lw	ra,44(sp)
    db38:	02812403          	lw	s0,40(sp)
    db3c:	02412483          	lw	s1,36(sp)
    db40:	01c12983          	lw	s3,28(sp)
    db44:	01812a03          	lw	s4,24(sp)
    db48:	01412a83          	lw	s5,20(sp)
    db4c:	01012b03          	lw	s6,16(sp)
    db50:	00c12b83          	lw	s7,12(sp)
    db54:	00812c03          	lw	s8,8(sp)
    db58:	00090513          	mv	a0,s2
    db5c:	02012903          	lw	s2,32(sp)
    db60:	03010113          	addi	sp,sp,48
    db64:	00008067          	ret
    db68:	00cb2783          	lw	a5,12(s6)
    db6c:	008b2703          	lw	a4,8(s6)
    db70:	00060a13          	mv	s4,a2
    db74:	00ca8b33          	add	s6,s5,a2
    db78:	00f72623          	sw	a5,12(a4)
    db7c:	00e7a423          	sw	a4,8(a5)
    db80:	004aa783          	lw	a5,4(s5)
    db84:	409a0733          	sub	a4,s4,s1
    db88:	00f00693          	li	a3,15
    db8c:	0017f793          	andi	a5,a5,1
    db90:	06e6ec63          	bltu	a3,a4,dc08 <_realloc_r+0x22c>
    db94:	00fa67b3          	or	a5,s4,a5
    db98:	00faa223          	sw	a5,4(s5)
    db9c:	004b2783          	lw	a5,4(s6)
    dba0:	0017e793          	ori	a5,a5,1
    dba4:	00fb2223          	sw	a5,4(s6)
    dba8:	00098513          	mv	a0,s3
    dbac:	a59f90ef          	jal	ra,7604 <__malloc_unlock>
    dbb0:	00040913          	mv	s2,s0
    dbb4:	f81ff06f          	j	db34 <_realloc_r+0x158>
    dbb8:	0017f793          	andi	a5,a5,1
    dbbc:	ee0796e3          	bnez	a5,daa8 <_realloc_r+0xcc>
    dbc0:	ff842c03          	lw	s8,-8(s0)
    dbc4:	418a8c33          	sub	s8,s5,s8
    dbc8:	004c2783          	lw	a5,4(s8)
    dbcc:	ffc7f793          	andi	a5,a5,-4
    dbd0:	ed1ff06f          	j	daa0 <_realloc_r+0xc4>
    dbd4:	02812403          	lw	s0,40(sp)
    dbd8:	02c12083          	lw	ra,44(sp)
    dbdc:	02412483          	lw	s1,36(sp)
    dbe0:	02012903          	lw	s2,32(sp)
    dbe4:	01c12983          	lw	s3,28(sp)
    dbe8:	01812a03          	lw	s4,24(sp)
    dbec:	01412a83          	lw	s5,20(sp)
    dbf0:	01012b03          	lw	s6,16(sp)
    dbf4:	00c12b83          	lw	s7,12(sp)
    dbf8:	00812c03          	lw	s8,8(sp)
    dbfc:	00060593          	mv	a1,a2
    dc00:	03010113          	addi	sp,sp,48
    dc04:	920f906f          	j	6d24 <_malloc_r>
    dc08:	0097e7b3          	or	a5,a5,s1
    dc0c:	00faa223          	sw	a5,4(s5)
    dc10:	009a85b3          	add	a1,s5,s1
    dc14:	00176713          	ori	a4,a4,1
    dc18:	00e5a223          	sw	a4,4(a1)
    dc1c:	004b2783          	lw	a5,4(s6)
    dc20:	00858593          	addi	a1,a1,8
    dc24:	00098513          	mv	a0,s3
    dc28:	0017e793          	ori	a5,a5,1
    dc2c:	00fb2223          	sw	a5,4(s6)
    dc30:	efdf50ef          	jal	ra,3b2c <_free_r>
    dc34:	f75ff06f          	j	dba8 <_realloc_r+0x1cc>
    dc38:	ffc6f693          	andi	a3,a3,-4
    dc3c:	00da0633          	add	a2,s4,a3
    dc40:	01048593          	addi	a1,s1,16
    dc44:	0eb65063          	bge	a2,a1,dd24 <_realloc_r+0x348>
    dc48:	0017f793          	andi	a5,a5,1
    dc4c:	e4079ee3          	bnez	a5,daa8 <_realloc_r+0xcc>
    dc50:	ff842c03          	lw	s8,-8(s0)
    dc54:	418a8c33          	sub	s8,s5,s8
    dc58:	004c2783          	lw	a5,4(s8)
    dc5c:	ffc7f793          	andi	a5,a5,-4
    dc60:	00d786b3          	add	a3,a5,a3
    dc64:	01468b33          	add	s6,a3,s4
    dc68:	e2bb4ce3          	blt	s6,a1,daa0 <_realloc_r+0xc4>
    dc6c:	00cc2783          	lw	a5,12(s8)
    dc70:	008c2703          	lw	a4,8(s8)
    dc74:	ffca0613          	addi	a2,s4,-4
    dc78:	02400693          	li	a3,36
    dc7c:	00f72623          	sw	a5,12(a4)
    dc80:	00e7a423          	sw	a4,8(a5)
    dc84:	008c0913          	addi	s2,s8,8
    dc88:	26c6ec63          	bltu	a3,a2,df00 <_realloc_r+0x524>
    dc8c:	01300593          	li	a1,19
    dc90:	00042703          	lw	a4,0(s0)
    dc94:	00090793          	mv	a5,s2
    dc98:	02c5f263          	bgeu	a1,a2,dcbc <_realloc_r+0x2e0>
    dc9c:	00ec2423          	sw	a4,8(s8)
    dca0:	00442703          	lw	a4,4(s0)
    dca4:	01b00793          	li	a5,27
    dca8:	00ec2623          	sw	a4,12(s8)
    dcac:	26c7e263          	bltu	a5,a2,df10 <_realloc_r+0x534>
    dcb0:	00842703          	lw	a4,8(s0)
    dcb4:	010c0793          	addi	a5,s8,16
    dcb8:	00840413          	addi	s0,s0,8
    dcbc:	00e7a023          	sw	a4,0(a5)
    dcc0:	00442703          	lw	a4,4(s0)
    dcc4:	00e7a223          	sw	a4,4(a5)
    dcc8:	00842703          	lw	a4,8(s0)
    dccc:	00e7a423          	sw	a4,8(a5)
    dcd0:	009c0733          	add	a4,s8,s1
    dcd4:	409b07b3          	sub	a5,s6,s1
    dcd8:	00eba423          	sw	a4,8(s7)
    dcdc:	0017e793          	ori	a5,a5,1
    dce0:	00f72223          	sw	a5,4(a4)
    dce4:	004c2783          	lw	a5,4(s8)
    dce8:	00098513          	mv	a0,s3
    dcec:	0017f793          	andi	a5,a5,1
    dcf0:	0097e4b3          	or	s1,a5,s1
    dcf4:	009c2223          	sw	s1,4(s8)
    dcf8:	90df90ef          	jal	ra,7604 <__malloc_unlock>
    dcfc:	e39ff06f          	j	db34 <_realloc_r+0x158>
    dd00:	00d52023          	sw	a3,0(a0)
    dd04:	00442683          	lw	a3,4(s0)
    dd08:	01b00713          	li	a4,27
    dd0c:	00d52223          	sw	a3,4(a0)
    dd10:	16c76e63          	bltu	a4,a2,de8c <_realloc_r+0x4b0>
    dd14:	00842683          	lw	a3,8(s0)
    dd18:	00840713          	addi	a4,s0,8
    dd1c:	00850793          	addi	a5,a0,8
    dd20:	dd1ff06f          	j	daf0 <_realloc_r+0x114>
    dd24:	009a8ab3          	add	s5,s5,s1
    dd28:	409607b3          	sub	a5,a2,s1
    dd2c:	015ba423          	sw	s5,8(s7)
    dd30:	0017e793          	ori	a5,a5,1
    dd34:	00faa223          	sw	a5,4(s5)
    dd38:	ffc42783          	lw	a5,-4(s0)
    dd3c:	00098513          	mv	a0,s3
    dd40:	00040913          	mv	s2,s0
    dd44:	0017f793          	andi	a5,a5,1
    dd48:	0097e4b3          	or	s1,a5,s1
    dd4c:	fe942e23          	sw	s1,-4(s0)
    dd50:	8b5f90ef          	jal	ra,7604 <__malloc_unlock>
    dd54:	de1ff06f          	j	db34 <_realloc_r+0x158>
    dd58:	ffc52783          	lw	a5,-4(a0)
    dd5c:	ffc7f793          	andi	a5,a5,-4
    dd60:	00fa0a33          	add	s4,s4,a5
    dd64:	014a8b33          	add	s6,s5,s4
    dd68:	e19ff06f          	j	db80 <_realloc_r+0x1a4>
    dd6c:	00cc2783          	lw	a5,12(s8)
    dd70:	008c2703          	lw	a4,8(s8)
    dd74:	ffca0613          	addi	a2,s4,-4
    dd78:	02400693          	li	a3,36
    dd7c:	00f72623          	sw	a5,12(a4)
    dd80:	00e7a423          	sw	a4,8(a5)
    dd84:	008c0913          	addi	s2,s8,8
    dd88:	017c0b33          	add	s6,s8,s7
    dd8c:	0ec6e263          	bltu	a3,a2,de70 <_realloc_r+0x494>
    dd90:	01300593          	li	a1,19
    dd94:	00042703          	lw	a4,0(s0)
    dd98:	00090793          	mv	a5,s2
    dd9c:	02c5f263          	bgeu	a1,a2,ddc0 <_realloc_r+0x3e4>
    dda0:	00ec2423          	sw	a4,8(s8)
    dda4:	00442703          	lw	a4,4(s0)
    dda8:	01b00793          	li	a5,27
    ddac:	00ec2623          	sw	a4,12(s8)
    ddb0:	10c7e063          	bltu	a5,a2,deb0 <_realloc_r+0x4d4>
    ddb4:	00842703          	lw	a4,8(s0)
    ddb8:	010c0793          	addi	a5,s8,16
    ddbc:	00840413          	addi	s0,s0,8
    ddc0:	00e7a023          	sw	a4,0(a5)
    ddc4:	00442703          	lw	a4,4(s0)
    ddc8:	000b8a13          	mv	s4,s7
    ddcc:	000c0a93          	mv	s5,s8
    ddd0:	00e7a223          	sw	a4,4(a5)
    ddd4:	00842703          	lw	a4,8(s0)
    ddd8:	00090413          	mv	s0,s2
    dddc:	00e7a423          	sw	a4,8(a5)
    dde0:	da1ff06f          	j	db80 <_realloc_r+0x1a4>
    dde4:	00040593          	mv	a1,s0
    dde8:	a6dff0ef          	jal	ra,d854 <memmove>
    ddec:	d19ff06f          	j	db04 <_realloc_r+0x128>
    ddf0:	00cb2783          	lw	a5,12(s6)
    ddf4:	008b2703          	lw	a4,8(s6)
    ddf8:	ffca0613          	addi	a2,s4,-4
    ddfc:	02400693          	li	a3,36
    de00:	00f72623          	sw	a5,12(a4)
    de04:	00e7a423          	sw	a4,8(a5)
    de08:	008c2703          	lw	a4,8(s8)
    de0c:	00cc2783          	lw	a5,12(s8)
    de10:	008c0913          	addi	s2,s8,8
    de14:	017c0b33          	add	s6,s8,s7
    de18:	00f72623          	sw	a5,12(a4)
    de1c:	00e7a423          	sw	a4,8(a5)
    de20:	04c6e863          	bltu	a3,a2,de70 <_realloc_r+0x494>
    de24:	01300693          	li	a3,19
    de28:	00042703          	lw	a4,0(s0)
    de2c:	00090793          	mv	a5,s2
    de30:	f8c6f8e3          	bgeu	a3,a2,ddc0 <_realloc_r+0x3e4>
    de34:	00ec2423          	sw	a4,8(s8)
    de38:	00442703          	lw	a4,4(s0)
    de3c:	01b00793          	li	a5,27
    de40:	00ec2623          	sw	a4,12(s8)
    de44:	00842703          	lw	a4,8(s0)
    de48:	f6c7f8e3          	bgeu	a5,a2,ddb8 <_realloc_r+0x3dc>
    de4c:	00ec2823          	sw	a4,16(s8)
    de50:	00c42703          	lw	a4,12(s0)
    de54:	02400793          	li	a5,36
    de58:	00ec2a23          	sw	a4,20(s8)
    de5c:	01042703          	lw	a4,16(s0)
    de60:	06f60463          	beq	a2,a5,dec8 <_realloc_r+0x4ec>
    de64:	018c0793          	addi	a5,s8,24
    de68:	01040413          	addi	s0,s0,16
    de6c:	f55ff06f          	j	ddc0 <_realloc_r+0x3e4>
    de70:	00040593          	mv	a1,s0
    de74:	00090513          	mv	a0,s2
    de78:	9ddff0ef          	jal	ra,d854 <memmove>
    de7c:	00090413          	mv	s0,s2
    de80:	000b8a13          	mv	s4,s7
    de84:	000c0a93          	mv	s5,s8
    de88:	cf9ff06f          	j	db80 <_realloc_r+0x1a4>
    de8c:	00842703          	lw	a4,8(s0)
    de90:	00e52423          	sw	a4,8(a0)
    de94:	00c42703          	lw	a4,12(s0)
    de98:	00e52623          	sw	a4,12(a0)
    de9c:	01042683          	lw	a3,16(s0)
    dea0:	04f60263          	beq	a2,a5,dee4 <_realloc_r+0x508>
    dea4:	01040713          	addi	a4,s0,16
    dea8:	01050793          	addi	a5,a0,16
    deac:	c45ff06f          	j	daf0 <_realloc_r+0x114>
    deb0:	00842783          	lw	a5,8(s0)
    deb4:	00fc2823          	sw	a5,16(s8)
    deb8:	00c42783          	lw	a5,12(s0)
    debc:	00fc2a23          	sw	a5,20(s8)
    dec0:	01042703          	lw	a4,16(s0)
    dec4:	fad610e3          	bne	a2,a3,de64 <_realloc_r+0x488>
    dec8:	00ec2c23          	sw	a4,24(s8)
    decc:	01442703          	lw	a4,20(s0)
    ded0:	020c0793          	addi	a5,s8,32
    ded4:	01840413          	addi	s0,s0,24
    ded8:	00ec2e23          	sw	a4,28(s8)
    dedc:	00042703          	lw	a4,0(s0)
    dee0:	ee1ff06f          	j	ddc0 <_realloc_r+0x3e4>
    dee4:	00d52823          	sw	a3,16(a0)
    dee8:	01442683          	lw	a3,20(s0)
    deec:	01840713          	addi	a4,s0,24
    def0:	01850793          	addi	a5,a0,24
    def4:	00d52a23          	sw	a3,20(a0)
    def8:	01842683          	lw	a3,24(s0)
    defc:	bf5ff06f          	j	daf0 <_realloc_r+0x114>
    df00:	00040593          	mv	a1,s0
    df04:	00090513          	mv	a0,s2
    df08:	94dff0ef          	jal	ra,d854 <memmove>
    df0c:	dc5ff06f          	j	dcd0 <_realloc_r+0x2f4>
    df10:	00842783          	lw	a5,8(s0)
    df14:	00fc2823          	sw	a5,16(s8)
    df18:	00c42783          	lw	a5,12(s0)
    df1c:	00fc2a23          	sw	a5,20(s8)
    df20:	01042703          	lw	a4,16(s0)
    df24:	00d60863          	beq	a2,a3,df34 <_realloc_r+0x558>
    df28:	018c0793          	addi	a5,s8,24
    df2c:	01040413          	addi	s0,s0,16
    df30:	d8dff06f          	j	dcbc <_realloc_r+0x2e0>
    df34:	00ec2c23          	sw	a4,24(s8)
    df38:	01442703          	lw	a4,20(s0)
    df3c:	020c0793          	addi	a5,s8,32
    df40:	01840413          	addi	s0,s0,24
    df44:	00ec2e23          	sw	a4,28(s8)
    df48:	00042703          	lw	a4,0(s0)
    df4c:	d71ff06f          	j	dcbc <_realloc_r+0x2e0>

0000df50 <cleanup_glue>:
    df50:	ff010113          	addi	sp,sp,-16
    df54:	00812423          	sw	s0,8(sp)
    df58:	00058413          	mv	s0,a1
    df5c:	0005a583          	lw	a1,0(a1)
    df60:	00912223          	sw	s1,4(sp)
    df64:	00112623          	sw	ra,12(sp)
    df68:	00050493          	mv	s1,a0
    df6c:	00058463          	beqz	a1,df74 <cleanup_glue+0x24>
    df70:	fe1ff0ef          	jal	ra,df50 <cleanup_glue>
    df74:	00040593          	mv	a1,s0
    df78:	00812403          	lw	s0,8(sp)
    df7c:	00c12083          	lw	ra,12(sp)
    df80:	00048513          	mv	a0,s1
    df84:	00412483          	lw	s1,4(sp)
    df88:	01010113          	addi	sp,sp,16
    df8c:	ba1f506f          	j	3b2c <_free_r>

0000df90 <_reclaim_reent>:
    df90:	1d81a783          	lw	a5,472(gp) # 15a90 <_impure_ptr>
    df94:	10a78063          	beq	a5,a0,e094 <_reclaim_reent+0x104>
    df98:	04c52583          	lw	a1,76(a0)
    df9c:	fe010113          	addi	sp,sp,-32
    dfa0:	00912a23          	sw	s1,20(sp)
    dfa4:	00112e23          	sw	ra,28(sp)
    dfa8:	00812c23          	sw	s0,24(sp)
    dfac:	01212823          	sw	s2,16(sp)
    dfb0:	01312623          	sw	s3,12(sp)
    dfb4:	00050493          	mv	s1,a0
    dfb8:	04058063          	beqz	a1,dff8 <_reclaim_reent+0x68>
    dfbc:	00000913          	li	s2,0
    dfc0:	08000993          	li	s3,128
    dfc4:	012587b3          	add	a5,a1,s2
    dfc8:	0007a403          	lw	s0,0(a5)
    dfcc:	00040e63          	beqz	s0,dfe8 <_reclaim_reent+0x58>
    dfd0:	00040593          	mv	a1,s0
    dfd4:	00042403          	lw	s0,0(s0)
    dfd8:	00048513          	mv	a0,s1
    dfdc:	b51f50ef          	jal	ra,3b2c <_free_r>
    dfe0:	fe0418e3          	bnez	s0,dfd0 <_reclaim_reent+0x40>
    dfe4:	04c4a583          	lw	a1,76(s1)
    dfe8:	00490913          	addi	s2,s2,4
    dfec:	fd391ce3          	bne	s2,s3,dfc4 <_reclaim_reent+0x34>
    dff0:	00048513          	mv	a0,s1
    dff4:	b39f50ef          	jal	ra,3b2c <_free_r>
    dff8:	0404a583          	lw	a1,64(s1)
    dffc:	00058663          	beqz	a1,e008 <_reclaim_reent+0x78>
    e000:	00048513          	mv	a0,s1
    e004:	b29f50ef          	jal	ra,3b2c <_free_r>
    e008:	1484a403          	lw	s0,328(s1)
    e00c:	02040063          	beqz	s0,e02c <_reclaim_reent+0x9c>
    e010:	14c48913          	addi	s2,s1,332
    e014:	01240c63          	beq	s0,s2,e02c <_reclaim_reent+0x9c>
    e018:	00040593          	mv	a1,s0
    e01c:	00042403          	lw	s0,0(s0)
    e020:	00048513          	mv	a0,s1
    e024:	b09f50ef          	jal	ra,3b2c <_free_r>
    e028:	fe8918e3          	bne	s2,s0,e018 <_reclaim_reent+0x88>
    e02c:	0544a583          	lw	a1,84(s1)
    e030:	00058663          	beqz	a1,e03c <_reclaim_reent+0xac>
    e034:	00048513          	mv	a0,s1
    e038:	af5f50ef          	jal	ra,3b2c <_free_r>
    e03c:	0384a783          	lw	a5,56(s1)
    e040:	02078c63          	beqz	a5,e078 <_reclaim_reent+0xe8>
    e044:	03c4a783          	lw	a5,60(s1)
    e048:	00048513          	mv	a0,s1
    e04c:	000780e7          	jalr	a5
    e050:	2e04a583          	lw	a1,736(s1)
    e054:	02058263          	beqz	a1,e078 <_reclaim_reent+0xe8>
    e058:	01812403          	lw	s0,24(sp)
    e05c:	01c12083          	lw	ra,28(sp)
    e060:	01012903          	lw	s2,16(sp)
    e064:	00c12983          	lw	s3,12(sp)
    e068:	00048513          	mv	a0,s1
    e06c:	01412483          	lw	s1,20(sp)
    e070:	02010113          	addi	sp,sp,32
    e074:	eddff06f          	j	df50 <cleanup_glue>
    e078:	01c12083          	lw	ra,28(sp)
    e07c:	01812403          	lw	s0,24(sp)
    e080:	01412483          	lw	s1,20(sp)
    e084:	01012903          	lw	s2,16(sp)
    e088:	00c12983          	lw	s3,12(sp)
    e08c:	02010113          	addi	sp,sp,32
    e090:	00008067          	ret
    e094:	00008067          	ret

0000e098 <__ssprint_r>:
    e098:	00862783          	lw	a5,8(a2)
    e09c:	fd010113          	addi	sp,sp,-48
    e0a0:	01512a23          	sw	s5,20(sp)
    e0a4:	02112623          	sw	ra,44(sp)
    e0a8:	02812423          	sw	s0,40(sp)
    e0ac:	02912223          	sw	s1,36(sp)
    e0b0:	03212023          	sw	s2,32(sp)
    e0b4:	01312e23          	sw	s3,28(sp)
    e0b8:	01412c23          	sw	s4,24(sp)
    e0bc:	01612823          	sw	s6,16(sp)
    e0c0:	01712623          	sw	s7,12(sp)
    e0c4:	01812423          	sw	s8,8(sp)
    e0c8:	00060a93          	mv	s5,a2
    e0cc:	14078863          	beqz	a5,e21c <__ssprint_r+0x184>
    e0d0:	00050b13          	mv	s6,a0
    e0d4:	00062983          	lw	s3,0(a2)
    e0d8:	0005a503          	lw	a0,0(a1)
    e0dc:	0085a483          	lw	s1,8(a1)
    e0e0:	00058413          	mv	s0,a1
    e0e4:	0d40006f          	j	e1b8 <__ssprint_r+0x120>
    e0e8:	00c45783          	lhu	a5,12(s0)
    e0ec:	4807f713          	andi	a4,a5,1152
    e0f0:	08070a63          	beqz	a4,e184 <__ssprint_r+0xec>
    e0f4:	01442683          	lw	a3,20(s0)
    e0f8:	01042583          	lw	a1,16(s0)
    e0fc:	00190713          	addi	a4,s2,1
    e100:	00169493          	slli	s1,a3,0x1
    e104:	00d486b3          	add	a3,s1,a3
    e108:	01f6d493          	srli	s1,a3,0x1f
    e10c:	40b50a33          	sub	s4,a0,a1
    e110:	00d484b3          	add	s1,s1,a3
    e114:	4014d493          	srai	s1,s1,0x1
    e118:	01470733          	add	a4,a4,s4
    e11c:	00048613          	mv	a2,s1
    e120:	00e4f663          	bgeu	s1,a4,e12c <__ssprint_r+0x94>
    e124:	00070493          	mv	s1,a4
    e128:	00070613          	mv	a2,a4
    e12c:	4007f793          	andi	a5,a5,1024
    e130:	0a078663          	beqz	a5,e1dc <__ssprint_r+0x144>
    e134:	00060593          	mv	a1,a2
    e138:	000b0513          	mv	a0,s6
    e13c:	be9f80ef          	jal	ra,6d24 <_malloc_r>
    e140:	00050c13          	mv	s8,a0
    e144:	0a050a63          	beqz	a0,e1f8 <__ssprint_r+0x160>
    e148:	01042583          	lw	a1,16(s0)
    e14c:	000a0613          	mv	a2,s4
    e150:	de8ff0ef          	jal	ra,d738 <memcpy>
    e154:	00c45783          	lhu	a5,12(s0)
    e158:	b7f7f793          	andi	a5,a5,-1153
    e15c:	0807e793          	ori	a5,a5,128
    e160:	00f41623          	sh	a5,12(s0)
    e164:	014c0533          	add	a0,s8,s4
    e168:	41448a33          	sub	s4,s1,s4
    e16c:	00942a23          	sw	s1,20(s0)
    e170:	01442423          	sw	s4,8(s0)
    e174:	01842823          	sw	s8,16(s0)
    e178:	00a42023          	sw	a0,0(s0)
    e17c:	00090493          	mv	s1,s2
    e180:	00090a13          	mv	s4,s2
    e184:	000a0613          	mv	a2,s4
    e188:	000b8593          	mv	a1,s7
    e18c:	ec8ff0ef          	jal	ra,d854 <memmove>
    e190:	00842703          	lw	a4,8(s0)
    e194:	00042503          	lw	a0,0(s0)
    e198:	008aa783          	lw	a5,8(s5)
    e19c:	409704b3          	sub	s1,a4,s1
    e1a0:	01450533          	add	a0,a0,s4
    e1a4:	00942423          	sw	s1,8(s0)
    e1a8:	00a42023          	sw	a0,0(s0)
    e1ac:	41278933          	sub	s2,a5,s2
    e1b0:	012aa423          	sw	s2,8(s5)
    e1b4:	06090463          	beqz	s2,e21c <__ssprint_r+0x184>
    e1b8:	0049a903          	lw	s2,4(s3)
    e1bc:	0009ab83          	lw	s7,0(s3)
    e1c0:	00048a13          	mv	s4,s1
    e1c4:	00898993          	addi	s3,s3,8
    e1c8:	fe0908e3          	beqz	s2,e1b8 <__ssprint_r+0x120>
    e1cc:	f0997ee3          	bgeu	s2,s1,e0e8 <__ssprint_r+0x50>
    e1d0:	00090493          	mv	s1,s2
    e1d4:	00090a13          	mv	s4,s2
    e1d8:	fadff06f          	j	e184 <__ssprint_r+0xec>
    e1dc:	000b0513          	mv	a0,s6
    e1e0:	ffcff0ef          	jal	ra,d9dc <_realloc_r>
    e1e4:	00050c13          	mv	s8,a0
    e1e8:	f6051ee3          	bnez	a0,e164 <__ssprint_r+0xcc>
    e1ec:	01042583          	lw	a1,16(s0)
    e1f0:	000b0513          	mv	a0,s6
    e1f4:	939f50ef          	jal	ra,3b2c <_free_r>
    e1f8:	00c00793          	li	a5,12
    e1fc:	00fb2023          	sw	a5,0(s6)
    e200:	00c45783          	lhu	a5,12(s0)
    e204:	fff00513          	li	a0,-1
    e208:	0407e793          	ori	a5,a5,64
    e20c:	00f41623          	sh	a5,12(s0)
    e210:	000aa423          	sw	zero,8(s5)
    e214:	000aa223          	sw	zero,4(s5)
    e218:	00c0006f          	j	e224 <__ssprint_r+0x18c>
    e21c:	000aa223          	sw	zero,4(s5)
    e220:	00000513          	li	a0,0
    e224:	02c12083          	lw	ra,44(sp)
    e228:	02812403          	lw	s0,40(sp)
    e22c:	02412483          	lw	s1,36(sp)
    e230:	02012903          	lw	s2,32(sp)
    e234:	01c12983          	lw	s3,28(sp)
    e238:	01812a03          	lw	s4,24(sp)
    e23c:	01412a83          	lw	s5,20(sp)
    e240:	01012b03          	lw	s6,16(sp)
    e244:	00c12b83          	lw	s7,12(sp)
    e248:	00812c03          	lw	s8,8(sp)
    e24c:	03010113          	addi	sp,sp,48
    e250:	00008067          	ret

0000e254 <_svfiprintf_r>:
    e254:	00c5d783          	lhu	a5,12(a1)
    e258:	ed010113          	addi	sp,sp,-304
    e25c:	11412c23          	sw	s4,280(sp)
    e260:	11612823          	sw	s6,272(sp)
    e264:	11a12023          	sw	s10,256(sp)
    e268:	12112623          	sw	ra,300(sp)
    e26c:	12812423          	sw	s0,296(sp)
    e270:	12912223          	sw	s1,292(sp)
    e274:	13212023          	sw	s2,288(sp)
    e278:	11312e23          	sw	s3,284(sp)
    e27c:	11512a23          	sw	s5,276(sp)
    e280:	11712623          	sw	s7,268(sp)
    e284:	11812423          	sw	s8,264(sp)
    e288:	11912223          	sw	s9,260(sp)
    e28c:	0fb12e23          	sw	s11,252(sp)
    e290:	0807f793          	andi	a5,a5,128
    e294:	00d12623          	sw	a3,12(sp)
    e298:	00058a13          	mv	s4,a1
    e29c:	00050b13          	mv	s6,a0
    e2a0:	00060d13          	mv	s10,a2
    e2a4:	00078663          	beqz	a5,e2b0 <_svfiprintf_r+0x5c>
    e2a8:	0105a783          	lw	a5,16(a1)
    e2ac:	5e0786e3          	beqz	a5,f098 <_svfiprintf_r+0xe44>
    e2b0:	000157b7          	lui	a5,0x15
    e2b4:	04c10a93          	addi	s5,sp,76
    e2b8:	d2c78793          	addi	a5,a5,-724 # 14d2c <_ctype_+0x104>
    e2bc:	00015bb7          	lui	s7,0x15
    e2c0:	000154b7          	lui	s1,0x15
    e2c4:	000d0993          	mv	s3,s10
    e2c8:	05512023          	sw	s5,64(sp)
    e2cc:	04012423          	sw	zero,72(sp)
    e2d0:	04012223          	sw	zero,68(sp)
    e2d4:	00012a23          	sw	zero,20(sp)
    e2d8:	00012c23          	sw	zero,24(sp)
    e2dc:	02012023          	sw	zero,32(sp)
    e2e0:	00012e23          	sw	zero,28(sp)
    e2e4:	00012423          	sw	zero,8(sp)
    e2e8:	00f12823          	sw	a5,16(sp)
    e2ec:	e98b8b93          	addi	s7,s7,-360 # 14e98 <blanks.4447>
    e2f0:	ea848493          	addi	s1,s1,-344 # 14ea8 <zeroes.4448>
    e2f4:	000a8d13          	mv	s10,s5
    e2f8:	0009c783          	lbu	a5,0(s3)
    e2fc:	20078c63          	beqz	a5,e514 <_svfiprintf_r+0x2c0>
    e300:	00098413          	mv	s0,s3
    e304:	02500693          	li	a3,37
    e308:	2ad78863          	beq	a5,a3,e5b8 <_svfiprintf_r+0x364>
    e30c:	00144783          	lbu	a5,1(s0)
    e310:	00140413          	addi	s0,s0,1
    e314:	fe079ae3          	bnez	a5,e308 <_svfiprintf_r+0xb4>
    e318:	41340c33          	sub	s8,s0,s3
    e31c:	1f340c63          	beq	s0,s3,e514 <_svfiprintf_r+0x2c0>
    e320:	04812683          	lw	a3,72(sp)
    e324:	04412783          	lw	a5,68(sp)
    e328:	013d2023          	sw	s3,0(s10)
    e32c:	018686b3          	add	a3,a3,s8
    e330:	00178793          	addi	a5,a5,1
    e334:	018d2223          	sw	s8,4(s10)
    e338:	04d12423          	sw	a3,72(sp)
    e33c:	04f12223          	sw	a5,68(sp)
    e340:	00700693          	li	a3,7
    e344:	008d0d13          	addi	s10,s10,8
    e348:	28f6c063          	blt	a3,a5,e5c8 <_svfiprintf_r+0x374>
    e34c:	00812703          	lw	a4,8(sp)
    e350:	00044783          	lbu	a5,0(s0)
    e354:	01870733          	add	a4,a4,s8
    e358:	00e12423          	sw	a4,8(sp)
    e35c:	1a078c63          	beqz	a5,e514 <_svfiprintf_r+0x2c0>
    e360:	fff00893          	li	a7,-1
    e364:	00144683          	lbu	a3,1(s0)
    e368:	00140993          	addi	s3,s0,1
    e36c:	02010da3          	sb	zero,59(sp)
    e370:	00012223          	sw	zero,4(sp)
    e374:	00000913          	li	s2,0
    e378:	05a00c13          	li	s8,90
    e37c:	00900c93          	li	s9,9
    e380:	02a00593          	li	a1,42
    e384:	00088413          	mv	s0,a7
    e388:	00198993          	addi	s3,s3,1
    e38c:	fe068793          	addi	a5,a3,-32
    e390:	04fc6863          	bltu	s8,a5,e3e0 <_svfiprintf_r+0x18c>
    e394:	01012703          	lw	a4,16(sp)
    e398:	00279793          	slli	a5,a5,0x2
    e39c:	00e787b3          	add	a5,a5,a4
    e3a0:	0007a783          	lw	a5,0(a5)
    e3a4:	00078067          	jr	a5
    e3a8:	00012223          	sw	zero,4(sp)
    e3ac:	fd068793          	addi	a5,a3,-48
    e3b0:	00412603          	lw	a2,4(sp)
    e3b4:	0009c683          	lbu	a3,0(s3)
    e3b8:	00198993          	addi	s3,s3,1
    e3bc:	00261713          	slli	a4,a2,0x2
    e3c0:	00c70733          	add	a4,a4,a2
    e3c4:	00171713          	slli	a4,a4,0x1
    e3c8:	00e787b3          	add	a5,a5,a4
    e3cc:	00f12223          	sw	a5,4(sp)
    e3d0:	fd068793          	addi	a5,a3,-48
    e3d4:	fcfcfee3          	bgeu	s9,a5,e3b0 <_svfiprintf_r+0x15c>
    e3d8:	fe068793          	addi	a5,a3,-32
    e3dc:	fafc7ce3          	bgeu	s8,a5,e394 <_svfiprintf_r+0x140>
    e3e0:	12068a63          	beqz	a3,e514 <_svfiprintf_r+0x2c0>
    e3e4:	08d10623          	sb	a3,140(sp)
    e3e8:	02010da3          	sb	zero,59(sp)
    e3ec:	00100c13          	li	s8,1
    e3f0:	00100c93          	li	s9,1
    e3f4:	08c10413          	addi	s0,sp,140
    e3f8:	00000893          	li	a7,0
    e3fc:	00297f13          	andi	t5,s2,2
    e400:	000f0463          	beqz	t5,e408 <_svfiprintf_r+0x1b4>
    e404:	002c0c13          	addi	s8,s8,2
    e408:	08497e93          	andi	t4,s2,132
    e40c:	04812783          	lw	a5,72(sp)
    e410:	04412603          	lw	a2,68(sp)
    e414:	000e9863          	bnez	t4,e424 <_svfiprintf_r+0x1d0>
    e418:	00412703          	lw	a4,4(sp)
    e41c:	41870db3          	sub	s11,a4,s8
    e420:	7bb04c63          	bgtz	s11,ebd8 <_svfiprintf_r+0x984>
    e424:	03b14503          	lbu	a0,59(sp)
    e428:	00160593          	addi	a1,a2,1
    e42c:	008d0693          	addi	a3,s10,8
    e430:	04050063          	beqz	a0,e470 <_svfiprintf_r+0x21c>
    e434:	03b10513          	addi	a0,sp,59
    e438:	00178793          	addi	a5,a5,1
    e43c:	00ad2023          	sw	a0,0(s10)
    e440:	00100513          	li	a0,1
    e444:	00ad2223          	sw	a0,4(s10)
    e448:	04f12423          	sw	a5,72(sp)
    e44c:	04b12223          	sw	a1,68(sp)
    e450:	00700513          	li	a0,7
    e454:	0ab542e3          	blt	a0,a1,ecf8 <_svfiprintf_r+0xaa4>
    e458:	00260f93          	addi	t6,a2,2
    e45c:	010d0513          	addi	a0,s10,16
    e460:	00058613          	mv	a2,a1
    e464:	00068d13          	mv	s10,a3
    e468:	000f8593          	mv	a1,t6
    e46c:	00050693          	mv	a3,a0
    e470:	020f0c63          	beqz	t5,e4a8 <_svfiprintf_r+0x254>
    e474:	03c10613          	addi	a2,sp,60
    e478:	00278793          	addi	a5,a5,2
    e47c:	00cd2023          	sw	a2,0(s10)
    e480:	00200613          	li	a2,2
    e484:	00cd2223          	sw	a2,4(s10)
    e488:	04f12423          	sw	a5,72(sp)
    e48c:	04b12223          	sw	a1,68(sp)
    e490:	00700713          	li	a4,7
    e494:	0ab744e3          	blt	a4,a1,ed3c <_svfiprintf_r+0xae8>
    e498:	00058613          	mv	a2,a1
    e49c:	00068d13          	mv	s10,a3
    e4a0:	00158593          	addi	a1,a1,1
    e4a4:	00868693          	addi	a3,a3,8
    e4a8:	08000513          	li	a0,128
    e4ac:	54ae8e63          	beq	t4,a0,ea08 <_svfiprintf_r+0x7b4>
    e4b0:	41988db3          	sub	s11,a7,s9
    e4b4:	63b04663          	bgtz	s11,eae0 <_svfiprintf_r+0x88c>
    e4b8:	00fc87b3          	add	a5,s9,a5
    e4bc:	008d2023          	sw	s0,0(s10)
    e4c0:	019d2223          	sw	s9,4(s10)
    e4c4:	04f12423          	sw	a5,72(sp)
    e4c8:	04b12223          	sw	a1,68(sp)
    e4cc:	00700713          	li	a4,7
    e4d0:	6cb74463          	blt	a4,a1,eb98 <_svfiprintf_r+0x944>
    e4d4:	00497313          	andi	t1,s2,4
    e4d8:	00030863          	beqz	t1,e4e8 <_svfiprintf_r+0x294>
    e4dc:	00412703          	lw	a4,4(sp)
    e4e0:	41870cb3          	sub	s9,a4,s8
    e4e4:	09904ae3          	bgtz	s9,ed78 <_svfiprintf_r+0xb24>
    e4e8:	00412403          	lw	s0,4(sp)
    e4ec:	01845463          	bge	s0,s8,e4f4 <_svfiprintf_r+0x2a0>
    e4f0:	000c0413          	mv	s0,s8
    e4f4:	00812703          	lw	a4,8(sp)
    e4f8:	00870733          	add	a4,a4,s0
    e4fc:	00e12423          	sw	a4,8(sp)
    e500:	6a079c63          	bnez	a5,ebb8 <_svfiprintf_r+0x964>
    e504:	0009c783          	lbu	a5,0(s3)
    e508:	04012223          	sw	zero,68(sp)
    e50c:	000a8d13          	mv	s10,s5
    e510:	de0798e3          	bnez	a5,e300 <_svfiprintf_r+0xac>
    e514:	04812783          	lw	a5,72(sp)
    e518:	580790e3          	bnez	a5,f298 <_svfiprintf_r+0x1044>
    e51c:	00ca5783          	lhu	a5,12(s4)
    e520:	0407f793          	andi	a5,a5,64
    e524:	5a0796e3          	bnez	a5,f2d0 <_svfiprintf_r+0x107c>
    e528:	12c12083          	lw	ra,300(sp)
    e52c:	12812403          	lw	s0,296(sp)
    e530:	00812503          	lw	a0,8(sp)
    e534:	12412483          	lw	s1,292(sp)
    e538:	12012903          	lw	s2,288(sp)
    e53c:	11c12983          	lw	s3,284(sp)
    e540:	11812a03          	lw	s4,280(sp)
    e544:	11412a83          	lw	s5,276(sp)
    e548:	11012b03          	lw	s6,272(sp)
    e54c:	10c12b83          	lw	s7,268(sp)
    e550:	10812c03          	lw	s8,264(sp)
    e554:	10412c83          	lw	s9,260(sp)
    e558:	10012d03          	lw	s10,256(sp)
    e55c:	0fc12d83          	lw	s11,252(sp)
    e560:	13010113          	addi	sp,sp,304
    e564:	00008067          	ret
    e568:	000b0513          	mv	a0,s6
    e56c:	d20f80ef          	jal	ra,6a8c <_localeconv_r>
    e570:	00452783          	lw	a5,4(a0)
    e574:	00078513          	mv	a0,a5
    e578:	00f12e23          	sw	a5,28(sp)
    e57c:	f74fa0ef          	jal	ra,8cf0 <strlen>
    e580:	00050793          	mv	a5,a0
    e584:	000b0513          	mv	a0,s6
    e588:	00078d93          	mv	s11,a5
    e58c:	02f12023          	sw	a5,32(sp)
    e590:	cfcf80ef          	jal	ra,6a8c <_localeconv_r>
    e594:	00852783          	lw	a5,8(a0)
    e598:	02a00593          	li	a1,42
    e59c:	00f12c23          	sw	a5,24(sp)
    e5a0:	1e0d9ae3          	bnez	s11,ef94 <_svfiprintf_r+0xd40>
    e5a4:	0009c683          	lbu	a3,0(s3)
    e5a8:	de1ff06f          	j	e388 <_svfiprintf_r+0x134>
    e5ac:	0009c683          	lbu	a3,0(s3)
    e5b0:	02096913          	ori	s2,s2,32
    e5b4:	dd5ff06f          	j	e388 <_svfiprintf_r+0x134>
    e5b8:	41340c33          	sub	s8,s0,s3
    e5bc:	d73412e3          	bne	s0,s3,e320 <_svfiprintf_r+0xcc>
    e5c0:	00044783          	lbu	a5,0(s0)
    e5c4:	d99ff06f          	j	e35c <_svfiprintf_r+0x108>
    e5c8:	04010613          	addi	a2,sp,64
    e5cc:	000a0593          	mv	a1,s4
    e5d0:	000b0513          	mv	a0,s6
    e5d4:	ac5ff0ef          	jal	ra,e098 <__ssprint_r>
    e5d8:	f40512e3          	bnez	a0,e51c <_svfiprintf_r+0x2c8>
    e5dc:	000a8d13          	mv	s10,s5
    e5e0:	d6dff06f          	j	e34c <_svfiprintf_r+0xf8>
    e5e4:	00c12783          	lw	a5,12(sp)
    e5e8:	00040893          	mv	a7,s0
    e5ec:	02010da3          	sb	zero,59(sp)
    e5f0:	0007a403          	lw	s0,0(a5)
    e5f4:	00478d93          	addi	s11,a5,4
    e5f8:	380406e3          	beqz	s0,f184 <_svfiprintf_r+0xf30>
    e5fc:	fff00793          	li	a5,-1
    e600:	28f880e3          	beq	a7,a5,f080 <_svfiprintf_r+0xe2c>
    e604:	00088613          	mv	a2,a7
    e608:	00000593          	li	a1,0
    e60c:	00040513          	mv	a0,s0
    e610:	01112623          	sw	a7,12(sp)
    e614:	f19f80ef          	jal	ra,752c <memchr>
    e618:	00c12883          	lw	a7,12(sp)
    e61c:	480508e3          	beqz	a0,f2ac <_svfiprintf_r+0x1058>
    e620:	40850cb3          	sub	s9,a0,s0
    e624:	01b12623          	sw	s11,12(sp)
    e628:	00000893          	li	a7,0
    e62c:	0940006f          	j	e6c0 <_svfiprintf_r+0x46c>
    e630:	00c12703          	lw	a4,12(sp)
    e634:	02010da3          	sb	zero,59(sp)
    e638:	00100c13          	li	s8,1
    e63c:	00072783          	lw	a5,0(a4)
    e640:	00470713          	addi	a4,a4,4
    e644:	00e12623          	sw	a4,12(sp)
    e648:	08f10623          	sb	a5,140(sp)
    e64c:	00100c93          	li	s9,1
    e650:	08c10413          	addi	s0,sp,140
    e654:	da5ff06f          	j	e3f8 <_svfiprintf_r+0x1a4>
    e658:	02097793          	andi	a5,s2,32
    e65c:	00040893          	mv	a7,s0
    e660:	0e078e63          	beqz	a5,e75c <_svfiprintf_r+0x508>
    e664:	00c12783          	lw	a5,12(sp)
    e668:	00778793          	addi	a5,a5,7
    e66c:	ff87f793          	andi	a5,a5,-8
    e670:	0047a683          	lw	a3,4(a5)
    e674:	0007ac83          	lw	s9,0(a5)
    e678:	00878793          	addi	a5,a5,8
    e67c:	00f12623          	sw	a5,12(sp)
    e680:	00068c13          	mv	s8,a3
    e684:	1006c463          	bltz	a3,e78c <_svfiprintf_r+0x538>
    e688:	fff00693          	li	a3,-1
    e68c:	00090d93          	mv	s11,s2
    e690:	00d88863          	beq	a7,a3,e6a0 <_svfiprintf_r+0x44c>
    e694:	018ce6b3          	or	a3,s9,s8
    e698:	f7f97d93          	andi	s11,s2,-129
    e69c:	78068063          	beqz	a3,ee1c <_svfiprintf_r+0xbc8>
    e6a0:	000c1ee3          	bnez	s8,eebc <_svfiprintf_r+0xc68>
    e6a4:	00900693          	li	a3,9
    e6a8:	0196eae3          	bltu	a3,s9,eebc <_svfiprintf_r+0xc68>
    e6ac:	030c8793          	addi	a5,s9,48
    e6b0:	0ef107a3          	sb	a5,239(sp)
    e6b4:	000d8913          	mv	s2,s11
    e6b8:	00100c93          	li	s9,1
    e6bc:	0ef10413          	addi	s0,sp,239
    e6c0:	00088c13          	mv	s8,a7
    e6c4:	0198d463          	bge	a7,s9,e6cc <_svfiprintf_r+0x478>
    e6c8:	000c8c13          	mv	s8,s9
    e6cc:	03b14783          	lbu	a5,59(sp)
    e6d0:	00f037b3          	snez	a5,a5
    e6d4:	00fc0c33          	add	s8,s8,a5
    e6d8:	d25ff06f          	j	e3fc <_svfiprintf_r+0x1a8>
    e6dc:	00040893          	mv	a7,s0
    e6e0:	01096913          	ori	s2,s2,16
    e6e4:	02097793          	andi	a5,s2,32
    e6e8:	74078663          	beqz	a5,ee34 <_svfiprintf_r+0xbe0>
    e6ec:	00c12783          	lw	a5,12(sp)
    e6f0:	00778793          	addi	a5,a5,7
    e6f4:	ff87f793          	andi	a5,a5,-8
    e6f8:	0007ac83          	lw	s9,0(a5)
    e6fc:	0047ac03          	lw	s8,4(a5)
    e700:	00878793          	addi	a5,a5,8
    e704:	00f12623          	sw	a5,12(sp)
    e708:	bff97d93          	andi	s11,s2,-1025
    e70c:	00000693          	li	a3,0
    e710:	02010da3          	sb	zero,59(sp)
    e714:	fff00613          	li	a2,-1
    e718:	08c88e63          	beq	a7,a2,e7b4 <_svfiprintf_r+0x560>
    e71c:	018ce633          	or	a2,s9,s8
    e720:	f7fdf913          	andi	s2,s11,-129
    e724:	4a061663          	bnez	a2,ebd0 <_svfiprintf_r+0x97c>
    e728:	28089463          	bnez	a7,e9b0 <_svfiprintf_r+0x75c>
    e72c:	6e069c63          	bnez	a3,ee24 <_svfiprintf_r+0xbd0>
    e730:	001dfc93          	andi	s9,s11,1
    e734:	0f010413          	addi	s0,sp,240
    e738:	f80c84e3          	beqz	s9,e6c0 <_svfiprintf_r+0x46c>
    e73c:	03000793          	li	a5,48
    e740:	0ef107a3          	sb	a5,239(sp)
    e744:	0ef10413          	addi	s0,sp,239
    e748:	f79ff06f          	j	e6c0 <_svfiprintf_r+0x46c>
    e74c:	01096913          	ori	s2,s2,16
    e750:	02097793          	andi	a5,s2,32
    e754:	00040893          	mv	a7,s0
    e758:	f00796e3          	bnez	a5,e664 <_svfiprintf_r+0x410>
    e75c:	00c12703          	lw	a4,12(sp)
    e760:	01097793          	andi	a5,s2,16
    e764:	00470693          	addi	a3,a4,4
    e768:	040794e3          	bnez	a5,efb0 <_svfiprintf_r+0xd5c>
    e76c:	04097793          	andi	a5,s2,64
    e770:	260788e3          	beqz	a5,f1e0 <_svfiprintf_r+0xf8c>
    e774:	00c12783          	lw	a5,12(sp)
    e778:	00d12623          	sw	a3,12(sp)
    e77c:	00079c83          	lh	s9,0(a5)
    e780:	41fcdc13          	srai	s8,s9,0x1f
    e784:	000c0693          	mv	a3,s8
    e788:	f006d0e3          	bgez	a3,e688 <_svfiprintf_r+0x434>
    e78c:	019036b3          	snez	a3,s9
    e790:	41800eb3          	neg	t4,s8
    e794:	40de8c33          	sub	s8,t4,a3
    e798:	02d00693          	li	a3,45
    e79c:	02d10da3          	sb	a3,59(sp)
    e7a0:	fff00613          	li	a2,-1
    e7a4:	41900cb3          	neg	s9,s9
    e7a8:	00090d93          	mv	s11,s2
    e7ac:	00100693          	li	a3,1
    e7b0:	f6c896e3          	bne	a7,a2,e71c <_svfiprintf_r+0x4c8>
    e7b4:	00100613          	li	a2,1
    e7b8:	eec684e3          	beq	a3,a2,e6a0 <_svfiprintf_r+0x44c>
    e7bc:	00200613          	li	a2,2
    e7c0:	20c68263          	beq	a3,a2,e9c4 <_svfiprintf_r+0x770>
    e7c4:	0f010413          	addi	s0,sp,240
    e7c8:	01dc1793          	slli	a5,s8,0x1d
    e7cc:	007cf693          	andi	a3,s9,7
    e7d0:	003cdc93          	srli	s9,s9,0x3
    e7d4:	03068693          	addi	a3,a3,48
    e7d8:	0197ecb3          	or	s9,a5,s9
    e7dc:	003c5c13          	srli	s8,s8,0x3
    e7e0:	fed40fa3          	sb	a3,-1(s0)
    e7e4:	018ce7b3          	or	a5,s9,s8
    e7e8:	00040593          	mv	a1,s0
    e7ec:	fff40413          	addi	s0,s0,-1
    e7f0:	fc079ce3          	bnez	a5,e7c8 <_svfiprintf_r+0x574>
    e7f4:	001df793          	andi	a5,s11,1
    e7f8:	20078063          	beqz	a5,e9f8 <_svfiprintf_r+0x7a4>
    e7fc:	03000793          	li	a5,48
    e800:	1ef68c63          	beq	a3,a5,e9f8 <_svfiprintf_r+0x7a4>
    e804:	ffe58593          	addi	a1,a1,-2
    e808:	fef40fa3          	sb	a5,-1(s0)
    e80c:	0f010793          	addi	a5,sp,240
    e810:	40b78cb3          	sub	s9,a5,a1
    e814:	000d8913          	mv	s2,s11
    e818:	00058413          	mv	s0,a1
    e81c:	ea5ff06f          	j	e6c0 <_svfiprintf_r+0x46c>
    e820:	00040893          	mv	a7,s0
    e824:	01096d93          	ori	s11,s2,16
    e828:	020df793          	andi	a5,s11,32
    e82c:	62078a63          	beqz	a5,ee60 <_svfiprintf_r+0xc0c>
    e830:	00c12783          	lw	a5,12(sp)
    e834:	00100693          	li	a3,1
    e838:	00778913          	addi	s2,a5,7
    e83c:	ff897913          	andi	s2,s2,-8
    e840:	00890793          	addi	a5,s2,8
    e844:	00092c83          	lw	s9,0(s2)
    e848:	00492c03          	lw	s8,4(s2)
    e84c:	00f12623          	sw	a5,12(sp)
    e850:	ec1ff06f          	j	e710 <_svfiprintf_r+0x4bc>
    e854:	00c12783          	lw	a5,12(sp)
    e858:	03000693          	li	a3,48
    e85c:	02d10e23          	sb	a3,60(sp)
    e860:	0007ac83          	lw	s9,0(a5)
    e864:	00478793          	addi	a5,a5,4
    e868:	00f12623          	sw	a5,12(sp)
    e86c:	000147b7          	lui	a5,0x14
    e870:	07800693          	li	a3,120
    e874:	2b478793          	addi	a5,a5,692 # 142b4 <__clzsi2+0x9c>
    e878:	02d10ea3          	sb	a3,61(sp)
    e87c:	00040893          	mv	a7,s0
    e880:	00000c13          	li	s8,0
    e884:	00296d93          	ori	s11,s2,2
    e888:	00f12a23          	sw	a5,20(sp)
    e88c:	00200693          	li	a3,2
    e890:	e81ff06f          	j	e710 <_svfiprintf_r+0x4bc>
    e894:	0009c683          	lbu	a3,0(s3)
    e898:	08096913          	ori	s2,s2,128
    e89c:	aedff06f          	j	e388 <_svfiprintf_r+0x134>
    e8a0:	0009c683          	lbu	a3,0(s3)
    e8a4:	00198713          	addi	a4,s3,1
    e8a8:	22b68ae3          	beq	a3,a1,f2dc <_svfiprintf_r+0x1088>
    e8ac:	fd068793          	addi	a5,a3,-48
    e8b0:	00070993          	mv	s3,a4
    e8b4:	00000413          	li	s0,0
    e8b8:	acfceae3          	bltu	s9,a5,e38c <_svfiprintf_r+0x138>
    e8bc:	0009c683          	lbu	a3,0(s3)
    e8c0:	00241713          	slli	a4,s0,0x2
    e8c4:	008708b3          	add	a7,a4,s0
    e8c8:	00189893          	slli	a7,a7,0x1
    e8cc:	00f88433          	add	s0,a7,a5
    e8d0:	fd068793          	addi	a5,a3,-48
    e8d4:	00198993          	addi	s3,s3,1
    e8d8:	fefcf2e3          	bgeu	s9,a5,e8bc <_svfiprintf_r+0x668>
    e8dc:	ab1ff06f          	j	e38c <_svfiprintf_r+0x138>
    e8e0:	0009c683          	lbu	a3,0(s3)
    e8e4:	00496913          	ori	s2,s2,4
    e8e8:	aa1ff06f          	j	e388 <_svfiprintf_r+0x134>
    e8ec:	02b00793          	li	a5,43
    e8f0:	0009c683          	lbu	a3,0(s3)
    e8f4:	02f10da3          	sb	a5,59(sp)
    e8f8:	a91ff06f          	j	e388 <_svfiprintf_r+0x134>
    e8fc:	00c12703          	lw	a4,12(sp)
    e900:	0009c683          	lbu	a3,0(s3)
    e904:	00072783          	lw	a5,0(a4)
    e908:	00470713          	addi	a4,a4,4
    e90c:	00e12623          	sw	a4,12(sp)
    e910:	00f12223          	sw	a5,4(sp)
    e914:	a607dae3          	bgez	a5,e388 <_svfiprintf_r+0x134>
    e918:	40f007b3          	neg	a5,a5
    e91c:	00f12223          	sw	a5,4(sp)
    e920:	00496913          	ori	s2,s2,4
    e924:	a65ff06f          	j	e388 <_svfiprintf_r+0x134>
    e928:	0009c683          	lbu	a3,0(s3)
    e92c:	00196913          	ori	s2,s2,1
    e930:	a59ff06f          	j	e388 <_svfiprintf_r+0x134>
    e934:	03b14783          	lbu	a5,59(sp)
    e938:	0009c683          	lbu	a3,0(s3)
    e93c:	a40796e3          	bnez	a5,e388 <_svfiprintf_r+0x134>
    e940:	02000793          	li	a5,32
    e944:	02f10da3          	sb	a5,59(sp)
    e948:	a41ff06f          	j	e388 <_svfiprintf_r+0x134>
    e94c:	0009c683          	lbu	a3,0(s3)
    e950:	06800793          	li	a5,104
    e954:	7ef68e63          	beq	a3,a5,f150 <_svfiprintf_r+0xefc>
    e958:	04096913          	ori	s2,s2,64
    e95c:	a2dff06f          	j	e388 <_svfiprintf_r+0x134>
    e960:	00c12703          	lw	a4,12(sp)
    e964:	02097793          	andi	a5,s2,32
    e968:	00072683          	lw	a3,0(a4)
    e96c:	00470713          	addi	a4,a4,4
    e970:	00e12623          	sw	a4,12(sp)
    e974:	5e079c63          	bnez	a5,ef6c <_svfiprintf_r+0xd18>
    e978:	01097793          	andi	a5,s2,16
    e97c:	7e079e63          	bnez	a5,f178 <_svfiprintf_r+0xf24>
    e980:	04097793          	andi	a5,s2,64
    e984:	100794e3          	bnez	a5,f28c <_svfiprintf_r+0x1038>
    e988:	20097313          	andi	t1,s2,512
    e98c:	7e030663          	beqz	t1,f178 <_svfiprintf_r+0xf24>
    e990:	00812783          	lw	a5,8(sp)
    e994:	00f68023          	sb	a5,0(a3)
    e998:	961ff06f          	j	e2f8 <_svfiprintf_r+0xa4>
    e99c:	0009c683          	lbu	a3,0(s3)
    e9a0:	06c00793          	li	a5,108
    e9a4:	7af68e63          	beq	a3,a5,f160 <_svfiprintf_r+0xf0c>
    e9a8:	01096913          	ori	s2,s2,16
    e9ac:	9ddff06f          	j	e388 <_svfiprintf_r+0x134>
    e9b0:	00100613          	li	a2,1
    e9b4:	10c684e3          	beq	a3,a2,f2bc <_svfiprintf_r+0x1068>
    e9b8:	00200613          	li	a2,2
    e9bc:	00090d93          	mv	s11,s2
    e9c0:	e0c692e3          	bne	a3,a2,e7c4 <_svfiprintf_r+0x570>
    e9c4:	01412683          	lw	a3,20(sp)
    e9c8:	0f010413          	addi	s0,sp,240
    e9cc:	00fcf793          	andi	a5,s9,15
    e9d0:	00f687b3          	add	a5,a3,a5
    e9d4:	0007c703          	lbu	a4,0(a5)
    e9d8:	004cdc93          	srli	s9,s9,0x4
    e9dc:	01cc1793          	slli	a5,s8,0x1c
    e9e0:	0197ecb3          	or	s9,a5,s9
    e9e4:	004c5c13          	srli	s8,s8,0x4
    e9e8:	fee40fa3          	sb	a4,-1(s0)
    e9ec:	018ce7b3          	or	a5,s9,s8
    e9f0:	fff40413          	addi	s0,s0,-1
    e9f4:	fc079ce3          	bnez	a5,e9cc <_svfiprintf_r+0x778>
    e9f8:	0f010793          	addi	a5,sp,240
    e9fc:	40878cb3          	sub	s9,a5,s0
    ea00:	000d8913          	mv	s2,s11
    ea04:	cbdff06f          	j	e6c0 <_svfiprintf_r+0x46c>
    ea08:	00412703          	lw	a4,4(sp)
    ea0c:	41870db3          	sub	s11,a4,s8
    ea10:	abb050e3          	blez	s11,e4b0 <_svfiprintf_r+0x25c>
    ea14:	01000513          	li	a0,16
    ea18:	0bb556e3          	bge	a0,s11,f2c4 <_svfiprintf_r+0x1070>
    ea1c:	02812223          	sw	s0,36(sp)
    ea20:	01000693          	li	a3,16
    ea24:	000a0413          	mv	s0,s4
    ea28:	00700e93          	li	t4,7
    ea2c:	000d8a13          	mv	s4,s11
    ea30:	00098d93          	mv	s11,s3
    ea34:	00088993          	mv	s3,a7
    ea38:	00c0006f          	j	ea44 <_svfiprintf_r+0x7f0>
    ea3c:	ff0a0a13          	addi	s4,s4,-16
    ea40:	0546da63          	bge	a3,s4,ea94 <_svfiprintf_r+0x840>
    ea44:	01078793          	addi	a5,a5,16
    ea48:	00160613          	addi	a2,a2,1
    ea4c:	009d2023          	sw	s1,0(s10)
    ea50:	00dd2223          	sw	a3,4(s10)
    ea54:	04f12423          	sw	a5,72(sp)
    ea58:	04c12223          	sw	a2,68(sp)
    ea5c:	008d0d13          	addi	s10,s10,8
    ea60:	fccedee3          	bge	t4,a2,ea3c <_svfiprintf_r+0x7e8>
    ea64:	04010613          	addi	a2,sp,64
    ea68:	00040593          	mv	a1,s0
    ea6c:	000b0513          	mv	a0,s6
    ea70:	e28ff0ef          	jal	ra,e098 <__ssprint_r>
    ea74:	6e051e63          	bnez	a0,f170 <_svfiprintf_r+0xf1c>
    ea78:	01000693          	li	a3,16
    ea7c:	ff0a0a13          	addi	s4,s4,-16
    ea80:	04812783          	lw	a5,72(sp)
    ea84:	04412603          	lw	a2,68(sp)
    ea88:	000a8d13          	mv	s10,s5
    ea8c:	00700e93          	li	t4,7
    ea90:	fb46cae3          	blt	a3,s4,ea44 <_svfiprintf_r+0x7f0>
    ea94:	00098893          	mv	a7,s3
    ea98:	000d8993          	mv	s3,s11
    ea9c:	000a0d93          	mv	s11,s4
    eaa0:	00040a13          	mv	s4,s0
    eaa4:	02412403          	lw	s0,36(sp)
    eaa8:	00160613          	addi	a2,a2,1
    eaac:	008d0513          	addi	a0,s10,8
    eab0:	01b787b3          	add	a5,a5,s11
    eab4:	009d2023          	sw	s1,0(s10)
    eab8:	01bd2223          	sw	s11,4(s10)
    eabc:	04f12423          	sw	a5,72(sp)
    eac0:	04c12223          	sw	a2,68(sp)
    eac4:	00700713          	li	a4,7
    eac8:	64c74a63          	blt	a4,a2,f11c <_svfiprintf_r+0xec8>
    eacc:	41988db3          	sub	s11,a7,s9
    ead0:	00160593          	addi	a1,a2,1
    ead4:	00850693          	addi	a3,a0,8
    ead8:	00050d13          	mv	s10,a0
    eadc:	9db05ee3          	blez	s11,e4b8 <_svfiprintf_r+0x264>
    eae0:	01000513          	li	a0,16
    eae4:	73b55e63          	bge	a0,s11,f220 <_svfiprintf_r+0xfcc>
    eae8:	01000693          	li	a3,16
    eaec:	00700893          	li	a7,7
    eaf0:	00c0006f          	j	eafc <_svfiprintf_r+0x8a8>
    eaf4:	ff0d8d93          	addi	s11,s11,-16
    eaf8:	05b6da63          	bge	a3,s11,eb4c <_svfiprintf_r+0x8f8>
    eafc:	01078793          	addi	a5,a5,16
    eb00:	00160613          	addi	a2,a2,1
    eb04:	009d2023          	sw	s1,0(s10)
    eb08:	00dd2223          	sw	a3,4(s10)
    eb0c:	04f12423          	sw	a5,72(sp)
    eb10:	04c12223          	sw	a2,68(sp)
    eb14:	008d0d13          	addi	s10,s10,8
    eb18:	fcc8dee3          	bge	a7,a2,eaf4 <_svfiprintf_r+0x8a0>
    eb1c:	04010613          	addi	a2,sp,64
    eb20:	000a0593          	mv	a1,s4
    eb24:	000b0513          	mv	a0,s6
    eb28:	d70ff0ef          	jal	ra,e098 <__ssprint_r>
    eb2c:	9e0518e3          	bnez	a0,e51c <_svfiprintf_r+0x2c8>
    eb30:	01000693          	li	a3,16
    eb34:	ff0d8d93          	addi	s11,s11,-16
    eb38:	04812783          	lw	a5,72(sp)
    eb3c:	04412603          	lw	a2,68(sp)
    eb40:	000a8d13          	mv	s10,s5
    eb44:	00700893          	li	a7,7
    eb48:	fbb6cae3          	blt	a3,s11,eafc <_svfiprintf_r+0x8a8>
    eb4c:	00160593          	addi	a1,a2,1
    eb50:	008d0613          	addi	a2,s10,8
    eb54:	01b787b3          	add	a5,a5,s11
    eb58:	009d2023          	sw	s1,0(s10)
    eb5c:	01bd2223          	sw	s11,4(s10)
    eb60:	04f12423          	sw	a5,72(sp)
    eb64:	04b12223          	sw	a1,68(sp)
    eb68:	00700713          	li	a4,7
    eb6c:	32b74263          	blt	a4,a1,ee90 <_svfiprintf_r+0xc3c>
    eb70:	00060d13          	mv	s10,a2
    eb74:	00158593          	addi	a1,a1,1
    eb78:	00fc87b3          	add	a5,s9,a5
    eb7c:	008d2023          	sw	s0,0(s10)
    eb80:	019d2223          	sw	s9,4(s10)
    eb84:	04f12423          	sw	a5,72(sp)
    eb88:	04b12223          	sw	a1,68(sp)
    eb8c:	00700713          	li	a4,7
    eb90:	00860693          	addi	a3,a2,8
    eb94:	94b750e3          	bge	a4,a1,e4d4 <_svfiprintf_r+0x280>
    eb98:	04010613          	addi	a2,sp,64
    eb9c:	000a0593          	mv	a1,s4
    eba0:	000b0513          	mv	a0,s6
    eba4:	cf4ff0ef          	jal	ra,e098 <__ssprint_r>
    eba8:	96051ae3          	bnez	a0,e51c <_svfiprintf_r+0x2c8>
    ebac:	04812783          	lw	a5,72(sp)
    ebb0:	000a8693          	mv	a3,s5
    ebb4:	921ff06f          	j	e4d4 <_svfiprintf_r+0x280>
    ebb8:	04010613          	addi	a2,sp,64
    ebbc:	000a0593          	mv	a1,s4
    ebc0:	000b0513          	mv	a0,s6
    ebc4:	cd4ff0ef          	jal	ra,e098 <__ssprint_r>
    ebc8:	92050ee3          	beqz	a0,e504 <_svfiprintf_r+0x2b0>
    ebcc:	951ff06f          	j	e51c <_svfiprintf_r+0x2c8>
    ebd0:	00090d93          	mv	s11,s2
    ebd4:	be1ff06f          	j	e7b4 <_svfiprintf_r+0x560>
    ebd8:	01000693          	li	a3,16
    ebdc:	0bb6de63          	bge	a3,s11,ec98 <_svfiprintf_r+0xa44>
    ebe0:	000d0713          	mv	a4,s10
    ebe4:	00700f93          	li	t6,7
    ebe8:	000c0d13          	mv	s10,s8
    ebec:	03e12223          	sw	t5,36(sp)
    ebf0:	00090c13          	mv	s8,s2
    ebf4:	03d12423          	sw	t4,40(sp)
    ebf8:	000a0913          	mv	s2,s4
    ebfc:	00098a13          	mv	s4,s3
    ec00:	00040993          	mv	s3,s0
    ec04:	000d8413          	mv	s0,s11
    ec08:	000c8d93          	mv	s11,s9
    ec0c:	00088c93          	mv	s9,a7
    ec10:	00c0006f          	j	ec1c <_svfiprintf_r+0x9c8>
    ec14:	ff040413          	addi	s0,s0,-16
    ec18:	0486da63          	bge	a3,s0,ec6c <_svfiprintf_r+0xa18>
    ec1c:	01078793          	addi	a5,a5,16
    ec20:	00160613          	addi	a2,a2,1
    ec24:	01772023          	sw	s7,0(a4)
    ec28:	00d72223          	sw	a3,4(a4)
    ec2c:	04f12423          	sw	a5,72(sp)
    ec30:	04c12223          	sw	a2,68(sp)
    ec34:	00870713          	addi	a4,a4,8
    ec38:	fccfdee3          	bge	t6,a2,ec14 <_svfiprintf_r+0x9c0>
    ec3c:	04010613          	addi	a2,sp,64
    ec40:	00090593          	mv	a1,s2
    ec44:	000b0513          	mv	a0,s6
    ec48:	c50ff0ef          	jal	ra,e098 <__ssprint_r>
    ec4c:	4a051663          	bnez	a0,f0f8 <_svfiprintf_r+0xea4>
    ec50:	01000693          	li	a3,16
    ec54:	ff040413          	addi	s0,s0,-16
    ec58:	04812783          	lw	a5,72(sp)
    ec5c:	04412603          	lw	a2,68(sp)
    ec60:	000a8713          	mv	a4,s5
    ec64:	00700f93          	li	t6,7
    ec68:	fa86cae3          	blt	a3,s0,ec1c <_svfiprintf_r+0x9c8>
    ec6c:	02412f03          	lw	t5,36(sp)
    ec70:	02812e83          	lw	t4,40(sp)
    ec74:	000c8893          	mv	a7,s9
    ec78:	000d8c93          	mv	s9,s11
    ec7c:	00040d93          	mv	s11,s0
    ec80:	00098413          	mv	s0,s3
    ec84:	000a0993          	mv	s3,s4
    ec88:	00090a13          	mv	s4,s2
    ec8c:	000c0913          	mv	s2,s8
    ec90:	000d0c13          	mv	s8,s10
    ec94:	00070d13          	mv	s10,a4
    ec98:	01b787b3          	add	a5,a5,s11
    ec9c:	00160613          	addi	a2,a2,1
    eca0:	017d2023          	sw	s7,0(s10)
    eca4:	01bd2223          	sw	s11,4(s10)
    eca8:	04f12423          	sw	a5,72(sp)
    ecac:	04c12223          	sw	a2,68(sp)
    ecb0:	00700693          	li	a3,7
    ecb4:	008d0d13          	addi	s10,s10,8
    ecb8:	f6c6d663          	bge	a3,a2,e424 <_svfiprintf_r+0x1d0>
    ecbc:	04010613          	addi	a2,sp,64
    ecc0:	000a0593          	mv	a1,s4
    ecc4:	000b0513          	mv	a0,s6
    ecc8:	03112623          	sw	a7,44(sp)
    eccc:	03d12423          	sw	t4,40(sp)
    ecd0:	03e12223          	sw	t5,36(sp)
    ecd4:	bc4ff0ef          	jal	ra,e098 <__ssprint_r>
    ecd8:	840512e3          	bnez	a0,e51c <_svfiprintf_r+0x2c8>
    ecdc:	04812783          	lw	a5,72(sp)
    ece0:	04412603          	lw	a2,68(sp)
    ece4:	02c12883          	lw	a7,44(sp)
    ece8:	02812e83          	lw	t4,40(sp)
    ecec:	02412f03          	lw	t5,36(sp)
    ecf0:	000a8d13          	mv	s10,s5
    ecf4:	f30ff06f          	j	e424 <_svfiprintf_r+0x1d0>
    ecf8:	04010613          	addi	a2,sp,64
    ecfc:	000a0593          	mv	a1,s4
    ed00:	000b0513          	mv	a0,s6
    ed04:	03112623          	sw	a7,44(sp)
    ed08:	03d12423          	sw	t4,40(sp)
    ed0c:	03e12223          	sw	t5,36(sp)
    ed10:	b88ff0ef          	jal	ra,e098 <__ssprint_r>
    ed14:	800514e3          	bnez	a0,e51c <_svfiprintf_r+0x2c8>
    ed18:	04412603          	lw	a2,68(sp)
    ed1c:	04812783          	lw	a5,72(sp)
    ed20:	02c12883          	lw	a7,44(sp)
    ed24:	02812e83          	lw	t4,40(sp)
    ed28:	02412f03          	lw	t5,36(sp)
    ed2c:	05410693          	addi	a3,sp,84
    ed30:	00160593          	addi	a1,a2,1
    ed34:	000a8d13          	mv	s10,s5
    ed38:	f38ff06f          	j	e470 <_svfiprintf_r+0x21c>
    ed3c:	04010613          	addi	a2,sp,64
    ed40:	000a0593          	mv	a1,s4
    ed44:	000b0513          	mv	a0,s6
    ed48:	03112423          	sw	a7,40(sp)
    ed4c:	03d12223          	sw	t4,36(sp)
    ed50:	b48ff0ef          	jal	ra,e098 <__ssprint_r>
    ed54:	fc051463          	bnez	a0,e51c <_svfiprintf_r+0x2c8>
    ed58:	04412603          	lw	a2,68(sp)
    ed5c:	04812783          	lw	a5,72(sp)
    ed60:	02812883          	lw	a7,40(sp)
    ed64:	02412e83          	lw	t4,36(sp)
    ed68:	05410693          	addi	a3,sp,84
    ed6c:	00160593          	addi	a1,a2,1
    ed70:	000a8d13          	mv	s10,s5
    ed74:	f34ff06f          	j	e4a8 <_svfiprintf_r+0x254>
    ed78:	01000613          	li	a2,16
    ed7c:	04412703          	lw	a4,68(sp)
    ed80:	07965063          	bge	a2,s9,ede0 <_svfiprintf_r+0xb8c>
    ed84:	01000d93          	li	s11,16
    ed88:	00700413          	li	s0,7
    ed8c:	00c0006f          	j	ed98 <_svfiprintf_r+0xb44>
    ed90:	ff0c8c93          	addi	s9,s9,-16
    ed94:	059dd663          	bge	s11,s9,ede0 <_svfiprintf_r+0xb8c>
    ed98:	01078793          	addi	a5,a5,16
    ed9c:	00170713          	addi	a4,a4,1
    eda0:	0176a023          	sw	s7,0(a3)
    eda4:	01b6a223          	sw	s11,4(a3)
    eda8:	04f12423          	sw	a5,72(sp)
    edac:	04e12223          	sw	a4,68(sp)
    edb0:	00868693          	addi	a3,a3,8
    edb4:	fce45ee3          	bge	s0,a4,ed90 <_svfiprintf_r+0xb3c>
    edb8:	04010613          	addi	a2,sp,64
    edbc:	000a0593          	mv	a1,s4
    edc0:	000b0513          	mv	a0,s6
    edc4:	ad4ff0ef          	jal	ra,e098 <__ssprint_r>
    edc8:	f4051a63          	bnez	a0,e51c <_svfiprintf_r+0x2c8>
    edcc:	ff0c8c93          	addi	s9,s9,-16
    edd0:	04812783          	lw	a5,72(sp)
    edd4:	04412703          	lw	a4,68(sp)
    edd8:	000a8693          	mv	a3,s5
    eddc:	fb9dcee3          	blt	s11,s9,ed98 <_svfiprintf_r+0xb44>
    ede0:	019787b3          	add	a5,a5,s9
    ede4:	00170713          	addi	a4,a4,1
    ede8:	0176a023          	sw	s7,0(a3)
    edec:	0196a223          	sw	s9,4(a3)
    edf0:	04f12423          	sw	a5,72(sp)
    edf4:	04e12223          	sw	a4,68(sp)
    edf8:	00700693          	li	a3,7
    edfc:	eee6d663          	bge	a3,a4,e4e8 <_svfiprintf_r+0x294>
    ee00:	04010613          	addi	a2,sp,64
    ee04:	000a0593          	mv	a1,s4
    ee08:	000b0513          	mv	a0,s6
    ee0c:	a8cff0ef          	jal	ra,e098 <__ssprint_r>
    ee10:	f0051663          	bnez	a0,e51c <_svfiprintf_r+0x2c8>
    ee14:	04812783          	lw	a5,72(sp)
    ee18:	ed0ff06f          	j	e4e8 <_svfiprintf_r+0x294>
    ee1c:	880898e3          	bnez	a7,e6ac <_svfiprintf_r+0x458>
    ee20:	000d8913          	mv	s2,s11
    ee24:	00000893          	li	a7,0
    ee28:	00000c93          	li	s9,0
    ee2c:	0f010413          	addi	s0,sp,240
    ee30:	891ff06f          	j	e6c0 <_svfiprintf_r+0x46c>
    ee34:	00c12703          	lw	a4,12(sp)
    ee38:	01097793          	andi	a5,s2,16
    ee3c:	00470693          	addi	a3,a4,4
    ee40:	18079263          	bnez	a5,efc4 <_svfiprintf_r+0xd70>
    ee44:	04097793          	andi	a5,s2,64
    ee48:	36078e63          	beqz	a5,f1c4 <_svfiprintf_r+0xf70>
    ee4c:	00c12783          	lw	a5,12(sp)
    ee50:	00000c13          	li	s8,0
    ee54:	00d12623          	sw	a3,12(sp)
    ee58:	0007dc83          	lhu	s9,0(a5)
    ee5c:	8adff06f          	j	e708 <_svfiprintf_r+0x4b4>
    ee60:	00c12703          	lw	a4,12(sp)
    ee64:	010df793          	andi	a5,s11,16
    ee68:	00470693          	addi	a3,a4,4
    ee6c:	10079a63          	bnez	a5,ef80 <_svfiprintf_r+0xd2c>
    ee70:	040df793          	andi	a5,s11,64
    ee74:	38078663          	beqz	a5,f200 <_svfiprintf_r+0xfac>
    ee78:	00c12783          	lw	a5,12(sp)
    ee7c:	00000c13          	li	s8,0
    ee80:	00d12623          	sw	a3,12(sp)
    ee84:	0007dc83          	lhu	s9,0(a5)
    ee88:	00100693          	li	a3,1
    ee8c:	885ff06f          	j	e710 <_svfiprintf_r+0x4bc>
    ee90:	04010613          	addi	a2,sp,64
    ee94:	000a0593          	mv	a1,s4
    ee98:	000b0513          	mv	a0,s6
    ee9c:	9fcff0ef          	jal	ra,e098 <__ssprint_r>
    eea0:	e6051e63          	bnez	a0,e51c <_svfiprintf_r+0x2c8>
    eea4:	04412583          	lw	a1,68(sp)
    eea8:	04812783          	lw	a5,72(sp)
    eeac:	05410693          	addi	a3,sp,84
    eeb0:	00158593          	addi	a1,a1,1
    eeb4:	000a8d13          	mv	s10,s5
    eeb8:	e00ff06f          	j	e4b8 <_svfiprintf_r+0x264>
    eebc:	400df793          	andi	a5,s11,1024
    eec0:	03412423          	sw	s4,40(sp)
    eec4:	03312623          	sw	s3,44(sp)
    eec8:	000c0a13          	mv	s4,s8
    eecc:	000c8993          	mv	s3,s9
    eed0:	00000913          	li	s2,0
    eed4:	01812c83          	lw	s9,24(sp)
    eed8:	0f010413          	addi	s0,sp,240
    eedc:	03112223          	sw	a7,36(sp)
    eee0:	00078c13          	mv	s8,a5
    eee4:	0240006f          	j	ef08 <_svfiprintf_r+0xcb4>
    eee8:	00a00613          	li	a2,10
    eeec:	00000693          	li	a3,0
    eef0:	00098513          	mv	a0,s3
    eef4:	000a0593          	mv	a1,s4
    eef8:	641000ef          	jal	ra,fd38 <__udivdi3>
    eefc:	320a0663          	beqz	s4,f228 <_svfiprintf_r+0xfd4>
    ef00:	00050993          	mv	s3,a0
    ef04:	00058a13          	mv	s4,a1
    ef08:	00a00613          	li	a2,10
    ef0c:	00000693          	li	a3,0
    ef10:	00098513          	mv	a0,s3
    ef14:	000a0593          	mv	a1,s4
    ef18:	254010ef          	jal	ra,1016c <__umoddi3>
    ef1c:	03050513          	addi	a0,a0,48
    ef20:	fea40fa3          	sb	a0,-1(s0)
    ef24:	00190913          	addi	s2,s2,1
    ef28:	fff40413          	addi	s0,s0,-1
    ef2c:	fa0c0ee3          	beqz	s8,eee8 <_svfiprintf_r+0xc94>
    ef30:	000cc683          	lbu	a3,0(s9)
    ef34:	fb269ae3          	bne	a3,s2,eee8 <_svfiprintf_r+0xc94>
    ef38:	0ff00793          	li	a5,255
    ef3c:	faf906e3          	beq	s2,a5,eee8 <_svfiprintf_r+0xc94>
    ef40:	160a1c63          	bnez	s4,f0b8 <_svfiprintf_r+0xe64>
    ef44:	00900793          	li	a5,9
    ef48:	1737e863          	bltu	a5,s3,f0b8 <_svfiprintf_r+0xe64>
    ef4c:	0f010793          	addi	a5,sp,240
    ef50:	01912c23          	sw	s9,24(sp)
    ef54:	02412883          	lw	a7,36(sp)
    ef58:	02812a03          	lw	s4,40(sp)
    ef5c:	02c12983          	lw	s3,44(sp)
    ef60:	40878cb3          	sub	s9,a5,s0
    ef64:	000d8913          	mv	s2,s11
    ef68:	f58ff06f          	j	e6c0 <_svfiprintf_r+0x46c>
    ef6c:	00812703          	lw	a4,8(sp)
    ef70:	41f75793          	srai	a5,a4,0x1f
    ef74:	00e6a023          	sw	a4,0(a3)
    ef78:	00f6a223          	sw	a5,4(a3)
    ef7c:	b7cff06f          	j	e2f8 <_svfiprintf_r+0xa4>
    ef80:	00d12623          	sw	a3,12(sp)
    ef84:	00072c83          	lw	s9,0(a4)
    ef88:	00000c13          	li	s8,0
    ef8c:	00100693          	li	a3,1
    ef90:	f80ff06f          	j	e710 <_svfiprintf_r+0x4bc>
    ef94:	01812783          	lw	a5,24(sp)
    ef98:	0009c683          	lbu	a3,0(s3)
    ef9c:	be078663          	beqz	a5,e388 <_svfiprintf_r+0x134>
    efa0:	0007c783          	lbu	a5,0(a5)
    efa4:	be078263          	beqz	a5,e388 <_svfiprintf_r+0x134>
    efa8:	40096913          	ori	s2,s2,1024
    efac:	bdcff06f          	j	e388 <_svfiprintf_r+0x134>
    efb0:	00072c83          	lw	s9,0(a4)
    efb4:	00d12623          	sw	a3,12(sp)
    efb8:	41fcdc13          	srai	s8,s9,0x1f
    efbc:	000c0693          	mv	a3,s8
    efc0:	ec4ff06f          	j	e684 <_svfiprintf_r+0x430>
    efc4:	00072c83          	lw	s9,0(a4)
    efc8:	00000c13          	li	s8,0
    efcc:	00d12623          	sw	a3,12(sp)
    efd0:	f38ff06f          	j	e708 <_svfiprintf_r+0x4b4>
    efd4:	000147b7          	lui	a5,0x14
    efd8:	2c878793          	addi	a5,a5,712 # 142c8 <__clzsi2+0xb0>
    efdc:	00f12a23          	sw	a5,20(sp)
    efe0:	02097793          	andi	a5,s2,32
    efe4:	00040893          	mv	a7,s0
    efe8:	06078c63          	beqz	a5,f060 <_svfiprintf_r+0xe0c>
    efec:	00c12783          	lw	a5,12(sp)
    eff0:	00778793          	addi	a5,a5,7
    eff4:	ff87f793          	andi	a5,a5,-8
    eff8:	0007ac83          	lw	s9,0(a5)
    effc:	0047ac03          	lw	s8,4(a5)
    f000:	00878793          	addi	a5,a5,8
    f004:	00f12623          	sw	a5,12(sp)
    f008:	00197613          	andi	a2,s2,1
    f00c:	00060e63          	beqz	a2,f028 <_svfiprintf_r+0xdd4>
    f010:	018ce633          	or	a2,s9,s8
    f014:	00060a63          	beqz	a2,f028 <_svfiprintf_r+0xdd4>
    f018:	03000613          	li	a2,48
    f01c:	02c10e23          	sb	a2,60(sp)
    f020:	02d10ea3          	sb	a3,61(sp)
    f024:	00296913          	ori	s2,s2,2
    f028:	bff97d93          	andi	s11,s2,-1025
    f02c:	00200693          	li	a3,2
    f030:	ee0ff06f          	j	e710 <_svfiprintf_r+0x4bc>
    f034:	00040893          	mv	a7,s0
    f038:	00090d93          	mv	s11,s2
    f03c:	fecff06f          	j	e828 <_svfiprintf_r+0x5d4>
    f040:	00040893          	mv	a7,s0
    f044:	ea0ff06f          	j	e6e4 <_svfiprintf_r+0x490>
    f048:	000147b7          	lui	a5,0x14
    f04c:	2b478793          	addi	a5,a5,692 # 142b4 <__clzsi2+0x9c>
    f050:	00f12a23          	sw	a5,20(sp)
    f054:	02097793          	andi	a5,s2,32
    f058:	00040893          	mv	a7,s0
    f05c:	f80798e3          	bnez	a5,efec <_svfiprintf_r+0xd98>
    f060:	00c12703          	lw	a4,12(sp)
    f064:	01097793          	andi	a5,s2,16
    f068:	00470613          	addi	a2,a4,4
    f06c:	08078a63          	beqz	a5,f100 <_svfiprintf_r+0xeac>
    f070:	00072c83          	lw	s9,0(a4)
    f074:	00000c13          	li	s8,0
    f078:	00c12623          	sw	a2,12(sp)
    f07c:	f8dff06f          	j	f008 <_svfiprintf_r+0xdb4>
    f080:	00040513          	mv	a0,s0
    f084:	c6df90ef          	jal	ra,8cf0 <strlen>
    f088:	00050c93          	mv	s9,a0
    f08c:	01b12623          	sw	s11,12(sp)
    f090:	00000893          	li	a7,0
    f094:	e2cff06f          	j	e6c0 <_svfiprintf_r+0x46c>
    f098:	04000593          	li	a1,64
    f09c:	c89f70ef          	jal	ra,6d24 <_malloc_r>
    f0a0:	00aa2023          	sw	a0,0(s4)
    f0a4:	00aa2823          	sw	a0,16(s4)
    f0a8:	24050c63          	beqz	a0,f300 <_svfiprintf_r+0x10ac>
    f0ac:	04000793          	li	a5,64
    f0b0:	00fa2a23          	sw	a5,20(s4)
    f0b4:	9fcff06f          	j	e2b0 <_svfiprintf_r+0x5c>
    f0b8:	02012783          	lw	a5,32(sp)
    f0bc:	01c12583          	lw	a1,28(sp)
    f0c0:	00000913          	li	s2,0
    f0c4:	40f40433          	sub	s0,s0,a5
    f0c8:	00078613          	mv	a2,a5
    f0cc:	00040513          	mv	a0,s0
    f0d0:	cadf90ef          	jal	ra,8d7c <strncpy>
    f0d4:	001cc583          	lbu	a1,1(s9)
    f0d8:	00a00613          	li	a2,10
    f0dc:	00000693          	li	a3,0
    f0e0:	00b03833          	snez	a6,a1
    f0e4:	00098513          	mv	a0,s3
    f0e8:	000a0593          	mv	a1,s4
    f0ec:	010c8cb3          	add	s9,s9,a6
    f0f0:	449000ef          	jal	ra,fd38 <__udivdi3>
    f0f4:	e0dff06f          	j	ef00 <_svfiprintf_r+0xcac>
    f0f8:	00090a13          	mv	s4,s2
    f0fc:	c20ff06f          	j	e51c <_svfiprintf_r+0x2c8>
    f100:	04097793          	andi	a5,s2,64
    f104:	0a078263          	beqz	a5,f1a8 <_svfiprintf_r+0xf54>
    f108:	00c12783          	lw	a5,12(sp)
    f10c:	00000c13          	li	s8,0
    f110:	00c12623          	sw	a2,12(sp)
    f114:	0007dc83          	lhu	s9,0(a5)
    f118:	ef1ff06f          	j	f008 <_svfiprintf_r+0xdb4>
    f11c:	04010613          	addi	a2,sp,64
    f120:	000a0593          	mv	a1,s4
    f124:	000b0513          	mv	a0,s6
    f128:	03112223          	sw	a7,36(sp)
    f12c:	f6dfe0ef          	jal	ra,e098 <__ssprint_r>
    f130:	be051663          	bnez	a0,e51c <_svfiprintf_r+0x2c8>
    f134:	04412603          	lw	a2,68(sp)
    f138:	04812783          	lw	a5,72(sp)
    f13c:	02412883          	lw	a7,36(sp)
    f140:	05410693          	addi	a3,sp,84
    f144:	00160593          	addi	a1,a2,1
    f148:	000a8d13          	mv	s10,s5
    f14c:	b64ff06f          	j	e4b0 <_svfiprintf_r+0x25c>
    f150:	0019c683          	lbu	a3,1(s3)
    f154:	20096913          	ori	s2,s2,512
    f158:	00198993          	addi	s3,s3,1
    f15c:	a2cff06f          	j	e388 <_svfiprintf_r+0x134>
    f160:	0019c683          	lbu	a3,1(s3)
    f164:	02096913          	ori	s2,s2,32
    f168:	00198993          	addi	s3,s3,1
    f16c:	a1cff06f          	j	e388 <_svfiprintf_r+0x134>
    f170:	00040a13          	mv	s4,s0
    f174:	ba8ff06f          	j	e51c <_svfiprintf_r+0x2c8>
    f178:	00812783          	lw	a5,8(sp)
    f17c:	00f6a023          	sw	a5,0(a3)
    f180:	978ff06f          	j	e2f8 <_svfiprintf_r+0xa4>
    f184:	00600793          	li	a5,6
    f188:	00088c93          	mv	s9,a7
    f18c:	0117f463          	bgeu	a5,a7,f194 <_svfiprintf_r+0xf40>
    f190:	00600c93          	li	s9,6
    f194:	00014e37          	lui	t3,0x14
    f198:	000c8c13          	mv	s8,s9
    f19c:	01b12623          	sw	s11,12(sp)
    f1a0:	2dce0413          	addi	s0,t3,732 # 142dc <__clzsi2+0xc4>
    f1a4:	a54ff06f          	j	e3f8 <_svfiprintf_r+0x1a4>
    f1a8:	20097793          	andi	a5,s2,512
    f1ac:	0c078663          	beqz	a5,f278 <_svfiprintf_r+0x1024>
    f1b0:	00c12783          	lw	a5,12(sp)
    f1b4:	00000c13          	li	s8,0
    f1b8:	00c12623          	sw	a2,12(sp)
    f1bc:	0007cc83          	lbu	s9,0(a5)
    f1c0:	e49ff06f          	j	f008 <_svfiprintf_r+0xdb4>
    f1c4:	20097793          	andi	a5,s2,512
    f1c8:	08078e63          	beqz	a5,f264 <_svfiprintf_r+0x1010>
    f1cc:	00c12783          	lw	a5,12(sp)
    f1d0:	00000c13          	li	s8,0
    f1d4:	00d12623          	sw	a3,12(sp)
    f1d8:	0007cc83          	lbu	s9,0(a5)
    f1dc:	d2cff06f          	j	e708 <_svfiprintf_r+0x4b4>
    f1e0:	20097793          	andi	a5,s2,512
    f1e4:	06078463          	beqz	a5,f24c <_svfiprintf_r+0xff8>
    f1e8:	00c12783          	lw	a5,12(sp)
    f1ec:	00d12623          	sw	a3,12(sp)
    f1f0:	00078c83          	lb	s9,0(a5)
    f1f4:	41fcdc13          	srai	s8,s9,0x1f
    f1f8:	000c0693          	mv	a3,s8
    f1fc:	c88ff06f          	j	e684 <_svfiprintf_r+0x430>
    f200:	200df793          	andi	a5,s11,512
    f204:	02078863          	beqz	a5,f234 <_svfiprintf_r+0xfe0>
    f208:	00c12783          	lw	a5,12(sp)
    f20c:	00000c13          	li	s8,0
    f210:	00d12623          	sw	a3,12(sp)
    f214:	0007cc83          	lbu	s9,0(a5)
    f218:	00100693          	li	a3,1
    f21c:	cf4ff06f          	j	e710 <_svfiprintf_r+0x4bc>
    f220:	00068613          	mv	a2,a3
    f224:	931ff06f          	j	eb54 <_svfiprintf_r+0x900>
    f228:	00900793          	li	a5,9
    f22c:	cd37eae3          	bltu	a5,s3,ef00 <_svfiprintf_r+0xcac>
    f230:	d1dff06f          	j	ef4c <_svfiprintf_r+0xcf8>
    f234:	00c12783          	lw	a5,12(sp)
    f238:	00000c13          	li	s8,0
    f23c:	00d12623          	sw	a3,12(sp)
    f240:	0007ac83          	lw	s9,0(a5)
    f244:	00100693          	li	a3,1
    f248:	cc8ff06f          	j	e710 <_svfiprintf_r+0x4bc>
    f24c:	00c12783          	lw	a5,12(sp)
    f250:	00d12623          	sw	a3,12(sp)
    f254:	0007ac83          	lw	s9,0(a5)
    f258:	41fcdc13          	srai	s8,s9,0x1f
    f25c:	000c0693          	mv	a3,s8
    f260:	c24ff06f          	j	e684 <_svfiprintf_r+0x430>
    f264:	00c12783          	lw	a5,12(sp)
    f268:	00000c13          	li	s8,0
    f26c:	00d12623          	sw	a3,12(sp)
    f270:	0007ac83          	lw	s9,0(a5)
    f274:	c94ff06f          	j	e708 <_svfiprintf_r+0x4b4>
    f278:	00c12783          	lw	a5,12(sp)
    f27c:	00000c13          	li	s8,0
    f280:	00c12623          	sw	a2,12(sp)
    f284:	0007ac83          	lw	s9,0(a5)
    f288:	d81ff06f          	j	f008 <_svfiprintf_r+0xdb4>
    f28c:	00812783          	lw	a5,8(sp)
    f290:	00f69023          	sh	a5,0(a3)
    f294:	864ff06f          	j	e2f8 <_svfiprintf_r+0xa4>
    f298:	04010613          	addi	a2,sp,64
    f29c:	000a0593          	mv	a1,s4
    f2a0:	000b0513          	mv	a0,s6
    f2a4:	df5fe0ef          	jal	ra,e098 <__ssprint_r>
    f2a8:	a74ff06f          	j	e51c <_svfiprintf_r+0x2c8>
    f2ac:	00088c93          	mv	s9,a7
    f2b0:	01b12623          	sw	s11,12(sp)
    f2b4:	00000893          	li	a7,0
    f2b8:	c08ff06f          	j	e6c0 <_svfiprintf_r+0x46c>
    f2bc:	00090d93          	mv	s11,s2
    f2c0:	becff06f          	j	e6ac <_svfiprintf_r+0x458>
    f2c4:	00068513          	mv	a0,a3
    f2c8:	00058613          	mv	a2,a1
    f2cc:	fe4ff06f          	j	eab0 <_svfiprintf_r+0x85c>
    f2d0:	fff00793          	li	a5,-1
    f2d4:	00f12423          	sw	a5,8(sp)
    f2d8:	a50ff06f          	j	e528 <_svfiprintf_r+0x2d4>
    f2dc:	00c12783          	lw	a5,12(sp)
    f2e0:	0007a403          	lw	s0,0(a5)
    f2e4:	00478793          	addi	a5,a5,4
    f2e8:	00045463          	bgez	s0,f2f0 <_svfiprintf_r+0x109c>
    f2ec:	fff00413          	li	s0,-1
    f2f0:	0019c683          	lbu	a3,1(s3)
    f2f4:	00f12623          	sw	a5,12(sp)
    f2f8:	00070993          	mv	s3,a4
    f2fc:	88cff06f          	j	e388 <_svfiprintf_r+0x134>
    f300:	00c00793          	li	a5,12
    f304:	00fb2023          	sw	a5,0(s6)
    f308:	fff00793          	li	a5,-1
    f30c:	00f12423          	sw	a5,8(sp)
    f310:	a18ff06f          	j	e528 <_svfiprintf_r+0x2d4>

0000f314 <__swbuf_r>:
    f314:	fe010113          	addi	sp,sp,-32
    f318:	00812c23          	sw	s0,24(sp)
    f31c:	00912a23          	sw	s1,20(sp)
    f320:	01212823          	sw	s2,16(sp)
    f324:	00112e23          	sw	ra,28(sp)
    f328:	01312623          	sw	s3,12(sp)
    f32c:	00050913          	mv	s2,a0
    f330:	00058493          	mv	s1,a1
    f334:	00060413          	mv	s0,a2
    f338:	00050663          	beqz	a0,f344 <__swbuf_r+0x30>
    f33c:	03852783          	lw	a5,56(a0)
    f340:	14078863          	beqz	a5,f490 <__swbuf_r+0x17c>
    f344:	00c41703          	lh	a4,12(s0)
    f348:	01842683          	lw	a3,24(s0)
    f34c:	00877793          	andi	a5,a4,8
    f350:	00d42423          	sw	a3,8(s0)
    f354:	01071693          	slli	a3,a4,0x10
    f358:	0106d693          	srli	a3,a3,0x10
    f35c:	08078263          	beqz	a5,f3e0 <__swbuf_r+0xcc>
    f360:	01042783          	lw	a5,16(s0)
    f364:	06078e63          	beqz	a5,f3e0 <__swbuf_r+0xcc>
    f368:	01269613          	slli	a2,a3,0x12
    f36c:	0ff4f993          	andi	s3,s1,255
    f370:	0ff4f493          	andi	s1,s1,255
    f374:	08065e63          	bgez	a2,f410 <__swbuf_r+0xfc>
    f378:	00042703          	lw	a4,0(s0)
    f37c:	01442683          	lw	a3,20(s0)
    f380:	40f707b3          	sub	a5,a4,a5
    f384:	0ad7de63          	bge	a5,a3,f440 <__swbuf_r+0x12c>
    f388:	00842683          	lw	a3,8(s0)
    f38c:	00170613          	addi	a2,a4,1
    f390:	00c42023          	sw	a2,0(s0)
    f394:	fff68693          	addi	a3,a3,-1
    f398:	00d42423          	sw	a3,8(s0)
    f39c:	01370023          	sb	s3,0(a4)
    f3a0:	01442703          	lw	a4,20(s0)
    f3a4:	00178793          	addi	a5,a5,1
    f3a8:	0cf70863          	beq	a4,a5,f478 <__swbuf_r+0x164>
    f3ac:	00c45783          	lhu	a5,12(s0)
    f3b0:	0017f793          	andi	a5,a5,1
    f3b4:	00078663          	beqz	a5,f3c0 <__swbuf_r+0xac>
    f3b8:	00a00793          	li	a5,10
    f3bc:	0af48e63          	beq	s1,a5,f478 <__swbuf_r+0x164>
    f3c0:	01c12083          	lw	ra,28(sp)
    f3c4:	01812403          	lw	s0,24(sp)
    f3c8:	01012903          	lw	s2,16(sp)
    f3cc:	00c12983          	lw	s3,12(sp)
    f3d0:	00048513          	mv	a0,s1
    f3d4:	01412483          	lw	s1,20(sp)
    f3d8:	02010113          	addi	sp,sp,32
    f3dc:	00008067          	ret
    f3e0:	00040593          	mv	a1,s0
    f3e4:	00090513          	mv	a0,s2
    f3e8:	d05f30ef          	jal	ra,30ec <__swsetup_r>
    f3ec:	08051e63          	bnez	a0,f488 <__swbuf_r+0x174>
    f3f0:	00c41703          	lh	a4,12(s0)
    f3f4:	0ff4f993          	andi	s3,s1,255
    f3f8:	01042783          	lw	a5,16(s0)
    f3fc:	01071693          	slli	a3,a4,0x10
    f400:	0106d693          	srli	a3,a3,0x10
    f404:	01269613          	slli	a2,a3,0x12
    f408:	0ff4f493          	andi	s1,s1,255
    f40c:	f60646e3          	bltz	a2,f378 <__swbuf_r+0x64>
    f410:	06442683          	lw	a3,100(s0)
    f414:	00002637          	lui	a2,0x2
    f418:	00c76733          	or	a4,a4,a2
    f41c:	ffffe637          	lui	a2,0xffffe
    f420:	fff60613          	addi	a2,a2,-1 # ffffdfff <//.+0xfffe8087>
    f424:	00c6f6b3          	and	a3,a3,a2
    f428:	00e41623          	sh	a4,12(s0)
    f42c:	00042703          	lw	a4,0(s0)
    f430:	06d42223          	sw	a3,100(s0)
    f434:	01442683          	lw	a3,20(s0)
    f438:	40f707b3          	sub	a5,a4,a5
    f43c:	f4d7c6e3          	blt	a5,a3,f388 <__swbuf_r+0x74>
    f440:	00040593          	mv	a1,s0
    f444:	00090513          	mv	a0,s2
    f448:	97cf40ef          	jal	ra,35c4 <_fflush_r>
    f44c:	02051e63          	bnez	a0,f488 <__swbuf_r+0x174>
    f450:	00042703          	lw	a4,0(s0)
    f454:	00842683          	lw	a3,8(s0)
    f458:	00100793          	li	a5,1
    f45c:	00170613          	addi	a2,a4,1
    f460:	fff68693          	addi	a3,a3,-1
    f464:	00c42023          	sw	a2,0(s0)
    f468:	00d42423          	sw	a3,8(s0)
    f46c:	01370023          	sb	s3,0(a4)
    f470:	01442703          	lw	a4,20(s0)
    f474:	f2f71ce3          	bne	a4,a5,f3ac <__swbuf_r+0x98>
    f478:	00040593          	mv	a1,s0
    f47c:	00090513          	mv	a0,s2
    f480:	944f40ef          	jal	ra,35c4 <_fflush_r>
    f484:	f2050ee3          	beqz	a0,f3c0 <__swbuf_r+0xac>
    f488:	fff00493          	li	s1,-1
    f48c:	f35ff06f          	j	f3c0 <__swbuf_r+0xac>
    f490:	cd0f40ef          	jal	ra,3960 <__sinit>
    f494:	eb1ff06f          	j	f344 <__swbuf_r+0x30>

0000f498 <__swbuf>:
    f498:	00050793          	mv	a5,a0
    f49c:	1d81a503          	lw	a0,472(gp) # 15a90 <_impure_ptr>
    f4a0:	00058613          	mv	a2,a1
    f4a4:	00078593          	mv	a1,a5
    f4a8:	e6dff06f          	j	f314 <__swbuf_r>

0000f4ac <_wcrtomb_r>:
    f4ac:	fe010113          	addi	sp,sp,-32
    f4b0:	00812c23          	sw	s0,24(sp)
    f4b4:	00912a23          	sw	s1,20(sp)
    f4b8:	00112e23          	sw	ra,28(sp)
    f4bc:	d201a783          	lw	a5,-736(gp) # 155d8 <__global_locale+0xe0>
    f4c0:	00050413          	mv	s0,a0
    f4c4:	00068493          	mv	s1,a3
    f4c8:	02058263          	beqz	a1,f4ec <_wcrtomb_r+0x40>
    f4cc:	000780e7          	jalr	a5
    f4d0:	fff00793          	li	a5,-1
    f4d4:	02f50663          	beq	a0,a5,f500 <_wcrtomb_r+0x54>
    f4d8:	01c12083          	lw	ra,28(sp)
    f4dc:	01812403          	lw	s0,24(sp)
    f4e0:	01412483          	lw	s1,20(sp)
    f4e4:	02010113          	addi	sp,sp,32
    f4e8:	00008067          	ret
    f4ec:	00000613          	li	a2,0
    f4f0:	00410593          	addi	a1,sp,4
    f4f4:	000780e7          	jalr	a5
    f4f8:	fff00793          	li	a5,-1
    f4fc:	fcf51ee3          	bne	a0,a5,f4d8 <_wcrtomb_r+0x2c>
    f500:	0004a023          	sw	zero,0(s1)
    f504:	08a00793          	li	a5,138
    f508:	01c12083          	lw	ra,28(sp)
    f50c:	00f42023          	sw	a5,0(s0)
    f510:	01812403          	lw	s0,24(sp)
    f514:	01412483          	lw	s1,20(sp)
    f518:	02010113          	addi	sp,sp,32
    f51c:	00008067          	ret

0000f520 <wcrtomb>:
    f520:	fe010113          	addi	sp,sp,-32
    f524:	00812c23          	sw	s0,24(sp)
    f528:	00912a23          	sw	s1,20(sp)
    f52c:	00112e23          	sw	ra,28(sp)
    f530:	1d81a483          	lw	s1,472(gp) # 15a90 <_impure_ptr>
    f534:	d201a783          	lw	a5,-736(gp) # 155d8 <__global_locale+0xe0>
    f538:	00060413          	mv	s0,a2
    f53c:	02050a63          	beqz	a0,f570 <wcrtomb+0x50>
    f540:	00058613          	mv	a2,a1
    f544:	00040693          	mv	a3,s0
    f548:	00050593          	mv	a1,a0
    f54c:	00048513          	mv	a0,s1
    f550:	000780e7          	jalr	a5
    f554:	fff00793          	li	a5,-1
    f558:	02f50a63          	beq	a0,a5,f58c <wcrtomb+0x6c>
    f55c:	01c12083          	lw	ra,28(sp)
    f560:	01812403          	lw	s0,24(sp)
    f564:	01412483          	lw	s1,20(sp)
    f568:	02010113          	addi	sp,sp,32
    f56c:	00008067          	ret
    f570:	00060693          	mv	a3,a2
    f574:	00410593          	addi	a1,sp,4
    f578:	00000613          	li	a2,0
    f57c:	00048513          	mv	a0,s1
    f580:	000780e7          	jalr	a5
    f584:	fff00793          	li	a5,-1
    f588:	fcf51ae3          	bne	a0,a5,f55c <wcrtomb+0x3c>
    f58c:	00042023          	sw	zero,0(s0)
    f590:	01c12083          	lw	ra,28(sp)
    f594:	01812403          	lw	s0,24(sp)
    f598:	08a00793          	li	a5,138
    f59c:	00f4a023          	sw	a5,0(s1)
    f5a0:	01412483          	lw	s1,20(sp)
    f5a4:	02010113          	addi	sp,sp,32
    f5a8:	00008067          	ret

0000f5ac <abort>:
    f5ac:	ff010113          	addi	sp,sp,-16
    f5b0:	00600513          	li	a0,6
    f5b4:	00112623          	sw	ra,12(sp)
    f5b8:	324000ef          	jal	ra,f8dc <raise>
    f5bc:	00100513          	li	a0,1
    f5c0:	420000ef          	jal	ra,f9e0 <_exit>

0000f5c4 <__register_exitproc>:
    f5c4:	1d01a703          	lw	a4,464(gp) # 15a88 <_global_impure_ptr>
    f5c8:	14872783          	lw	a5,328(a4)
    f5cc:	04078c63          	beqz	a5,f624 <__register_exitproc+0x60>
    f5d0:	0047a703          	lw	a4,4(a5)
    f5d4:	01f00813          	li	a6,31
    f5d8:	06e84e63          	blt	a6,a4,f654 <__register_exitproc+0x90>
    f5dc:	00271813          	slli	a6,a4,0x2
    f5e0:	02050663          	beqz	a0,f60c <__register_exitproc+0x48>
    f5e4:	01078333          	add	t1,a5,a6
    f5e8:	08c32423          	sw	a2,136(t1)
    f5ec:	1887a883          	lw	a7,392(a5)
    f5f0:	00100613          	li	a2,1
    f5f4:	00e61633          	sll	a2,a2,a4
    f5f8:	00c8e8b3          	or	a7,a7,a2
    f5fc:	1917a423          	sw	a7,392(a5)
    f600:	10d32423          	sw	a3,264(t1)
    f604:	00200693          	li	a3,2
    f608:	02d50463          	beq	a0,a3,f630 <__register_exitproc+0x6c>
    f60c:	00170713          	addi	a4,a4,1
    f610:	00e7a223          	sw	a4,4(a5)
    f614:	010787b3          	add	a5,a5,a6
    f618:	00b7a423          	sw	a1,8(a5)
    f61c:	00000513          	li	a0,0
    f620:	00008067          	ret
    f624:	14c70793          	addi	a5,a4,332
    f628:	14f72423          	sw	a5,328(a4)
    f62c:	fa5ff06f          	j	f5d0 <__register_exitproc+0xc>
    f630:	18c7a683          	lw	a3,396(a5)
    f634:	00170713          	addi	a4,a4,1
    f638:	00e7a223          	sw	a4,4(a5)
    f63c:	00c6e633          	or	a2,a3,a2
    f640:	18c7a623          	sw	a2,396(a5)
    f644:	010787b3          	add	a5,a5,a6
    f648:	00b7a423          	sw	a1,8(a5)
    f64c:	00000513          	li	a0,0
    f650:	00008067          	ret
    f654:	fff00513          	li	a0,-1
    f658:	00008067          	ret

0000f65c <_init_signal_r.part.0>:
    f65c:	ff010113          	addi	sp,sp,-16
    f660:	08000593          	li	a1,128
    f664:	00812423          	sw	s0,8(sp)
    f668:	00112623          	sw	ra,12(sp)
    f66c:	00050413          	mv	s0,a0
    f670:	eb4f70ef          	jal	ra,6d24 <_malloc_r>
    f674:	2ca42e23          	sw	a0,732(s0)
    f678:	02050463          	beqz	a0,f6a0 <_init_signal_r.part.0+0x44>
    f67c:	08050793          	addi	a5,a0,128
    f680:	00052023          	sw	zero,0(a0)
    f684:	00450513          	addi	a0,a0,4
    f688:	fef51ce3          	bne	a0,a5,f680 <_init_signal_r.part.0+0x24>
    f68c:	00000513          	li	a0,0
    f690:	00c12083          	lw	ra,12(sp)
    f694:	00812403          	lw	s0,8(sp)
    f698:	01010113          	addi	sp,sp,16
    f69c:	00008067          	ret
    f6a0:	fff00513          	li	a0,-1
    f6a4:	fedff06f          	j	f690 <_init_signal_r.part.0+0x34>

0000f6a8 <_init_signal_r>:
    f6a8:	2dc52783          	lw	a5,732(a0)
    f6ac:	00078663          	beqz	a5,f6b8 <_init_signal_r+0x10>
    f6b0:	00000513          	li	a0,0
    f6b4:	00008067          	ret
    f6b8:	fa5ff06f          	j	f65c <_init_signal_r.part.0>

0000f6bc <_signal_r>:
    f6bc:	fe010113          	addi	sp,sp,-32
    f6c0:	00912a23          	sw	s1,20(sp)
    f6c4:	00112e23          	sw	ra,28(sp)
    f6c8:	00812c23          	sw	s0,24(sp)
    f6cc:	01f00793          	li	a5,31
    f6d0:	00050493          	mv	s1,a0
    f6d4:	02b7ea63          	bltu	a5,a1,f708 <_signal_r+0x4c>
    f6d8:	00058413          	mv	s0,a1
    f6dc:	2dc52583          	lw	a1,732(a0)
    f6e0:	04058463          	beqz	a1,f728 <_signal_r+0x6c>
    f6e4:	00241413          	slli	s0,s0,0x2
    f6e8:	00858433          	add	s0,a1,s0
    f6ec:	00042503          	lw	a0,0(s0)
    f6f0:	00c42023          	sw	a2,0(s0)
    f6f4:	01c12083          	lw	ra,28(sp)
    f6f8:	01812403          	lw	s0,24(sp)
    f6fc:	01412483          	lw	s1,20(sp)
    f700:	02010113          	addi	sp,sp,32
    f704:	00008067          	ret
    f708:	01c12083          	lw	ra,28(sp)
    f70c:	01812403          	lw	s0,24(sp)
    f710:	01600793          	li	a5,22
    f714:	00f52023          	sw	a5,0(a0)
    f718:	01412483          	lw	s1,20(sp)
    f71c:	fff00513          	li	a0,-1
    f720:	02010113          	addi	sp,sp,32
    f724:	00008067          	ret
    f728:	00c12623          	sw	a2,12(sp)
    f72c:	f31ff0ef          	jal	ra,f65c <_init_signal_r.part.0>
    f730:	00050793          	mv	a5,a0
    f734:	fff00513          	li	a0,-1
    f738:	fa079ee3          	bnez	a5,f6f4 <_signal_r+0x38>
    f73c:	2dc4a583          	lw	a1,732(s1)
    f740:	00c12603          	lw	a2,12(sp)
    f744:	fa1ff06f          	j	f6e4 <_signal_r+0x28>

0000f748 <_raise_r>:
    f748:	ff010113          	addi	sp,sp,-16
    f74c:	00912223          	sw	s1,4(sp)
    f750:	00112623          	sw	ra,12(sp)
    f754:	00812423          	sw	s0,8(sp)
    f758:	01f00793          	li	a5,31
    f75c:	00050493          	mv	s1,a0
    f760:	0ab7ea63          	bltu	a5,a1,f814 <_raise_r+0xcc>
    f764:	2dc52783          	lw	a5,732(a0)
    f768:	00058413          	mv	s0,a1
    f76c:	04078463          	beqz	a5,f7b4 <_raise_r+0x6c>
    f770:	00259713          	slli	a4,a1,0x2
    f774:	00e787b3          	add	a5,a5,a4
    f778:	0007a703          	lw	a4,0(a5)
    f77c:	02070c63          	beqz	a4,f7b4 <_raise_r+0x6c>
    f780:	00100693          	li	a3,1
    f784:	06d70c63          	beq	a4,a3,f7fc <_raise_r+0xb4>
    f788:	fff00693          	li	a3,-1
    f78c:	04d70863          	beq	a4,a3,f7dc <_raise_r+0x94>
    f790:	00058513          	mv	a0,a1
    f794:	0007a023          	sw	zero,0(a5)
    f798:	000700e7          	jalr	a4
    f79c:	00000513          	li	a0,0
    f7a0:	00c12083          	lw	ra,12(sp)
    f7a4:	00812403          	lw	s0,8(sp)
    f7a8:	00412483          	lw	s1,4(sp)
    f7ac:	01010113          	addi	sp,sp,16
    f7b0:	00008067          	ret
    f7b4:	00048513          	mv	a0,s1
    f7b8:	1cc000ef          	jal	ra,f984 <_getpid_r>
    f7bc:	00040613          	mv	a2,s0
    f7c0:	00812403          	lw	s0,8(sp)
    f7c4:	00c12083          	lw	ra,12(sp)
    f7c8:	00050593          	mv	a1,a0
    f7cc:	00048513          	mv	a0,s1
    f7d0:	00412483          	lw	s1,4(sp)
    f7d4:	01010113          	addi	sp,sp,16
    f7d8:	1480006f          	j	f920 <_kill_r>
    f7dc:	00c12083          	lw	ra,12(sp)
    f7e0:	00812403          	lw	s0,8(sp)
    f7e4:	01600793          	li	a5,22
    f7e8:	00f52023          	sw	a5,0(a0)
    f7ec:	00412483          	lw	s1,4(sp)
    f7f0:	00100513          	li	a0,1
    f7f4:	01010113          	addi	sp,sp,16
    f7f8:	00008067          	ret
    f7fc:	00c12083          	lw	ra,12(sp)
    f800:	00812403          	lw	s0,8(sp)
    f804:	00412483          	lw	s1,4(sp)
    f808:	00000513          	li	a0,0
    f80c:	01010113          	addi	sp,sp,16
    f810:	00008067          	ret
    f814:	01600793          	li	a5,22
    f818:	00f52023          	sw	a5,0(a0)
    f81c:	fff00513          	li	a0,-1
    f820:	f81ff06f          	j	f7a0 <_raise_r+0x58>

0000f824 <__sigtramp_r>:
    f824:	01f00793          	li	a5,31
    f828:	0ab7e663          	bltu	a5,a1,f8d4 <__sigtramp_r+0xb0>
    f82c:	2dc52783          	lw	a5,732(a0)
    f830:	fe010113          	addi	sp,sp,-32
    f834:	00912c23          	sw	s1,24(sp)
    f838:	00112e23          	sw	ra,28(sp)
    f83c:	00050493          	mv	s1,a0
    f840:	04078c63          	beqz	a5,f898 <__sigtramp_r+0x74>
    f844:	00259713          	slli	a4,a1,0x2
    f848:	00e787b3          	add	a5,a5,a4
    f84c:	0007a703          	lw	a4,0(a5)
    f850:	02070a63          	beqz	a4,f884 <__sigtramp_r+0x60>
    f854:	fff00693          	li	a3,-1
    f858:	06d70663          	beq	a4,a3,f8c4 <__sigtramp_r+0xa0>
    f85c:	00100693          	li	a3,1
    f860:	04d70863          	beq	a4,a3,f8b0 <__sigtramp_r+0x8c>
    f864:	00058513          	mv	a0,a1
    f868:	0007a023          	sw	zero,0(a5)
    f86c:	000700e7          	jalr	a4
    f870:	00000513          	li	a0,0
    f874:	01c12083          	lw	ra,28(sp)
    f878:	01812483          	lw	s1,24(sp)
    f87c:	02010113          	addi	sp,sp,32
    f880:	00008067          	ret
    f884:	01c12083          	lw	ra,28(sp)
    f888:	01812483          	lw	s1,24(sp)
    f88c:	00100513          	li	a0,1
    f890:	02010113          	addi	sp,sp,32
    f894:	00008067          	ret
    f898:	00b12623          	sw	a1,12(sp)
    f89c:	dc1ff0ef          	jal	ra,f65c <_init_signal_r.part.0>
    f8a0:	02051663          	bnez	a0,f8cc <__sigtramp_r+0xa8>
    f8a4:	2dc4a783          	lw	a5,732(s1)
    f8a8:	00c12583          	lw	a1,12(sp)
    f8ac:	f99ff06f          	j	f844 <__sigtramp_r+0x20>
    f8b0:	01c12083          	lw	ra,28(sp)
    f8b4:	01812483          	lw	s1,24(sp)
    f8b8:	00300513          	li	a0,3
    f8bc:	02010113          	addi	sp,sp,32
    f8c0:	00008067          	ret
    f8c4:	00200513          	li	a0,2
    f8c8:	fadff06f          	j	f874 <__sigtramp_r+0x50>
    f8cc:	fff00513          	li	a0,-1
    f8d0:	fa5ff06f          	j	f874 <__sigtramp_r+0x50>
    f8d4:	fff00513          	li	a0,-1
    f8d8:	00008067          	ret

0000f8dc <raise>:
    f8dc:	00050593          	mv	a1,a0
    f8e0:	1d81a503          	lw	a0,472(gp) # 15a90 <_impure_ptr>
    f8e4:	e65ff06f          	j	f748 <_raise_r>

0000f8e8 <signal>:
    f8e8:	00050793          	mv	a5,a0
    f8ec:	1d81a503          	lw	a0,472(gp) # 15a90 <_impure_ptr>
    f8f0:	00058613          	mv	a2,a1
    f8f4:	00078593          	mv	a1,a5
    f8f8:	dc5ff06f          	j	f6bc <_signal_r>

0000f8fc <_init_signal>:
    f8fc:	1d81a503          	lw	a0,472(gp) # 15a90 <_impure_ptr>
    f900:	2dc52783          	lw	a5,732(a0)
    f904:	00078663          	beqz	a5,f910 <_init_signal+0x14>
    f908:	00000513          	li	a0,0
    f90c:	00008067          	ret
    f910:	d4dff06f          	j	f65c <_init_signal_r.part.0>

0000f914 <__sigtramp>:
    f914:	00050593          	mv	a1,a0
    f918:	1d81a503          	lw	a0,472(gp) # 15a90 <_impure_ptr>
    f91c:	f09ff06f          	j	f824 <__sigtramp_r>

0000f920 <_kill_r>:
    f920:	ff010113          	addi	sp,sp,-16
    f924:	00058713          	mv	a4,a1
    f928:	00812423          	sw	s0,8(sp)
    f92c:	00912223          	sw	s1,4(sp)
    f930:	00050413          	mv	s0,a0
    f934:	00060593          	mv	a1,a2
    f938:	00070513          	mv	a0,a4
    f93c:	00112623          	sw	ra,12(sp)
    f940:	6a01ae23          	sw	zero,1724(gp) # 15f74 <errno>
    f944:	198000ef          	jal	ra,fadc <_kill>
    f948:	fff00793          	li	a5,-1
    f94c:	00f50c63          	beq	a0,a5,f964 <_kill_r+0x44>
    f950:	00c12083          	lw	ra,12(sp)
    f954:	00812403          	lw	s0,8(sp)
    f958:	00412483          	lw	s1,4(sp)
    f95c:	01010113          	addi	sp,sp,16
    f960:	00008067          	ret
    f964:	6bc1a783          	lw	a5,1724(gp) # 15f74 <errno>
    f968:	fe0784e3          	beqz	a5,f950 <_kill_r+0x30>
    f96c:	00c12083          	lw	ra,12(sp)
    f970:	00f42023          	sw	a5,0(s0)
    f974:	00812403          	lw	s0,8(sp)
    f978:	00412483          	lw	s1,4(sp)
    f97c:	01010113          	addi	sp,sp,16
    f980:	00008067          	ret

0000f984 <_getpid_r>:
    f984:	1100006f          	j	fa94 <_getpid>

0000f988 <_close>:
    f988:	ff010113          	addi	sp,sp,-16
    f98c:	00112623          	sw	ra,12(sp)
    f990:	00812423          	sw	s0,8(sp)
    f994:	00000593          	li	a1,0
    f998:	00000613          	li	a2,0
    f99c:	00000693          	li	a3,0
    f9a0:	00000713          	li	a4,0
    f9a4:	00000793          	li	a5,0
    f9a8:	03900893          	li	a7,57
    f9ac:	00000073          	ecall
    f9b0:	00050413          	mv	s0,a0
    f9b4:	00054c63          	bltz	a0,f9cc <_close+0x44>
    f9b8:	00c12083          	lw	ra,12(sp)
    f9bc:	00040513          	mv	a0,s0
    f9c0:	00812403          	lw	s0,8(sp)
    f9c4:	01010113          	addi	sp,sp,16
    f9c8:	00008067          	ret
    f9cc:	40800433          	neg	s0,s0
    f9d0:	360000ef          	jal	ra,fd30 <__errno>
    f9d4:	00852023          	sw	s0,0(a0)
    f9d8:	fff00413          	li	s0,-1
    f9dc:	fddff06f          	j	f9b8 <_close+0x30>

0000f9e0 <_exit>:
    f9e0:	00000593          	li	a1,0
    f9e4:	00000613          	li	a2,0
    f9e8:	00000693          	li	a3,0
    f9ec:	00000713          	li	a4,0
    f9f0:	00000793          	li	a5,0
    f9f4:	05d00893          	li	a7,93
    f9f8:	00000073          	ecall
    f9fc:	00054463          	bltz	a0,fa04 <_exit+0x24>
    fa00:	0000006f          	j	fa00 <_exit+0x20>
    fa04:	ff010113          	addi	sp,sp,-16
    fa08:	00812423          	sw	s0,8(sp)
    fa0c:	00050413          	mv	s0,a0
    fa10:	00112623          	sw	ra,12(sp)
    fa14:	40800433          	neg	s0,s0
    fa18:	318000ef          	jal	ra,fd30 <__errno>
    fa1c:	00852023          	sw	s0,0(a0)
    fa20:	0000006f          	j	fa20 <_exit+0x40>

0000fa24 <_fstat>:
    fa24:	f7010113          	addi	sp,sp,-144
    fa28:	08912223          	sw	s1,132(sp)
    fa2c:	08112623          	sw	ra,140(sp)
    fa30:	00058493          	mv	s1,a1
    fa34:	08812423          	sw	s0,136(sp)
    fa38:	00010593          	mv	a1,sp
    fa3c:	00000613          	li	a2,0
    fa40:	00000693          	li	a3,0
    fa44:	00000713          	li	a4,0
    fa48:	00000793          	li	a5,0
    fa4c:	05000893          	li	a7,80
    fa50:	00000073          	ecall
    fa54:	00050413          	mv	s0,a0
    fa58:	02054463          	bltz	a0,fa80 <_fstat+0x5c>
    fa5c:	00048513          	mv	a0,s1
    fa60:	00010593          	mv	a1,sp
    fa64:	228000ef          	jal	ra,fc8c <_conv_stat>
    fa68:	08c12083          	lw	ra,140(sp)
    fa6c:	00040513          	mv	a0,s0
    fa70:	08812403          	lw	s0,136(sp)
    fa74:	08412483          	lw	s1,132(sp)
    fa78:	09010113          	addi	sp,sp,144
    fa7c:	00008067          	ret
    fa80:	40800433          	neg	s0,s0
    fa84:	2ac000ef          	jal	ra,fd30 <__errno>
    fa88:	00852023          	sw	s0,0(a0)
    fa8c:	fff00413          	li	s0,-1
    fa90:	fcdff06f          	j	fa5c <_fstat+0x38>

0000fa94 <_getpid>:
    fa94:	00100513          	li	a0,1
    fa98:	00008067          	ret

0000fa9c <_isatty>:
    fa9c:	f9010113          	addi	sp,sp,-112
    faa0:	00810593          	addi	a1,sp,8
    faa4:	06112623          	sw	ra,108(sp)
    faa8:	f7dff0ef          	jal	ra,fa24 <_fstat>
    faac:	fff00793          	li	a5,-1
    fab0:	00f50e63          	beq	a0,a5,facc <_isatty+0x30>
    fab4:	00c12503          	lw	a0,12(sp)
    fab8:	06c12083          	lw	ra,108(sp)
    fabc:	00d55513          	srli	a0,a0,0xd
    fac0:	00157513          	andi	a0,a0,1
    fac4:	07010113          	addi	sp,sp,112
    fac8:	00008067          	ret
    facc:	06c12083          	lw	ra,108(sp)
    fad0:	00000513          	li	a0,0
    fad4:	07010113          	addi	sp,sp,112
    fad8:	00008067          	ret

0000fadc <_kill>:
    fadc:	ff010113          	addi	sp,sp,-16
    fae0:	00112623          	sw	ra,12(sp)
    fae4:	24c000ef          	jal	ra,fd30 <__errno>
    fae8:	00c12083          	lw	ra,12(sp)
    faec:	01600793          	li	a5,22
    faf0:	00f52023          	sw	a5,0(a0)
    faf4:	fff00513          	li	a0,-1
    faf8:	01010113          	addi	sp,sp,16
    fafc:	00008067          	ret

0000fb00 <_lseek>:
    fb00:	ff010113          	addi	sp,sp,-16
    fb04:	00112623          	sw	ra,12(sp)
    fb08:	00812423          	sw	s0,8(sp)
    fb0c:	00000693          	li	a3,0
    fb10:	00000713          	li	a4,0
    fb14:	00000793          	li	a5,0
    fb18:	03e00893          	li	a7,62
    fb1c:	00000073          	ecall
    fb20:	00050413          	mv	s0,a0
    fb24:	00054c63          	bltz	a0,fb3c <_lseek+0x3c>
    fb28:	00c12083          	lw	ra,12(sp)
    fb2c:	00040513          	mv	a0,s0
    fb30:	00812403          	lw	s0,8(sp)
    fb34:	01010113          	addi	sp,sp,16
    fb38:	00008067          	ret
    fb3c:	40800433          	neg	s0,s0
    fb40:	1f0000ef          	jal	ra,fd30 <__errno>
    fb44:	00852023          	sw	s0,0(a0)
    fb48:	fff00413          	li	s0,-1
    fb4c:	fddff06f          	j	fb28 <_lseek+0x28>

0000fb50 <_read>:
    fb50:	ff010113          	addi	sp,sp,-16
    fb54:	00112623          	sw	ra,12(sp)
    fb58:	00812423          	sw	s0,8(sp)
    fb5c:	00000693          	li	a3,0
    fb60:	00000713          	li	a4,0
    fb64:	00000793          	li	a5,0
    fb68:	03f00893          	li	a7,63
    fb6c:	00000073          	ecall
    fb70:	00050413          	mv	s0,a0
    fb74:	00054c63          	bltz	a0,fb8c <_read+0x3c>
    fb78:	00c12083          	lw	ra,12(sp)
    fb7c:	00040513          	mv	a0,s0
    fb80:	00812403          	lw	s0,8(sp)
    fb84:	01010113          	addi	sp,sp,16
    fb88:	00008067          	ret
    fb8c:	40800433          	neg	s0,s0
    fb90:	1a0000ef          	jal	ra,fd30 <__errno>
    fb94:	00852023          	sw	s0,0(a0)
    fb98:	fff00413          	li	s0,-1
    fb9c:	fddff06f          	j	fb78 <_read+0x28>

0000fba0 <_sbrk>:
    fba0:	1f41a783          	lw	a5,500(gp) # 15aac <heap_end.1815>
    fba4:	ff010113          	addi	sp,sp,-16
    fba8:	00112623          	sw	ra,12(sp)
    fbac:	00050813          	mv	a6,a0
    fbb0:	02079863          	bnez	a5,fbe0 <_sbrk+0x40>
    fbb4:	00000513          	li	a0,0
    fbb8:	00000593          	li	a1,0
    fbbc:	00000613          	li	a2,0
    fbc0:	00000693          	li	a3,0
    fbc4:	00000713          	li	a4,0
    fbc8:	0d600893          	li	a7,214
    fbcc:	00000073          	ecall
    fbd0:	fff00713          	li	a4,-1
    fbd4:	00050793          	mv	a5,a0
    fbd8:	04e50463          	beq	a0,a4,fc20 <_sbrk+0x80>
    fbdc:	1ea1aa23          	sw	a0,500(gp) # 15aac <heap_end.1815>
    fbe0:	00f80533          	add	a0,a6,a5
    fbe4:	00000593          	li	a1,0
    fbe8:	00000613          	li	a2,0
    fbec:	00000693          	li	a3,0
    fbf0:	00000713          	li	a4,0
    fbf4:	00000793          	li	a5,0
    fbf8:	0d600893          	li	a7,214
    fbfc:	00000073          	ecall
    fc00:	1f41a783          	lw	a5,500(gp) # 15aac <heap_end.1815>
    fc04:	00f80833          	add	a6,a6,a5
    fc08:	01051c63          	bne	a0,a6,fc20 <_sbrk+0x80>
    fc0c:	00c12083          	lw	ra,12(sp)
    fc10:	1ea1aa23          	sw	a0,500(gp) # 15aac <heap_end.1815>
    fc14:	00078513          	mv	a0,a5
    fc18:	01010113          	addi	sp,sp,16
    fc1c:	00008067          	ret
    fc20:	110000ef          	jal	ra,fd30 <__errno>
    fc24:	00c12083          	lw	ra,12(sp)
    fc28:	00c00793          	li	a5,12
    fc2c:	00f52023          	sw	a5,0(a0)
    fc30:	fff00513          	li	a0,-1
    fc34:	01010113          	addi	sp,sp,16
    fc38:	00008067          	ret

0000fc3c <_write>:
    fc3c:	ff010113          	addi	sp,sp,-16
    fc40:	00112623          	sw	ra,12(sp)
    fc44:	00812423          	sw	s0,8(sp)
    fc48:	00000693          	li	a3,0
    fc4c:	00000713          	li	a4,0
    fc50:	00000793          	li	a5,0
    fc54:	04000893          	li	a7,64
    fc58:	00000073          	ecall
    fc5c:	00050413          	mv	s0,a0
    fc60:	00054c63          	bltz	a0,fc78 <_write+0x3c>
    fc64:	00c12083          	lw	ra,12(sp)
    fc68:	00040513          	mv	a0,s0
    fc6c:	00812403          	lw	s0,8(sp)
    fc70:	01010113          	addi	sp,sp,16
    fc74:	00008067          	ret
    fc78:	40800433          	neg	s0,s0
    fc7c:	0b4000ef          	jal	ra,fd30 <__errno>
    fc80:	00852023          	sw	s0,0(a0)
    fc84:	fff00413          	li	s0,-1
    fc88:	fddff06f          	j	fc64 <_write+0x28>

0000fc8c <_conv_stat>:
    fc8c:	ff010113          	addi	sp,sp,-16
    fc90:	0145a383          	lw	t2,20(a1)
    fc94:	0185a283          	lw	t0,24(a1)
    fc98:	01c5af83          	lw	t6,28(a1)
    fc9c:	0205af03          	lw	t5,32(a1)
    fca0:	0305ae83          	lw	t4,48(a1)
    fca4:	0405ae03          	lw	t3,64(a1)
    fca8:	0385a303          	lw	t1,56(a1)
    fcac:	0485a803          	lw	a6,72(a1)
    fcb0:	04c5a883          	lw	a7,76(a1)
    fcb4:	0585a603          	lw	a2,88(a1)
    fcb8:	00812623          	sw	s0,12(sp)
    fcbc:	00912423          	sw	s1,8(sp)
    fcc0:	0105a403          	lw	s0,16(a1)
    fcc4:	0085a483          	lw	s1,8(a1)
    fcc8:	01212223          	sw	s2,4(sp)
    fccc:	0005a903          	lw	s2,0(a1)
    fcd0:	05c5a683          	lw	a3,92(a1)
    fcd4:	0685a703          	lw	a4,104(a1)
    fcd8:	06c5a783          	lw	a5,108(a1)
    fcdc:	01251023          	sh	s2,0(a0)
    fce0:	00951123          	sh	s1,2(a0)
    fce4:	00852223          	sw	s0,4(a0)
    fce8:	00751423          	sh	t2,8(a0)
    fcec:	00551523          	sh	t0,10(a0)
    fcf0:	01f51623          	sh	t6,12(a0)
    fcf4:	01e51723          	sh	t5,14(a0)
    fcf8:	01d52823          	sw	t4,16(a0)
    fcfc:	05c52623          	sw	t3,76(a0)
    fd00:	04652423          	sw	t1,72(a0)
    fd04:	01052c23          	sw	a6,24(a0)
    fd08:	01152e23          	sw	a7,28(a0)
    fd0c:	02c52423          	sw	a2,40(a0)
    fd10:	02d52623          	sw	a3,44(a0)
    fd14:	00c12403          	lw	s0,12(sp)
    fd18:	02e52c23          	sw	a4,56(a0)
    fd1c:	02f52e23          	sw	a5,60(a0)
    fd20:	00812483          	lw	s1,8(sp)
    fd24:	00412903          	lw	s2,4(sp)
    fd28:	01010113          	addi	sp,sp,16
    fd2c:	00008067          	ret

0000fd30 <__errno>:
    fd30:	1d81a503          	lw	a0,472(gp) # 15a90 <_impure_ptr>
    fd34:	00008067          	ret

0000fd38 <__udivdi3>:
#endif

#ifdef L_udivdi3
UDWtype
__udivdi3 (UDWtype n, UDWtype d)
{
    fd38:	00050893          	mv	a7,a0
    fd3c:	00058793          	mv	a5,a1
  d0 = dd.s.low;
    fd40:	00060813          	mv	a6,a2
  d1 = dd.s.high;
    fd44:	00068513          	mv	a0,a3
  n0 = nn.s.low;
    fd48:	00088313          	mv	t1,a7
  if (d1 == 0)
    fd4c:	28069463          	bnez	a3,ffd4 <__udivdi3+0x29c>
      if (d0 > n1)
    fd50:	000156b7          	lui	a3,0x15
    fd54:	f6c68693          	addi	a3,a3,-148 # 14f6c <__clz_tab>
    fd58:	0ec5f663          	bgeu	a1,a2,fe44 <__udivdi3+0x10c>
	  count_leading_zeros (bm, d0);
    fd5c:	00010737          	lui	a4,0x10
    fd60:	0ce67863          	bgeu	a2,a4,fe30 <__udivdi3+0xf8>
    fd64:	0ff00713          	li	a4,255
    fd68:	00c73733          	sltu	a4,a4,a2
    fd6c:	00371713          	slli	a4,a4,0x3
    fd70:	00e65533          	srl	a0,a2,a4
    fd74:	00a686b3          	add	a3,a3,a0
    fd78:	0006c683          	lbu	a3,0(a3)
    fd7c:	02000513          	li	a0,32
    fd80:	00e68733          	add	a4,a3,a4
    fd84:	40e506b3          	sub	a3,a0,a4
	  if (bm != 0)
    fd88:	00e50c63          	beq	a0,a4,fda0 <__udivdi3+0x68>
	      n1 = (n1 << bm) | (n0 >> (W_TYPE_SIZE - bm));
    fd8c:	00d797b3          	sll	a5,a5,a3
    fd90:	00e8d733          	srl	a4,a7,a4
	      d0 = d0 << bm;
    fd94:	00d61833          	sll	a6,a2,a3
	      n1 = (n1 << bm) | (n0 >> (W_TYPE_SIZE - bm));
    fd98:	00f765b3          	or	a1,a4,a5
	      n0 = n0 << bm;
    fd9c:	00d89333          	sll	t1,a7,a3
	  udiv_qrnnd (q0, n0, n1, n0, d0);
    fda0:	01085893          	srli	a7,a6,0x10
    fda4:	0315d7b3          	divu	a5,a1,a7
    fda8:	01081613          	slli	a2,a6,0x10
    fdac:	01065613          	srli	a2,a2,0x10
    fdb0:	01035713          	srli	a4,t1,0x10
    fdb4:	0315f6b3          	remu	a3,a1,a7
    fdb8:	00078513          	mv	a0,a5
    fdbc:	02f605b3          	mul	a1,a2,a5
    fdc0:	01069693          	slli	a3,a3,0x10
    fdc4:	00e6e733          	or	a4,a3,a4
    fdc8:	00b77e63          	bgeu	a4,a1,fde4 <__udivdi3+0xac>
    fdcc:	01070733          	add	a4,a4,a6
    fdd0:	fff78513          	addi	a0,a5,-1
    fdd4:	01076863          	bltu	a4,a6,fde4 <__udivdi3+0xac>
    fdd8:	00b77663          	bgeu	a4,a1,fde4 <__udivdi3+0xac>
    fddc:	ffe78513          	addi	a0,a5,-2
    fde0:	01070733          	add	a4,a4,a6
    fde4:	40b70733          	sub	a4,a4,a1
    fde8:	031777b3          	remu	a5,a4,a7
    fdec:	01031313          	slli	t1,t1,0x10
    fdf0:	01035313          	srli	t1,t1,0x10
    fdf4:	03175733          	divu	a4,a4,a7
    fdf8:	01079793          	slli	a5,a5,0x10
    fdfc:	0067e333          	or	t1,a5,t1
    fe00:	02e606b3          	mul	a3,a2,a4
    fe04:	00070613          	mv	a2,a4
    fe08:	00d37c63          	bgeu	t1,a3,fe20 <__udivdi3+0xe8>
    fe0c:	00680333          	add	t1,a6,t1
    fe10:	fff70613          	addi	a2,a4,-1 # ffff <__udivdi3+0x2c7>
    fe14:	01036663          	bltu	t1,a6,fe20 <__udivdi3+0xe8>
    fe18:	00d37463          	bgeu	t1,a3,fe20 <__udivdi3+0xe8>
    fe1c:	ffe70613          	addi	a2,a4,-2
    fe20:	01051513          	slli	a0,a0,0x10
    fe24:	00c56533          	or	a0,a0,a2
	      q1 = 0;
    fe28:	00000593          	li	a1,0
    fe2c:	0e40006f          	j	ff10 <__udivdi3+0x1d8>
	  count_leading_zeros (bm, d0);
    fe30:	01000537          	lui	a0,0x1000
    fe34:	01000713          	li	a4,16
    fe38:	f2a66ce3          	bltu	a2,a0,fd70 <__udivdi3+0x38>
    fe3c:	01800713          	li	a4,24
    fe40:	f31ff06f          	j	fd70 <__udivdi3+0x38>
	  if (d0 == 0)
    fe44:	00061663          	bnez	a2,fe50 <__udivdi3+0x118>
	    d0 = 1 / d0;	/* Divide intentionally by zero.  */
    fe48:	00100713          	li	a4,1
    fe4c:	02c75833          	divu	a6,a4,a2
	  count_leading_zeros (bm, d0);
    fe50:	00010737          	lui	a4,0x10
    fe54:	0ce87063          	bgeu	a6,a4,ff14 <__udivdi3+0x1dc>
    fe58:	0ff00713          	li	a4,255
    fe5c:	01077463          	bgeu	a4,a6,fe64 <__udivdi3+0x12c>
    fe60:	00800513          	li	a0,8
    fe64:	00a85733          	srl	a4,a6,a0
    fe68:	00e686b3          	add	a3,a3,a4
    fe6c:	0006c703          	lbu	a4,0(a3)
    fe70:	02000613          	li	a2,32
    fe74:	00a70733          	add	a4,a4,a0
    fe78:	40e606b3          	sub	a3,a2,a4
	  if (bm == 0)
    fe7c:	0ae61663          	bne	a2,a4,ff28 <__udivdi3+0x1f0>
	      n1 -= d0;
    fe80:	410787b3          	sub	a5,a5,a6
	      q1 = 1;
    fe84:	00100593          	li	a1,1
	  udiv_qrnnd (q0, n0, n1, n0, d0);
    fe88:	01085893          	srli	a7,a6,0x10
    fe8c:	01081613          	slli	a2,a6,0x10
    fe90:	01065613          	srli	a2,a2,0x10
    fe94:	01035713          	srli	a4,t1,0x10
    fe98:	0317f6b3          	remu	a3,a5,a7
    fe9c:	0317d7b3          	divu	a5,a5,a7
    fea0:	01069693          	slli	a3,a3,0x10
    fea4:	00e6e733          	or	a4,a3,a4
    fea8:	02f60e33          	mul	t3,a2,a5
    feac:	00078513          	mv	a0,a5
    feb0:	01c77e63          	bgeu	a4,t3,fecc <__udivdi3+0x194>
    feb4:	01070733          	add	a4,a4,a6
    feb8:	fff78513          	addi	a0,a5,-1
    febc:	01076863          	bltu	a4,a6,fecc <__udivdi3+0x194>
    fec0:	01c77663          	bgeu	a4,t3,fecc <__udivdi3+0x194>
    fec4:	ffe78513          	addi	a0,a5,-2
    fec8:	01070733          	add	a4,a4,a6
    fecc:	41c70733          	sub	a4,a4,t3
    fed0:	031777b3          	remu	a5,a4,a7
    fed4:	01031313          	slli	t1,t1,0x10
    fed8:	01035313          	srli	t1,t1,0x10
    fedc:	03175733          	divu	a4,a4,a7
    fee0:	01079793          	slli	a5,a5,0x10
    fee4:	0067e333          	or	t1,a5,t1
    fee8:	02e606b3          	mul	a3,a2,a4
    feec:	00070613          	mv	a2,a4
    fef0:	00d37c63          	bgeu	t1,a3,ff08 <__udivdi3+0x1d0>
    fef4:	00680333          	add	t1,a6,t1
    fef8:	fff70613          	addi	a2,a4,-1 # ffff <__udivdi3+0x2c7>
    fefc:	01036663          	bltu	t1,a6,ff08 <__udivdi3+0x1d0>
    ff00:	00d37463          	bgeu	t1,a3,ff08 <__udivdi3+0x1d0>
    ff04:	ffe70613          	addi	a2,a4,-2
    ff08:	01051513          	slli	a0,a0,0x10
    ff0c:	00c56533          	or	a0,a0,a2
  return __udivmoddi4 (n, d, (UDWtype *) 0);
}
    ff10:	00008067          	ret
	  count_leading_zeros (bm, d0);
    ff14:	01000737          	lui	a4,0x1000
    ff18:	01000513          	li	a0,16
    ff1c:	f4e864e3          	bltu	a6,a4,fe64 <__udivdi3+0x12c>
    ff20:	01800513          	li	a0,24
    ff24:	f41ff06f          	j	fe64 <__udivdi3+0x12c>
	      d0 = d0 << bm;
    ff28:	00d81833          	sll	a6,a6,a3
	      n2 = n1 >> b;
    ff2c:	00e7d5b3          	srl	a1,a5,a4
	      n0 = n0 << bm;
    ff30:	00d89333          	sll	t1,a7,a3
	      n1 = (n1 << bm) | (n0 >> b);
    ff34:	00d797b3          	sll	a5,a5,a3
    ff38:	00e8d733          	srl	a4,a7,a4
	      udiv_qrnnd (q1, n1, n2, n1, d0);
    ff3c:	01085893          	srli	a7,a6,0x10
	      n1 = (n1 << bm) | (n0 >> b);
    ff40:	00f76633          	or	a2,a4,a5
	      udiv_qrnnd (q1, n1, n2, n1, d0);
    ff44:	0315f733          	remu	a4,a1,a7
    ff48:	01081793          	slli	a5,a6,0x10
    ff4c:	0107d793          	srli	a5,a5,0x10
    ff50:	01065513          	srli	a0,a2,0x10
    ff54:	0315d5b3          	divu	a1,a1,a7
    ff58:	01071713          	slli	a4,a4,0x10
    ff5c:	00a76733          	or	a4,a4,a0
    ff60:	02b786b3          	mul	a3,a5,a1
    ff64:	00058513          	mv	a0,a1
    ff68:	00d77e63          	bgeu	a4,a3,ff84 <__udivdi3+0x24c>
    ff6c:	01070733          	add	a4,a4,a6
    ff70:	fff58513          	addi	a0,a1,-1
    ff74:	01076863          	bltu	a4,a6,ff84 <__udivdi3+0x24c>
    ff78:	00d77663          	bgeu	a4,a3,ff84 <__udivdi3+0x24c>
    ff7c:	ffe58513          	addi	a0,a1,-2
    ff80:	01070733          	add	a4,a4,a6
    ff84:	40d706b3          	sub	a3,a4,a3
    ff88:	0316f733          	remu	a4,a3,a7
    ff8c:	01061613          	slli	a2,a2,0x10
    ff90:	01065613          	srli	a2,a2,0x10
    ff94:	0316d6b3          	divu	a3,a3,a7
    ff98:	01071713          	slli	a4,a4,0x10
    ff9c:	02d788b3          	mul	a7,a5,a3
    ffa0:	00c767b3          	or	a5,a4,a2
    ffa4:	00068713          	mv	a4,a3
    ffa8:	0117fe63          	bgeu	a5,a7,ffc4 <__udivdi3+0x28c>
    ffac:	010787b3          	add	a5,a5,a6
    ffb0:	fff68713          	addi	a4,a3,-1
    ffb4:	0107e863          	bltu	a5,a6,ffc4 <__udivdi3+0x28c>
    ffb8:	0117f663          	bgeu	a5,a7,ffc4 <__udivdi3+0x28c>
    ffbc:	ffe68713          	addi	a4,a3,-2
    ffc0:	010787b3          	add	a5,a5,a6
    ffc4:	01051593          	slli	a1,a0,0x10
    ffc8:	411787b3          	sub	a5,a5,a7
    ffcc:	00e5e5b3          	or	a1,a1,a4
    ffd0:	eb9ff06f          	j	fe88 <__udivdi3+0x150>
      if (d1 > n1)
    ffd4:	18d5e663          	bltu	a1,a3,10160 <__udivdi3+0x428>
	  count_leading_zeros (bm, d1);
    ffd8:	00010737          	lui	a4,0x10
    ffdc:	04e6f463          	bgeu	a3,a4,10024 <__udivdi3+0x2ec>
    ffe0:	0ff00713          	li	a4,255
    ffe4:	00d735b3          	sltu	a1,a4,a3
    ffe8:	00359593          	slli	a1,a1,0x3
    ffec:	00015737          	lui	a4,0x15
    fff0:	00b6d533          	srl	a0,a3,a1
    fff4:	f6c70713          	addi	a4,a4,-148 # 14f6c <__clz_tab>
    fff8:	00a70733          	add	a4,a4,a0
    fffc:	00074703          	lbu	a4,0(a4)
   10000:	02000513          	li	a0,32
   10004:	00b70733          	add	a4,a4,a1
   10008:	40e505b3          	sub	a1,a0,a4
	  if (bm == 0)
   1000c:	02e51663          	bne	a0,a4,10038 <__udivdi3+0x300>
		  q0 = 1;
   10010:	00100513          	li	a0,1
	      if (n1 > d1 || n0 >= d0)
   10014:	eef6eee3          	bltu	a3,a5,ff10 <__udivdi3+0x1d8>
   10018:	00c8b533          	sltu	a0,a7,a2
   1001c:	00154513          	xori	a0,a0,1
   10020:	ef1ff06f          	j	ff10 <__udivdi3+0x1d8>
	  count_leading_zeros (bm, d1);
   10024:	01000737          	lui	a4,0x1000
   10028:	01000593          	li	a1,16
   1002c:	fce6e0e3          	bltu	a3,a4,ffec <__udivdi3+0x2b4>
   10030:	01800593          	li	a1,24
   10034:	fb9ff06f          	j	ffec <__udivdi3+0x2b4>
	      d1 = (d1 << bm) | (d0 >> b);
   10038:	00e65333          	srl	t1,a2,a4
   1003c:	00b696b3          	sll	a3,a3,a1
   10040:	00d36333          	or	t1,t1,a3
	      udiv_qrnnd (q0, n1, n2, n1, d1);
   10044:	01035513          	srli	a0,t1,0x10
	      d0 = d0 << bm;
   10048:	00b61eb3          	sll	t4,a2,a1
	      n2 = n1 >> b;
   1004c:	00e7d633          	srl	a2,a5,a4
	      udiv_qrnnd (q0, n1, n2, n1, d1);
   10050:	02a676b3          	remu	a3,a2,a0
	      n1 = (n1 << bm) | (n0 >> b);
   10054:	00b797b3          	sll	a5,a5,a1
   10058:	00e8d733          	srl	a4,a7,a4
   1005c:	00f76833          	or	a6,a4,a5
	      udiv_qrnnd (q0, n1, n2, n1, d1);
   10060:	01031793          	slli	a5,t1,0x10
   10064:	0107d793          	srli	a5,a5,0x10
   10068:	01085713          	srli	a4,a6,0x10
   1006c:	02a65633          	divu	a2,a2,a0
   10070:	01069693          	slli	a3,a3,0x10
   10074:	00e6e733          	or	a4,a3,a4
   10078:	02c78f33          	mul	t5,a5,a2
   1007c:	00060e13          	mv	t3,a2
   10080:	01e77e63          	bgeu	a4,t5,1009c <__udivdi3+0x364>
   10084:	00670733          	add	a4,a4,t1
   10088:	fff60e13          	addi	t3,a2,-1
   1008c:	00676863          	bltu	a4,t1,1009c <__udivdi3+0x364>
   10090:	01e77663          	bgeu	a4,t5,1009c <__udivdi3+0x364>
   10094:	ffe60e13          	addi	t3,a2,-2
   10098:	00670733          	add	a4,a4,t1
   1009c:	41e70733          	sub	a4,a4,t5
   100a0:	02a776b3          	remu	a3,a4,a0
   100a4:	02a75733          	divu	a4,a4,a0
   100a8:	01069693          	slli	a3,a3,0x10
   100ac:	02e78633          	mul	a2,a5,a4
   100b0:	01081793          	slli	a5,a6,0x10
   100b4:	0107d793          	srli	a5,a5,0x10
   100b8:	00f6e7b3          	or	a5,a3,a5
   100bc:	00070693          	mv	a3,a4
   100c0:	00c7fe63          	bgeu	a5,a2,100dc <__udivdi3+0x3a4>
   100c4:	006787b3          	add	a5,a5,t1
   100c8:	fff70693          	addi	a3,a4,-1 # ffffff <//.+0xfea087>
   100cc:	0067e863          	bltu	a5,t1,100dc <__udivdi3+0x3a4>
   100d0:	00c7f663          	bgeu	a5,a2,100dc <__udivdi3+0x3a4>
   100d4:	ffe70693          	addi	a3,a4,-2
   100d8:	006787b3          	add	a5,a5,t1
   100dc:	010e1513          	slli	a0,t3,0x10
	      umul_ppmm (m1, m0, q0, d0);
   100e0:	00010e37          	lui	t3,0x10
	      udiv_qrnnd (q0, n1, n2, n1, d1);
   100e4:	00d56533          	or	a0,a0,a3
	      umul_ppmm (m1, m0, q0, d0);
   100e8:	fffe0693          	addi	a3,t3,-1 # ffff <__udivdi3+0x2c7>
   100ec:	00d57833          	and	a6,a0,a3
	      udiv_qrnnd (q0, n1, n2, n1, d1);
   100f0:	40c787b3          	sub	a5,a5,a2
	      umul_ppmm (m1, m0, q0, d0);
   100f4:	00def6b3          	and	a3,t4,a3
   100f8:	01055613          	srli	a2,a0,0x10
   100fc:	010ede93          	srli	t4,t4,0x10
   10100:	02d80333          	mul	t1,a6,a3
   10104:	02d606b3          	mul	a3,a2,a3
   10108:	01035713          	srli	a4,t1,0x10
   1010c:	03d80833          	mul	a6,a6,t4
   10110:	00d80833          	add	a6,a6,a3
   10114:	01070733          	add	a4,a4,a6
   10118:	03d60633          	mul	a2,a2,t4
   1011c:	00d77463          	bgeu	a4,a3,10124 <__udivdi3+0x3ec>
   10120:	01c60633          	add	a2,a2,t3
   10124:	01075693          	srli	a3,a4,0x10
   10128:	00c68633          	add	a2,a3,a2
	      if (m1 > n1 || (m1 == n1 && m0 > n0))
   1012c:	02c7e663          	bltu	a5,a2,10158 <__udivdi3+0x420>
   10130:	cec79ce3          	bne	a5,a2,fe28 <__udivdi3+0xf0>
	      umul_ppmm (m1, m0, q0, d0);
   10134:	000107b7          	lui	a5,0x10
   10138:	fff78793          	addi	a5,a5,-1 # ffff <__udivdi3+0x2c7>
   1013c:	00f77733          	and	a4,a4,a5
   10140:	01071713          	slli	a4,a4,0x10
   10144:	00f37333          	and	t1,t1,a5
	      n0 = n0 << bm;
   10148:	00b898b3          	sll	a7,a7,a1
	      umul_ppmm (m1, m0, q0, d0);
   1014c:	00670733          	add	a4,a4,t1
	      q1 = 0;
   10150:	00000593          	li	a1,0
	      if (m1 > n1 || (m1 == n1 && m0 > n0))
   10154:	dae8fee3          	bgeu	a7,a4,ff10 <__udivdi3+0x1d8>
		  q0--;
   10158:	fff50513          	addi	a0,a0,-1 # ffffff <//.+0xfea087>
		  sub_ddmmss (m1, m0, m1, m0, d1, d0);
   1015c:	ccdff06f          	j	fe28 <__udivdi3+0xf0>
	  q1 = 0;
   10160:	00000593          	li	a1,0
	  q0 = 0;
   10164:	00000513          	li	a0,0
   10168:	da9ff06f          	j	ff10 <__udivdi3+0x1d8>

0001016c <__umoddi3>:
  d0 = dd.s.low;
   1016c:	00060893          	mv	a7,a2
  d1 = dd.s.high;
   10170:	00068713          	mv	a4,a3
  n0 = nn.s.low;
   10174:	00050793          	mv	a5,a0
  n1 = nn.s.high;
   10178:	00058813          	mv	a6,a1
  if (d1 == 0)
   1017c:	22069c63          	bnez	a3,103b4 <__umoddi3+0x248>
      if (d0 > n1)
   10180:	000156b7          	lui	a3,0x15
   10184:	f6c68693          	addi	a3,a3,-148 # 14f6c <__clz_tab>
   10188:	0cc5fc63          	bgeu	a1,a2,10260 <__umoddi3+0xf4>
	  count_leading_zeros (bm, d0);
   1018c:	00010337          	lui	t1,0x10
   10190:	0a667e63          	bgeu	a2,t1,1024c <__umoddi3+0xe0>
   10194:	0ff00313          	li	t1,255
   10198:	00c37463          	bgeu	t1,a2,101a0 <__umoddi3+0x34>
   1019c:	00800713          	li	a4,8
   101a0:	00e65333          	srl	t1,a2,a4
   101a4:	006686b3          	add	a3,a3,t1
   101a8:	0006ce03          	lbu	t3,0(a3)
   101ac:	00ee0e33          	add	t3,t3,a4
   101b0:	02000713          	li	a4,32
   101b4:	41c70333          	sub	t1,a4,t3
	  if (bm != 0)
   101b8:	01c70c63          	beq	a4,t3,101d0 <__umoddi3+0x64>
	      n1 = (n1 << bm) | (n0 >> (W_TYPE_SIZE - bm));
   101bc:	006595b3          	sll	a1,a1,t1
   101c0:	01c55e33          	srl	t3,a0,t3
	      d0 = d0 << bm;
   101c4:	006618b3          	sll	a7,a2,t1
	      n1 = (n1 << bm) | (n0 >> (W_TYPE_SIZE - bm));
   101c8:	00be6833          	or	a6,t3,a1
	      n0 = n0 << bm;
   101cc:	006517b3          	sll	a5,a0,t1
	  udiv_qrnnd (q0, n0, n1, n0, d0);
   101d0:	0108d613          	srli	a2,a7,0x10
   101d4:	02c87733          	remu	a4,a6,a2
   101d8:	01089513          	slli	a0,a7,0x10
   101dc:	01055513          	srli	a0,a0,0x10
   101e0:	0107d693          	srli	a3,a5,0x10
   101e4:	02c85833          	divu	a6,a6,a2
   101e8:	01071713          	slli	a4,a4,0x10
   101ec:	00d766b3          	or	a3,a4,a3
   101f0:	03050833          	mul	a6,a0,a6
   101f4:	0106fa63          	bgeu	a3,a6,10208 <__umoddi3+0x9c>
   101f8:	011686b3          	add	a3,a3,a7
   101fc:	0116e663          	bltu	a3,a7,10208 <__umoddi3+0x9c>
   10200:	0106f463          	bgeu	a3,a6,10208 <__umoddi3+0x9c>
   10204:	011686b3          	add	a3,a3,a7
   10208:	410686b3          	sub	a3,a3,a6
   1020c:	02c6f733          	remu	a4,a3,a2
   10210:	01079793          	slli	a5,a5,0x10
   10214:	0107d793          	srli	a5,a5,0x10
   10218:	02c6d6b3          	divu	a3,a3,a2
   1021c:	02d506b3          	mul	a3,a0,a3
   10220:	01071513          	slli	a0,a4,0x10
   10224:	00f567b3          	or	a5,a0,a5
   10228:	00d7fa63          	bgeu	a5,a3,1023c <__umoddi3+0xd0>
   1022c:	011787b3          	add	a5,a5,a7
   10230:	0117e663          	bltu	a5,a7,1023c <__umoddi3+0xd0>
   10234:	00d7f463          	bgeu	a5,a3,1023c <__umoddi3+0xd0>
   10238:	011787b3          	add	a5,a5,a7
   1023c:	40d787b3          	sub	a5,a5,a3
	  rr.s.low = n0 >> bm;
   10240:	0067d533          	srl	a0,a5,t1
	  *rp = rr.ll;
   10244:	00000593          	li	a1,0
}
   10248:	00008067          	ret
	  count_leading_zeros (bm, d0);
   1024c:	01000337          	lui	t1,0x1000
   10250:	01000713          	li	a4,16
   10254:	f46666e3          	bltu	a2,t1,101a0 <__umoddi3+0x34>
   10258:	01800713          	li	a4,24
   1025c:	f45ff06f          	j	101a0 <__umoddi3+0x34>
	  if (d0 == 0)
   10260:	00061663          	bnez	a2,1026c <__umoddi3+0x100>
	    d0 = 1 / d0;	/* Divide intentionally by zero.  */
   10264:	00100613          	li	a2,1
   10268:	031658b3          	divu	a7,a2,a7
	  count_leading_zeros (bm, d0);
   1026c:	00010637          	lui	a2,0x10
   10270:	0ac8f263          	bgeu	a7,a2,10314 <__umoddi3+0x1a8>
   10274:	0ff00613          	li	a2,255
   10278:	01167463          	bgeu	a2,a7,10280 <__umoddi3+0x114>
   1027c:	00800713          	li	a4,8
   10280:	00e8d633          	srl	a2,a7,a4
   10284:	00c686b3          	add	a3,a3,a2
   10288:	0006ce03          	lbu	t3,0(a3)
   1028c:	00ee0e33          	add	t3,t3,a4
   10290:	02000713          	li	a4,32
   10294:	41c70333          	sub	t1,a4,t3
	  if (bm == 0)
   10298:	09c71863          	bne	a4,t3,10328 <__umoddi3+0x1bc>
	      n1 -= d0;
   1029c:	411585b3          	sub	a1,a1,a7
	  udiv_qrnnd (q0, n0, n1, n0, d0);
   102a0:	0108d713          	srli	a4,a7,0x10
   102a4:	01089513          	slli	a0,a7,0x10
   102a8:	01055513          	srli	a0,a0,0x10
   102ac:	0107d613          	srli	a2,a5,0x10
   102b0:	02e5f6b3          	remu	a3,a1,a4
   102b4:	02e5d5b3          	divu	a1,a1,a4
   102b8:	01069693          	slli	a3,a3,0x10
   102bc:	00c6e6b3          	or	a3,a3,a2
   102c0:	02b505b3          	mul	a1,a0,a1
   102c4:	00b6fa63          	bgeu	a3,a1,102d8 <__umoddi3+0x16c>
   102c8:	011686b3          	add	a3,a3,a7
   102cc:	0116e663          	bltu	a3,a7,102d8 <__umoddi3+0x16c>
   102d0:	00b6f463          	bgeu	a3,a1,102d8 <__umoddi3+0x16c>
   102d4:	011686b3          	add	a3,a3,a7
   102d8:	40b685b3          	sub	a1,a3,a1
   102dc:	02e5f6b3          	remu	a3,a1,a4
   102e0:	01079793          	slli	a5,a5,0x10
   102e4:	0107d793          	srli	a5,a5,0x10
   102e8:	02e5d5b3          	divu	a1,a1,a4
   102ec:	02b505b3          	mul	a1,a0,a1
   102f0:	01069513          	slli	a0,a3,0x10
   102f4:	00f567b3          	or	a5,a0,a5
   102f8:	00b7fa63          	bgeu	a5,a1,1030c <__umoddi3+0x1a0>
   102fc:	011787b3          	add	a5,a5,a7
   10300:	0117e663          	bltu	a5,a7,1030c <__umoddi3+0x1a0>
   10304:	00b7f463          	bgeu	a5,a1,1030c <__umoddi3+0x1a0>
   10308:	011787b3          	add	a5,a5,a7
   1030c:	40b787b3          	sub	a5,a5,a1
   10310:	f31ff06f          	j	10240 <__umoddi3+0xd4>
	  count_leading_zeros (bm, d0);
   10314:	01000637          	lui	a2,0x1000
   10318:	01000713          	li	a4,16
   1031c:	f6c8e2e3          	bltu	a7,a2,10280 <__umoddi3+0x114>
   10320:	01800713          	li	a4,24
   10324:	f5dff06f          	j	10280 <__umoddi3+0x114>
	      d0 = d0 << bm;
   10328:	006898b3          	sll	a7,a7,t1
	      n2 = n1 >> b;
   1032c:	01c5d733          	srl	a4,a1,t3
	      n0 = n0 << bm;
   10330:	006517b3          	sll	a5,a0,t1
	      n1 = (n1 << bm) | (n0 >> b);
   10334:	01c55e33          	srl	t3,a0,t3
	      udiv_qrnnd (q1, n1, n2, n1, d0);
   10338:	0108d513          	srli	a0,a7,0x10
   1033c:	02a776b3          	remu	a3,a4,a0
	      n1 = (n1 << bm) | (n0 >> b);
   10340:	006595b3          	sll	a1,a1,t1
   10344:	00be6e33          	or	t3,t3,a1
	      udiv_qrnnd (q1, n1, n2, n1, d0);
   10348:	01089593          	slli	a1,a7,0x10
   1034c:	0105d593          	srli	a1,a1,0x10
   10350:	010e5613          	srli	a2,t3,0x10
   10354:	02a75733          	divu	a4,a4,a0
   10358:	01069693          	slli	a3,a3,0x10
   1035c:	00c6e6b3          	or	a3,a3,a2
   10360:	02e58733          	mul	a4,a1,a4
   10364:	00e6fa63          	bgeu	a3,a4,10378 <__umoddi3+0x20c>
   10368:	011686b3          	add	a3,a3,a7
   1036c:	0116e663          	bltu	a3,a7,10378 <__umoddi3+0x20c>
   10370:	00e6f463          	bgeu	a3,a4,10378 <__umoddi3+0x20c>
   10374:	011686b3          	add	a3,a3,a7
   10378:	40e68633          	sub	a2,a3,a4
   1037c:	02a676b3          	remu	a3,a2,a0
   10380:	010e1e13          	slli	t3,t3,0x10
   10384:	010e5e13          	srli	t3,t3,0x10
   10388:	02a65633          	divu	a2,a2,a0
   1038c:	01069693          	slli	a3,a3,0x10
   10390:	02c58633          	mul	a2,a1,a2
   10394:	01c6e5b3          	or	a1,a3,t3
   10398:	00c5fa63          	bgeu	a1,a2,103ac <__umoddi3+0x240>
   1039c:	011585b3          	add	a1,a1,a7
   103a0:	0115e663          	bltu	a1,a7,103ac <__umoddi3+0x240>
   103a4:	00c5f463          	bgeu	a1,a2,103ac <__umoddi3+0x240>
   103a8:	011585b3          	add	a1,a1,a7
   103ac:	40c585b3          	sub	a1,a1,a2
   103b0:	ef1ff06f          	j	102a0 <__umoddi3+0x134>
      if (d1 > n1)
   103b4:	e8d5eae3          	bltu	a1,a3,10248 <__umoddi3+0xdc>
	  count_leading_zeros (bm, d1);
   103b8:	00010737          	lui	a4,0x10
   103bc:	04e6fc63          	bgeu	a3,a4,10414 <__umoddi3+0x2a8>
   103c0:	0ff00e13          	li	t3,255
   103c4:	00de3733          	sltu	a4,t3,a3
   103c8:	00371713          	slli	a4,a4,0x3
   103cc:	000158b7          	lui	a7,0x15
   103d0:	00e6d333          	srl	t1,a3,a4
   103d4:	f6c88893          	addi	a7,a7,-148 # 14f6c <__clz_tab>
   103d8:	006888b3          	add	a7,a7,t1
   103dc:	0008ce03          	lbu	t3,0(a7)
   103e0:	00ee0e33          	add	t3,t3,a4
   103e4:	02000713          	li	a4,32
   103e8:	41c70333          	sub	t1,a4,t3
	  if (bm == 0)
   103ec:	03c71e63          	bne	a4,t3,10428 <__umoddi3+0x2bc>
	      if (n1 > d1 || n0 >= d0)
   103f0:	00b6e463          	bltu	a3,a1,103f8 <__umoddi3+0x28c>
   103f4:	00c56a63          	bltu	a0,a2,10408 <__umoddi3+0x29c>
		  sub_ddmmss (n1, n0, n1, n0, d1, d0);
   103f8:	40c507b3          	sub	a5,a0,a2
   103fc:	40d585b3          	sub	a1,a1,a3
   10400:	00f53533          	sltu	a0,a0,a5
   10404:	40a58833          	sub	a6,a1,a0
		  *rp = rr.ll;
   10408:	00078513          	mv	a0,a5
   1040c:	00080593          	mv	a1,a6
   10410:	e39ff06f          	j	10248 <__umoddi3+0xdc>
	  count_leading_zeros (bm, d1);
   10414:	010008b7          	lui	a7,0x1000
   10418:	01000713          	li	a4,16
   1041c:	fb16e8e3          	bltu	a3,a7,103cc <__umoddi3+0x260>
   10420:	01800713          	li	a4,24
   10424:	fa9ff06f          	j	103cc <__umoddi3+0x260>
	      d1 = (d1 << bm) | (d0 >> b);
   10428:	01c65733          	srl	a4,a2,t3
   1042c:	006696b3          	sll	a3,a3,t1
   10430:	00d76f33          	or	t5,a4,a3
	      n2 = n1 >> b;
   10434:	01c5d7b3          	srl	a5,a1,t3
	      udiv_qrnnd (q0, n1, n2, n1, d1);
   10438:	010f5713          	srli	a4,t5,0x10
   1043c:	02e7f8b3          	remu	a7,a5,a4
	      n1 = (n1 << bm) | (n0 >> b);
   10440:	006595b3          	sll	a1,a1,t1
   10444:	01c55833          	srl	a6,a0,t3
   10448:	00b86833          	or	a6,a6,a1
	      udiv_qrnnd (q0, n1, n2, n1, d1);
   1044c:	010f1593          	slli	a1,t5,0x10
   10450:	0105d593          	srli	a1,a1,0x10
   10454:	01085693          	srli	a3,a6,0x10
	      d0 = d0 << bm;
   10458:	00661633          	sll	a2,a2,t1
	      n0 = n0 << bm;
   1045c:	00651533          	sll	a0,a0,t1
	      udiv_qrnnd (q0, n1, n2, n1, d1);
   10460:	02e7d7b3          	divu	a5,a5,a4
   10464:	01089893          	slli	a7,a7,0x10
   10468:	00d8e6b3          	or	a3,a7,a3
   1046c:	02f58eb3          	mul	t4,a1,a5
   10470:	00078893          	mv	a7,a5
   10474:	01d6fe63          	bgeu	a3,t4,10490 <__umoddi3+0x324>
   10478:	01e686b3          	add	a3,a3,t5
   1047c:	fff78893          	addi	a7,a5,-1
   10480:	01e6e863          	bltu	a3,t5,10490 <__umoddi3+0x324>
   10484:	01d6f663          	bgeu	a3,t4,10490 <__umoddi3+0x324>
   10488:	ffe78893          	addi	a7,a5,-2
   1048c:	01e686b3          	add	a3,a3,t5
   10490:	41d686b3          	sub	a3,a3,t4
   10494:	02e6feb3          	remu	t4,a3,a4
   10498:	01081813          	slli	a6,a6,0x10
   1049c:	01085813          	srli	a6,a6,0x10
   104a0:	02e6d6b3          	divu	a3,a3,a4
   104a4:	010e9e93          	slli	t4,t4,0x10
   104a8:	010eeeb3          	or	t4,t4,a6
   104ac:	02d585b3          	mul	a1,a1,a3
   104b0:	00068793          	mv	a5,a3
   104b4:	00befe63          	bgeu	t4,a1,104d0 <__umoddi3+0x364>
   104b8:	01ee8eb3          	add	t4,t4,t5
   104bc:	fff68793          	addi	a5,a3,-1
   104c0:	01eee863          	bltu	t4,t5,104d0 <__umoddi3+0x364>
   104c4:	00bef663          	bgeu	t4,a1,104d0 <__umoddi3+0x364>
   104c8:	ffe68793          	addi	a5,a3,-2
   104cc:	01ee8eb3          	add	t4,t4,t5
   104d0:	40be85b3          	sub	a1,t4,a1
   104d4:	01089893          	slli	a7,a7,0x10
	      umul_ppmm (m1, m0, q0, d0);
   104d8:	00010eb7          	lui	t4,0x10
	      udiv_qrnnd (q0, n1, n2, n1, d1);
   104dc:	00f8e8b3          	or	a7,a7,a5
	      umul_ppmm (m1, m0, q0, d0);
   104e0:	fffe8793          	addi	a5,t4,-1 # ffff <__udivdi3+0x2c7>
   104e4:	00f8f833          	and	a6,a7,a5
   104e8:	01065693          	srli	a3,a2,0x10
   104ec:	0108d893          	srli	a7,a7,0x10
   104f0:	00f677b3          	and	a5,a2,a5
   104f4:	02f80733          	mul	a4,a6,a5
   104f8:	02f887b3          	mul	a5,a7,a5
   104fc:	02d80833          	mul	a6,a6,a3
   10500:	02d888b3          	mul	a7,a7,a3
   10504:	00f80833          	add	a6,a6,a5
   10508:	01075693          	srli	a3,a4,0x10
   1050c:	010686b3          	add	a3,a3,a6
   10510:	00f6f463          	bgeu	a3,a5,10518 <__umoddi3+0x3ac>
   10514:	01d888b3          	add	a7,a7,t4
   10518:	000107b7          	lui	a5,0x10
   1051c:	fff78793          	addi	a5,a5,-1 # ffff <__udivdi3+0x2c7>
   10520:	0106d813          	srli	a6,a3,0x10
   10524:	00f6f6b3          	and	a3,a3,a5
   10528:	01069693          	slli	a3,a3,0x10
   1052c:	00f77733          	and	a4,a4,a5
   10530:	011808b3          	add	a7,a6,a7
   10534:	00e68733          	add	a4,a3,a4
	      if (m1 > n1 || (m1 == n1 && m0 > n0))
   10538:	0115e663          	bltu	a1,a7,10544 <__umoddi3+0x3d8>
   1053c:	01159e63          	bne	a1,a7,10558 <__umoddi3+0x3ec>
   10540:	00e57c63          	bgeu	a0,a4,10558 <__umoddi3+0x3ec>
		  sub_ddmmss (m1, m0, m1, m0, d1, d0);
   10544:	40c70633          	sub	a2,a4,a2
   10548:	00c73733          	sltu	a4,a4,a2
   1054c:	01e70733          	add	a4,a4,t5
   10550:	40e888b3          	sub	a7,a7,a4
   10554:	00060713          	mv	a4,a2
		  sub_ddmmss (n1, n0, n1, n0, m1, m0);
   10558:	40e50733          	sub	a4,a0,a4
   1055c:	00e53533          	sltu	a0,a0,a4
   10560:	411585b3          	sub	a1,a1,a7
   10564:	40a585b3          	sub	a1,a1,a0
		  rr.s.low = (n1 << b) | (n0 >> bm);
   10568:	01c597b3          	sll	a5,a1,t3
   1056c:	00675733          	srl	a4,a4,t1
		  *rp = rr.ll;
   10570:	00e7e533          	or	a0,a5,a4
   10574:	0065d5b3          	srl	a1,a1,t1
   10578:	cd1ff06f          	j	10248 <__umoddi3+0xdc>

0001057c <__divdf3>:
#include "soft-fp.h"
#include "double.h"

DFtype
__divdf3 (DFtype a, DFtype b)
{
   1057c:	fd010113          	addi	sp,sp,-48
  FP_DECL_D (B);
  FP_DECL_D (R);
  DFtype r;

  FP_INIT_ROUNDMODE;
  FP_UNPACK_D (A, a);
   10580:	0145d793          	srli	a5,a1,0x14
{
   10584:	02912223          	sw	s1,36(sp)
   10588:	03212023          	sw	s2,32(sp)
   1058c:	01412c23          	sw	s4,24(sp)
   10590:	01712623          	sw	s7,12(sp)
   10594:	01812423          	sw	s8,8(sp)
  FP_UNPACK_D (A, a);
   10598:	00c59493          	slli	s1,a1,0xc
{
   1059c:	02112623          	sw	ra,44(sp)
   105a0:	02812423          	sw	s0,40(sp)
   105a4:	01312e23          	sw	s3,28(sp)
   105a8:	01512a23          	sw	s5,20(sp)
   105ac:	01612823          	sw	s6,16(sp)
  FP_UNPACK_D (A, a);
   105b0:	01579713          	slli	a4,a5,0x15
{
   105b4:	00050913          	mv	s2,a0
   105b8:	00060b93          	mv	s7,a2
   105bc:	00068c13          	mv	s8,a3
  FP_UNPACK_D (A, a);
   105c0:	00c4d493          	srli	s1,s1,0xc
   105c4:	01f5da13          	srli	s4,a1,0x1f
   105c8:	0a070463          	beqz	a4,10670 <__divdf3+0xf4>
   105cc:	7ff7fa93          	andi	s5,a5,2047
   105d0:	7ff00793          	li	a5,2047
   105d4:	10fa8063          	beq	s5,a5,106d4 <__divdf3+0x158>
   105d8:	01d55993          	srli	s3,a0,0x1d
   105dc:	00349493          	slli	s1,s1,0x3
   105e0:	0099e4b3          	or	s1,s3,s1
   105e4:	008009b7          	lui	s3,0x800
   105e8:	0134e9b3          	or	s3,s1,s3
   105ec:	00351413          	slli	s0,a0,0x3
   105f0:	c01a8a93          	addi	s5,s5,-1023
   105f4:	00000b13          	li	s6,0
  FP_UNPACK_D (B, b);
   105f8:	014c5793          	srli	a5,s8,0x14
   105fc:	00cc1493          	slli	s1,s8,0xc
   10600:	01579713          	slli	a4,a5,0x15
   10604:	00c4d493          	srli	s1,s1,0xc
   10608:	7ff7f593          	andi	a1,a5,2047
   1060c:	01fc5c13          	srli	s8,s8,0x1f
   10610:	10070063          	beqz	a4,10710 <__divdf3+0x194>
   10614:	7ff00793          	li	a5,2047
   10618:	16f58263          	beq	a1,a5,1077c <__divdf3+0x200>
   1061c:	00349513          	slli	a0,s1,0x3
   10620:	01dbd793          	srli	a5,s7,0x1d
   10624:	00a7e533          	or	a0,a5,a0
   10628:	008004b7          	lui	s1,0x800
   1062c:	009564b3          	or	s1,a0,s1
   10630:	003b9f93          	slli	t6,s7,0x3
   10634:	c0158513          	addi	a0,a1,-1023
   10638:	00000613          	li	a2,0
  FP_DIV_D (R, A, B);
   1063c:	002b1793          	slli	a5,s6,0x2
   10640:	00c7e7b3          	or	a5,a5,a2
   10644:	fff78793          	addi	a5,a5,-1
   10648:	00e00713          	li	a4,14
   1064c:	018a46b3          	xor	a3,s4,s8
   10650:	40aa85b3          	sub	a1,s5,a0
   10654:	16f76063          	bltu	a4,a5,107b4 <__divdf3+0x238>
   10658:	00015737          	lui	a4,0x15
   1065c:	00279793          	slli	a5,a5,0x2
   10660:	eb870713          	addi	a4,a4,-328 # 14eb8 <zeroes.4448+0x10>
   10664:	00e787b3          	add	a5,a5,a4
   10668:	0007a783          	lw	a5,0(a5)
   1066c:	00078067          	jr	a5
  FP_UNPACK_D (A, a);
   10670:	00a4e9b3          	or	s3,s1,a0
   10674:	06098e63          	beqz	s3,106f0 <__divdf3+0x174>
   10678:	04048063          	beqz	s1,106b8 <__divdf3+0x13c>
   1067c:	00048513          	mv	a0,s1
   10680:	399030ef          	jal	ra,14218 <__clzsi2>
   10684:	ff550793          	addi	a5,a0,-11
   10688:	01c00713          	li	a4,28
   1068c:	02f74c63          	blt	a4,a5,106c4 <__divdf3+0x148>
   10690:	01d00993          	li	s3,29
   10694:	ff850413          	addi	s0,a0,-8
   10698:	40f989b3          	sub	s3,s3,a5
   1069c:	008494b3          	sll	s1,s1,s0
   106a0:	013959b3          	srl	s3,s2,s3
   106a4:	0099e9b3          	or	s3,s3,s1
   106a8:	00891433          	sll	s0,s2,s0
   106ac:	c0d00593          	li	a1,-1011
   106b0:	40a58ab3          	sub	s5,a1,a0
   106b4:	f41ff06f          	j	105f4 <__divdf3+0x78>
   106b8:	361030ef          	jal	ra,14218 <__clzsi2>
   106bc:	02050513          	addi	a0,a0,32
   106c0:	fc5ff06f          	j	10684 <__divdf3+0x108>
   106c4:	fd850493          	addi	s1,a0,-40
   106c8:	009919b3          	sll	s3,s2,s1
   106cc:	00000413          	li	s0,0
   106d0:	fddff06f          	j	106ac <__divdf3+0x130>
   106d4:	00a4e9b3          	or	s3,s1,a0
   106d8:	02098463          	beqz	s3,10700 <__divdf3+0x184>
   106dc:	00050413          	mv	s0,a0
   106e0:	00048993          	mv	s3,s1
   106e4:	7ff00a93          	li	s5,2047
   106e8:	00300b13          	li	s6,3
   106ec:	f0dff06f          	j	105f8 <__divdf3+0x7c>
   106f0:	00000413          	li	s0,0
   106f4:	00000a93          	li	s5,0
   106f8:	00100b13          	li	s6,1
   106fc:	efdff06f          	j	105f8 <__divdf3+0x7c>
   10700:	00000413          	li	s0,0
   10704:	7ff00a93          	li	s5,2047
   10708:	00200b13          	li	s6,2
   1070c:	eedff06f          	j	105f8 <__divdf3+0x7c>
  FP_UNPACK_D (B, b);
   10710:	0174efb3          	or	t6,s1,s7
   10714:	080f8063          	beqz	t6,10794 <__divdf3+0x218>
   10718:	04048263          	beqz	s1,1075c <__divdf3+0x1e0>
   1071c:	00048513          	mv	a0,s1
   10720:	2f9030ef          	jal	ra,14218 <__clzsi2>
   10724:	00050593          	mv	a1,a0
   10728:	ff558793          	addi	a5,a1,-11
   1072c:	01c00713          	li	a4,28
   10730:	02f74e63          	blt	a4,a5,1076c <__divdf3+0x1f0>
   10734:	01d00693          	li	a3,29
   10738:	ff858f93          	addi	t6,a1,-8
   1073c:	40f686b3          	sub	a3,a3,a5
   10740:	01f49533          	sll	a0,s1,t6
   10744:	00dbd6b3          	srl	a3,s7,a3
   10748:	00a6e4b3          	or	s1,a3,a0
   1074c:	01fb9fb3          	sll	t6,s7,t6
   10750:	c0d00713          	li	a4,-1011
   10754:	40b70533          	sub	a0,a4,a1
   10758:	ee1ff06f          	j	10638 <__divdf3+0xbc>
   1075c:	000b8513          	mv	a0,s7
   10760:	2b9030ef          	jal	ra,14218 <__clzsi2>
   10764:	02050593          	addi	a1,a0,32
   10768:	fc1ff06f          	j	10728 <__divdf3+0x1ac>
   1076c:	fd858513          	addi	a0,a1,-40
   10770:	00ab94b3          	sll	s1,s7,a0
   10774:	00000f93          	li	t6,0
   10778:	fd9ff06f          	j	10750 <__divdf3+0x1d4>
   1077c:	0174efb3          	or	t6,s1,s7
   10780:	020f8263          	beqz	t6,107a4 <__divdf3+0x228>
   10784:	000b8f93          	mv	t6,s7
   10788:	7ff00513          	li	a0,2047
   1078c:	00300613          	li	a2,3
   10790:	eadff06f          	j	1063c <__divdf3+0xc0>
   10794:	00000493          	li	s1,0
   10798:	00000513          	li	a0,0
   1079c:	00100613          	li	a2,1
   107a0:	e9dff06f          	j	1063c <__divdf3+0xc0>
   107a4:	00000493          	li	s1,0
   107a8:	7ff00513          	li	a0,2047
   107ac:	00200613          	li	a2,2
   107b0:	e8dff06f          	j	1063c <__divdf3+0xc0>
  FP_DIV_D (R, A, B);
   107b4:	0134e663          	bltu	s1,s3,107c0 <__divdf3+0x244>
   107b8:	34999c63          	bne	s3,s1,10b10 <__divdf3+0x594>
   107bc:	35f46a63          	bltu	s0,t6,10b10 <__divdf3+0x594>
   107c0:	01f99613          	slli	a2,s3,0x1f
   107c4:	00145713          	srli	a4,s0,0x1
   107c8:	01f41793          	slli	a5,s0,0x1f
   107cc:	0019d993          	srli	s3,s3,0x1
   107d0:	00e66433          	or	s0,a2,a4
   107d4:	00849513          	slli	a0,s1,0x8
   107d8:	018fd893          	srli	a7,t6,0x18
   107dc:	00a8e8b3          	or	a7,a7,a0
   107e0:	01055513          	srli	a0,a0,0x10
   107e4:	02a9d833          	divu	a6,s3,a0
   107e8:	01089e93          	slli	t4,a7,0x10
   107ec:	010ede93          	srli	t4,t4,0x10
   107f0:	01045713          	srli	a4,s0,0x10
   107f4:	008f9313          	slli	t1,t6,0x8
   107f8:	02a9f4b3          	remu	s1,s3,a0
   107fc:	00080f93          	mv	t6,a6
   10800:	030e8633          	mul	a2,t4,a6
   10804:	01049993          	slli	s3,s1,0x10
   10808:	01376733          	or	a4,a4,s3
   1080c:	00c77e63          	bgeu	a4,a2,10828 <__divdf3+0x2ac>
   10810:	01170733          	add	a4,a4,a7
   10814:	fff80f93          	addi	t6,a6,-1
   10818:	01176863          	bltu	a4,a7,10828 <__divdf3+0x2ac>
   1081c:	00c77663          	bgeu	a4,a2,10828 <__divdf3+0x2ac>
   10820:	ffe80f93          	addi	t6,a6,-2
   10824:	01170733          	add	a4,a4,a7
   10828:	40c70733          	sub	a4,a4,a2
   1082c:	02a75e33          	divu	t3,a4,a0
   10830:	01041413          	slli	s0,s0,0x10
   10834:	01045413          	srli	s0,s0,0x10
   10838:	02a77733          	remu	a4,a4,a0
   1083c:	000e0613          	mv	a2,t3
   10840:	03ce8833          	mul	a6,t4,t3
   10844:	01071713          	slli	a4,a4,0x10
   10848:	00e46733          	or	a4,s0,a4
   1084c:	01077e63          	bgeu	a4,a6,10868 <__divdf3+0x2ec>
   10850:	01170733          	add	a4,a4,a7
   10854:	fffe0613          	addi	a2,t3,-1
   10858:	01176863          	bltu	a4,a7,10868 <__divdf3+0x2ec>
   1085c:	01077663          	bgeu	a4,a6,10868 <__divdf3+0x2ec>
   10860:	ffee0613          	addi	a2,t3,-2
   10864:	01170733          	add	a4,a4,a7
   10868:	41070433          	sub	s0,a4,a6
   1086c:	010f9f93          	slli	t6,t6,0x10
   10870:	00010837          	lui	a6,0x10
   10874:	00cfefb3          	or	t6,t6,a2
   10878:	fff80e13          	addi	t3,a6,-1 # ffff <__udivdi3+0x2c7>
   1087c:	010fd613          	srli	a2,t6,0x10
   10880:	01cff733          	and	a4,t6,t3
   10884:	01035f13          	srli	t5,t1,0x10
   10888:	01c37e33          	and	t3,t1,t3
   1088c:	02ee03b3          	mul	t2,t3,a4
   10890:	03c604b3          	mul	s1,a2,t3
   10894:	02ef0733          	mul	a4,t5,a4
   10898:	03e602b3          	mul	t0,a2,t5
   1089c:	00970633          	add	a2,a4,s1
   108a0:	0103d713          	srli	a4,t2,0x10
   108a4:	00c70733          	add	a4,a4,a2
   108a8:	00977463          	bgeu	a4,s1,108b0 <__divdf3+0x334>
   108ac:	010282b3          	add	t0,t0,a6
   108b0:	01075613          	srli	a2,a4,0x10
   108b4:	00560633          	add	a2,a2,t0
   108b8:	000102b7          	lui	t0,0x10
   108bc:	fff28293          	addi	t0,t0,-1 # ffff <__udivdi3+0x2c7>
   108c0:	00577833          	and	a6,a4,t0
   108c4:	01081813          	slli	a6,a6,0x10
   108c8:	0053f3b3          	and	t2,t2,t0
   108cc:	00780833          	add	a6,a6,t2
   108d0:	00c46863          	bltu	s0,a2,108e0 <__divdf3+0x364>
   108d4:	000f8493          	mv	s1,t6
   108d8:	04c41463          	bne	s0,a2,10920 <__divdf3+0x3a4>
   108dc:	0507f263          	bgeu	a5,a6,10920 <__divdf3+0x3a4>
   108e0:	006787b3          	add	a5,a5,t1
   108e4:	0067b733          	sltu	a4,a5,t1
   108e8:	01170733          	add	a4,a4,a7
   108ec:	00e40433          	add	s0,s0,a4
   108f0:	ffff8493          	addi	s1,t6,-1
   108f4:	0088e663          	bltu	a7,s0,10900 <__divdf3+0x384>
   108f8:	02889463          	bne	a7,s0,10920 <__divdf3+0x3a4>
   108fc:	0267e263          	bltu	a5,t1,10920 <__divdf3+0x3a4>
   10900:	00c46663          	bltu	s0,a2,1090c <__divdf3+0x390>
   10904:	00861e63          	bne	a2,s0,10920 <__divdf3+0x3a4>
   10908:	0107fc63          	bgeu	a5,a6,10920 <__divdf3+0x3a4>
   1090c:	006787b3          	add	a5,a5,t1
   10910:	0067b733          	sltu	a4,a5,t1
   10914:	01170733          	add	a4,a4,a7
   10918:	ffef8493          	addi	s1,t6,-2
   1091c:	00e40433          	add	s0,s0,a4
   10920:	41078833          	sub	a6,a5,a6
   10924:	40c40433          	sub	s0,s0,a2
   10928:	0107b7b3          	sltu	a5,a5,a6
   1092c:	40f40433          	sub	s0,s0,a5
   10930:	fff00f93          	li	t6,-1
   10934:	12888463          	beq	a7,s0,10a5c <__divdf3+0x4e0>
   10938:	02a45fb3          	divu	t6,s0,a0
   1093c:	01085713          	srli	a4,a6,0x10
   10940:	02a47433          	remu	s0,s0,a0
   10944:	000f8613          	mv	a2,t6
   10948:	03fe87b3          	mul	a5,t4,t6
   1094c:	01041413          	slli	s0,s0,0x10
   10950:	00876433          	or	s0,a4,s0
   10954:	00f47e63          	bgeu	s0,a5,10970 <__divdf3+0x3f4>
   10958:	01140433          	add	s0,s0,a7
   1095c:	ffff8613          	addi	a2,t6,-1
   10960:	01146863          	bltu	s0,a7,10970 <__divdf3+0x3f4>
   10964:	00f47663          	bgeu	s0,a5,10970 <__divdf3+0x3f4>
   10968:	ffef8613          	addi	a2,t6,-2
   1096c:	01140433          	add	s0,s0,a7
   10970:	40f40433          	sub	s0,s0,a5
   10974:	02a45733          	divu	a4,s0,a0
   10978:	01081813          	slli	a6,a6,0x10
   1097c:	01085813          	srli	a6,a6,0x10
   10980:	02a47433          	remu	s0,s0,a0
   10984:	00070793          	mv	a5,a4
   10988:	02ee8eb3          	mul	t4,t4,a4
   1098c:	01041413          	slli	s0,s0,0x10
   10990:	00886433          	or	s0,a6,s0
   10994:	01d47e63          	bgeu	s0,t4,109b0 <__divdf3+0x434>
   10998:	01140433          	add	s0,s0,a7
   1099c:	fff70793          	addi	a5,a4,-1
   109a0:	01146863          	bltu	s0,a7,109b0 <__divdf3+0x434>
   109a4:	01d47663          	bgeu	s0,t4,109b0 <__divdf3+0x434>
   109a8:	ffe70793          	addi	a5,a4,-2
   109ac:	01140433          	add	s0,s0,a7
   109b0:	01061613          	slli	a2,a2,0x10
   109b4:	00f66633          	or	a2,a2,a5
   109b8:	01061793          	slli	a5,a2,0x10
   109bc:	0107d793          	srli	a5,a5,0x10
   109c0:	01065713          	srli	a4,a2,0x10
   109c4:	02ef0833          	mul	a6,t5,a4
   109c8:	41d40433          	sub	s0,s0,t4
   109cc:	02ff0f33          	mul	t5,t5,a5
   109d0:	03c78eb3          	mul	t4,a5,t3
   109d4:	03c70e33          	mul	t3,a4,t3
   109d8:	010ed793          	srli	a5,t4,0x10
   109dc:	01cf0f33          	add	t5,t5,t3
   109e0:	01e787b3          	add	a5,a5,t5
   109e4:	01c7f663          	bgeu	a5,t3,109f0 <__divdf3+0x474>
   109e8:	00010737          	lui	a4,0x10
   109ec:	00e80833          	add	a6,a6,a4
   109f0:	0107d713          	srli	a4,a5,0x10
   109f4:	01070733          	add	a4,a4,a6
   109f8:	00010837          	lui	a6,0x10
   109fc:	fff80813          	addi	a6,a6,-1 # ffff <__udivdi3+0x2c7>
   10a00:	0107f533          	and	a0,a5,a6
   10a04:	01051513          	slli	a0,a0,0x10
   10a08:	010efeb3          	and	t4,t4,a6
   10a0c:	01d50533          	add	a0,a0,t4
   10a10:	00e46863          	bltu	s0,a4,10a20 <__divdf3+0x4a4>
   10a14:	24e41063          	bne	s0,a4,10c54 <__divdf3+0x6d8>
   10a18:	00060f93          	mv	t6,a2
   10a1c:	04050063          	beqz	a0,10a5c <__divdf3+0x4e0>
   10a20:	00888433          	add	s0,a7,s0
   10a24:	fff60f93          	addi	t6,a2,-1 # ffffff <//.+0xfea087>
   10a28:	03146463          	bltu	s0,a7,10a50 <__divdf3+0x4d4>
   10a2c:	00e46663          	bltu	s0,a4,10a38 <__divdf3+0x4bc>
   10a30:	22e41063          	bne	s0,a4,10c50 <__divdf3+0x6d4>
   10a34:	02a37063          	bgeu	t1,a0,10a54 <__divdf3+0x4d8>
   10a38:	00131793          	slli	a5,t1,0x1
   10a3c:	0067b333          	sltu	t1,a5,t1
   10a40:	011308b3          	add	a7,t1,a7
   10a44:	ffe60f93          	addi	t6,a2,-2
   10a48:	01140433          	add	s0,s0,a7
   10a4c:	00078313          	mv	t1,a5
   10a50:	00e41463          	bne	s0,a4,10a58 <__divdf3+0x4dc>
   10a54:	00650463          	beq	a0,t1,10a5c <__divdf3+0x4e0>
   10a58:	001fef93          	ori	t6,t6,1
  FP_PACK_D (r, R);
   10a5c:	3ff58793          	addi	a5,a1,1023
   10a60:	10f05863          	blez	a5,10b70 <__divdf3+0x5f4>
   10a64:	007ff713          	andi	a4,t6,7
   10a68:	02070063          	beqz	a4,10a88 <__divdf3+0x50c>
   10a6c:	00fff713          	andi	a4,t6,15
   10a70:	00400613          	li	a2,4
   10a74:	00c70a63          	beq	a4,a2,10a88 <__divdf3+0x50c>
   10a78:	004f8613          	addi	a2,t6,4
   10a7c:	01f63fb3          	sltu	t6,a2,t6
   10a80:	01f484b3          	add	s1,s1,t6
   10a84:	00060f93          	mv	t6,a2
   10a88:	00749713          	slli	a4,s1,0x7
   10a8c:	00075a63          	bgez	a4,10aa0 <__divdf3+0x524>
   10a90:	ff0007b7          	lui	a5,0xff000
   10a94:	fff78793          	addi	a5,a5,-1 # feffffff <//.+0xfefea087>
   10a98:	00f4f4b3          	and	s1,s1,a5
   10a9c:	40058793          	addi	a5,a1,1024
   10aa0:	7fe00713          	li	a4,2046
   10aa4:	0af74063          	blt	a4,a5,10b44 <__divdf3+0x5c8>
   10aa8:	003fdf93          	srli	t6,t6,0x3
   10aac:	01d49713          	slli	a4,s1,0x1d
   10ab0:	01f76733          	or	a4,a4,t6
   10ab4:	0034d513          	srli	a0,s1,0x3
   10ab8:	01479793          	slli	a5,a5,0x14
   10abc:	7ff00637          	lui	a2,0x7ff00
   10ac0:	00c51513          	slli	a0,a0,0xc
  FP_HANDLE_EXCEPTIONS;

  return r;
}
   10ac4:	02c12083          	lw	ra,44(sp)
   10ac8:	02812403          	lw	s0,40(sp)
  FP_PACK_D (r, R);
   10acc:	00c7f7b3          	and	a5,a5,a2
   10ad0:	00c55513          	srli	a0,a0,0xc
   10ad4:	00a7e533          	or	a0,a5,a0
   10ad8:	01f69693          	slli	a3,a3,0x1f
   10adc:	00d567b3          	or	a5,a0,a3
}
   10ae0:	02412483          	lw	s1,36(sp)
   10ae4:	02012903          	lw	s2,32(sp)
   10ae8:	01c12983          	lw	s3,28(sp)
   10aec:	01812a03          	lw	s4,24(sp)
   10af0:	01412a83          	lw	s5,20(sp)
   10af4:	01012b03          	lw	s6,16(sp)
   10af8:	00c12b83          	lw	s7,12(sp)
   10afc:	00812c03          	lw	s8,8(sp)
   10b00:	00070513          	mv	a0,a4
   10b04:	00078593          	mv	a1,a5
   10b08:	03010113          	addi	sp,sp,48
   10b0c:	00008067          	ret
  FP_DIV_D (R, A, B);
   10b10:	fff58593          	addi	a1,a1,-1
   10b14:	00000793          	li	a5,0
   10b18:	cbdff06f          	j	107d4 <__divdf3+0x258>
  FP_UNPACK_D (A, a);
   10b1c:	000a0693          	mv	a3,s4
  FP_DIV_D (R, A, B);
   10b20:	00098493          	mv	s1,s3
   10b24:	00040f93          	mv	t6,s0
   10b28:	000b0613          	mv	a2,s6
  FP_PACK_D (r, R);
   10b2c:	00300793          	li	a5,3
   10b30:	0ef60863          	beq	a2,a5,10c20 <__divdf3+0x6a4>
   10b34:	00100793          	li	a5,1
   10b38:	0ef60e63          	beq	a2,a5,10c34 <__divdf3+0x6b8>
   10b3c:	00200793          	li	a5,2
   10b40:	f0f61ee3          	bne	a2,a5,10a5c <__divdf3+0x4e0>
   10b44:	00000513          	li	a0,0
   10b48:	00000713          	li	a4,0
   10b4c:	7ff00793          	li	a5,2047
   10b50:	f69ff06f          	j	10ab8 <__divdf3+0x53c>
  FP_UNPACK_D (B, b);
   10b54:	000c0693          	mv	a3,s8
  FP_DIV_D (R, A, B);
   10b58:	fd5ff06f          	j	10b2c <__divdf3+0x5b0>
   10b5c:	000804b7          	lui	s1,0x80
   10b60:	00000f93          	li	t6,0
   10b64:	00000693          	li	a3,0
   10b68:	00300613          	li	a2,3
   10b6c:	fc1ff06f          	j	10b2c <__divdf3+0x5b0>
  FP_PACK_D (r, R);
   10b70:	00100513          	li	a0,1
   10b74:	40f50533          	sub	a0,a0,a5
   10b78:	03800713          	li	a4,56
   10b7c:	0aa74c63          	blt	a4,a0,10c34 <__divdf3+0x6b8>
   10b80:	01f00713          	li	a4,31
   10b84:	06a74463          	blt	a4,a0,10bec <__divdf3+0x670>
   10b88:	41e58593          	addi	a1,a1,1054
   10b8c:	00b497b3          	sll	a5,s1,a1
   10b90:	00afd733          	srl	a4,t6,a0
   10b94:	00bf95b3          	sll	a1,t6,a1
   10b98:	00e7e7b3          	or	a5,a5,a4
   10b9c:	00b035b3          	snez	a1,a1
   10ba0:	00b7e7b3          	or	a5,a5,a1
   10ba4:	00a4d533          	srl	a0,s1,a0
   10ba8:	0077f713          	andi	a4,a5,7
   10bac:	02070063          	beqz	a4,10bcc <__divdf3+0x650>
   10bb0:	00f7f713          	andi	a4,a5,15
   10bb4:	00400613          	li	a2,4
   10bb8:	00c70a63          	beq	a4,a2,10bcc <__divdf3+0x650>
   10bbc:	00478713          	addi	a4,a5,4
   10bc0:	00f737b3          	sltu	a5,a4,a5
   10bc4:	00f50533          	add	a0,a0,a5
   10bc8:	00070793          	mv	a5,a4
   10bcc:	00851713          	slli	a4,a0,0x8
   10bd0:	06074863          	bltz	a4,10c40 <__divdf3+0x6c4>
   10bd4:	01d51713          	slli	a4,a0,0x1d
   10bd8:	0037d793          	srli	a5,a5,0x3
   10bdc:	00f76733          	or	a4,a4,a5
   10be0:	00355513          	srli	a0,a0,0x3
   10be4:	00000793          	li	a5,0
   10be8:	ed1ff06f          	j	10ab8 <__divdf3+0x53c>
   10bec:	fe100713          	li	a4,-31
   10bf0:	40f707b3          	sub	a5,a4,a5
   10bf4:	02000613          	li	a2,32
   10bf8:	00f4d7b3          	srl	a5,s1,a5
   10bfc:	00000713          	li	a4,0
   10c00:	00c50663          	beq	a0,a2,10c0c <__divdf3+0x690>
   10c04:	43e58593          	addi	a1,a1,1086
   10c08:	00b49733          	sll	a4,s1,a1
   10c0c:	01f76fb3          	or	t6,a4,t6
   10c10:	01f03fb3          	snez	t6,t6
   10c14:	01f7e7b3          	or	a5,a5,t6
   10c18:	00000513          	li	a0,0
   10c1c:	f8dff06f          	j	10ba8 <__divdf3+0x62c>
   10c20:	00080537          	lui	a0,0x80
   10c24:	00000713          	li	a4,0
   10c28:	7ff00793          	li	a5,2047
   10c2c:	00000693          	li	a3,0
   10c30:	e89ff06f          	j	10ab8 <__divdf3+0x53c>
   10c34:	00000513          	li	a0,0
   10c38:	00000713          	li	a4,0
   10c3c:	fa9ff06f          	j	10be4 <__divdf3+0x668>
   10c40:	00000513          	li	a0,0
   10c44:	00000713          	li	a4,0
   10c48:	00100793          	li	a5,1
   10c4c:	e6dff06f          	j	10ab8 <__divdf3+0x53c>
  FP_DIV_D (R, A, B);
   10c50:	000f8613          	mv	a2,t6
   10c54:	00060f93          	mv	t6,a2
   10c58:	e01ff06f          	j	10a58 <__divdf3+0x4dc>

00010c5c <__muldf3>:
#include "soft-fp.h"
#include "double.h"

DFtype
__muldf3 (DFtype a, DFtype b)
{
   10c5c:	fd010113          	addi	sp,sp,-48
  FP_DECL_D (B);
  FP_DECL_D (R);
  DFtype r;

  FP_INIT_ROUNDMODE;
  FP_UNPACK_D (A, a);
   10c60:	0145d793          	srli	a5,a1,0x14
{
   10c64:	02812423          	sw	s0,40(sp)
   10c68:	02912223          	sw	s1,36(sp)
   10c6c:	01312e23          	sw	s3,28(sp)
   10c70:	01412c23          	sw	s4,24(sp)
   10c74:	01512a23          	sw	s5,20(sp)
  FP_UNPACK_D (A, a);
   10c78:	00c59493          	slli	s1,a1,0xc
{
   10c7c:	02112623          	sw	ra,44(sp)
   10c80:	03212023          	sw	s2,32(sp)
   10c84:	01612823          	sw	s6,16(sp)
   10c88:	01712623          	sw	s7,12(sp)
  FP_UNPACK_D (A, a);
   10c8c:	01579713          	slli	a4,a5,0x15
{
   10c90:	00050413          	mv	s0,a0
   10c94:	00060993          	mv	s3,a2
   10c98:	00068a93          	mv	s5,a3
  FP_UNPACK_D (A, a);
   10c9c:	00c4d493          	srli	s1,s1,0xc
   10ca0:	01f5da13          	srli	s4,a1,0x1f
   10ca4:	0a070663          	beqz	a4,10d50 <__muldf3+0xf4>
   10ca8:	7ff7fb13          	andi	s6,a5,2047
   10cac:	7ff00793          	li	a5,2047
   10cb0:	10fb0263          	beq	s6,a5,10db4 <__muldf3+0x158>
   10cb4:	01d55793          	srli	a5,a0,0x1d
   10cb8:	00349493          	slli	s1,s1,0x3
   10cbc:	0097e4b3          	or	s1,a5,s1
   10cc0:	008007b7          	lui	a5,0x800
   10cc4:	00f4e4b3          	or	s1,s1,a5
   10cc8:	00351913          	slli	s2,a0,0x3
   10ccc:	c01b0b13          	addi	s6,s6,-1023
   10cd0:	00000b93          	li	s7,0
  FP_UNPACK_D (B, b);
   10cd4:	014ad793          	srli	a5,s5,0x14
   10cd8:	00ca9413          	slli	s0,s5,0xc
   10cdc:	01579713          	slli	a4,a5,0x15
   10ce0:	00c45413          	srli	s0,s0,0xc
   10ce4:	7ff7f513          	andi	a0,a5,2047
   10ce8:	01fada93          	srli	s5,s5,0x1f
   10cec:	10070063          	beqz	a4,10dec <__muldf3+0x190>
   10cf0:	7ff00793          	li	a5,2047
   10cf4:	16f50063          	beq	a0,a5,10e54 <__muldf3+0x1f8>
   10cf8:	01d9d793          	srli	a5,s3,0x1d
   10cfc:	00341413          	slli	s0,s0,0x3
   10d00:	0087e433          	or	s0,a5,s0
   10d04:	008007b7          	lui	a5,0x800
   10d08:	00f46433          	or	s0,s0,a5
   10d0c:	c0150513          	addi	a0,a0,-1023 # 7fc01 <//.+0x69c89>
   10d10:	00399793          	slli	a5,s3,0x3
   10d14:	00000713          	li	a4,0
  FP_MUL_D (R, A, B);
   10d18:	002b9693          	slli	a3,s7,0x2
   10d1c:	00e6e6b3          	or	a3,a3,a4
   10d20:	00ab0533          	add	a0,s6,a0
   10d24:	fff68693          	addi	a3,a3,-1
   10d28:	00e00813          	li	a6,14
   10d2c:	015a4633          	xor	a2,s4,s5
   10d30:	00150593          	addi	a1,a0,1
   10d34:	14d86c63          	bltu	a6,a3,10e8c <__muldf3+0x230>
   10d38:	00015537          	lui	a0,0x15
   10d3c:	00269693          	slli	a3,a3,0x2
   10d40:	ef450513          	addi	a0,a0,-268 # 14ef4 <zeroes.4448+0x4c>
   10d44:	00a686b3          	add	a3,a3,a0
   10d48:	0006a683          	lw	a3,0(a3)
   10d4c:	00068067          	jr	a3
  FP_UNPACK_D (A, a);
   10d50:	00a4e933          	or	s2,s1,a0
   10d54:	06090c63          	beqz	s2,10dcc <__muldf3+0x170>
   10d58:	04048063          	beqz	s1,10d98 <__muldf3+0x13c>
   10d5c:	00048513          	mv	a0,s1
   10d60:	4b8030ef          	jal	ra,14218 <__clzsi2>
   10d64:	ff550713          	addi	a4,a0,-11
   10d68:	01c00793          	li	a5,28
   10d6c:	02e7cc63          	blt	a5,a4,10da4 <__muldf3+0x148>
   10d70:	01d00793          	li	a5,29
   10d74:	ff850913          	addi	s2,a0,-8
   10d78:	40e787b3          	sub	a5,a5,a4
   10d7c:	012494b3          	sll	s1,s1,s2
   10d80:	00f457b3          	srl	a5,s0,a5
   10d84:	0097e4b3          	or	s1,a5,s1
   10d88:	01241933          	sll	s2,s0,s2
   10d8c:	c0d00b13          	li	s6,-1011
   10d90:	40ab0b33          	sub	s6,s6,a0
   10d94:	f3dff06f          	j	10cd0 <__muldf3+0x74>
   10d98:	480030ef          	jal	ra,14218 <__clzsi2>
   10d9c:	02050513          	addi	a0,a0,32
   10da0:	fc5ff06f          	j	10d64 <__muldf3+0x108>
   10da4:	fd850493          	addi	s1,a0,-40
   10da8:	009414b3          	sll	s1,s0,s1
   10dac:	00000913          	li	s2,0
   10db0:	fddff06f          	j	10d8c <__muldf3+0x130>
   10db4:	00a4e933          	or	s2,s1,a0
   10db8:	02090263          	beqz	s2,10ddc <__muldf3+0x180>
   10dbc:	00050913          	mv	s2,a0
   10dc0:	7ff00b13          	li	s6,2047
   10dc4:	00300b93          	li	s7,3
   10dc8:	f0dff06f          	j	10cd4 <__muldf3+0x78>
   10dcc:	00000493          	li	s1,0
   10dd0:	00000b13          	li	s6,0
   10dd4:	00100b93          	li	s7,1
   10dd8:	efdff06f          	j	10cd4 <__muldf3+0x78>
   10ddc:	00000493          	li	s1,0
   10de0:	7ff00b13          	li	s6,2047
   10de4:	00200b93          	li	s7,2
   10de8:	eedff06f          	j	10cd4 <__muldf3+0x78>
  FP_UNPACK_D (B, b);
   10dec:	013467b3          	or	a5,s0,s3
   10df0:	06078e63          	beqz	a5,10e6c <__muldf3+0x210>
   10df4:	04040063          	beqz	s0,10e34 <__muldf3+0x1d8>
   10df8:	00040513          	mv	a0,s0
   10dfc:	41c030ef          	jal	ra,14218 <__clzsi2>
   10e00:	ff550693          	addi	a3,a0,-11
   10e04:	01c00793          	li	a5,28
   10e08:	02d7ce63          	blt	a5,a3,10e44 <__muldf3+0x1e8>
   10e0c:	01d00713          	li	a4,29
   10e10:	ff850793          	addi	a5,a0,-8
   10e14:	40d70733          	sub	a4,a4,a3
   10e18:	00f41433          	sll	s0,s0,a5
   10e1c:	00e9d733          	srl	a4,s3,a4
   10e20:	00876433          	or	s0,a4,s0
   10e24:	00f997b3          	sll	a5,s3,a5
   10e28:	c0d00713          	li	a4,-1011
   10e2c:	40a70533          	sub	a0,a4,a0
   10e30:	ee5ff06f          	j	10d14 <__muldf3+0xb8>
   10e34:	00098513          	mv	a0,s3
   10e38:	3e0030ef          	jal	ra,14218 <__clzsi2>
   10e3c:	02050513          	addi	a0,a0,32
   10e40:	fc1ff06f          	j	10e00 <__muldf3+0x1a4>
   10e44:	fd850413          	addi	s0,a0,-40
   10e48:	00899433          	sll	s0,s3,s0
   10e4c:	00000793          	li	a5,0
   10e50:	fd9ff06f          	j	10e28 <__muldf3+0x1cc>
   10e54:	013467b3          	or	a5,s0,s3
   10e58:	02078263          	beqz	a5,10e7c <__muldf3+0x220>
   10e5c:	00098793          	mv	a5,s3
   10e60:	7ff00513          	li	a0,2047
   10e64:	00300713          	li	a4,3
   10e68:	eb1ff06f          	j	10d18 <__muldf3+0xbc>
   10e6c:	00000413          	li	s0,0
   10e70:	00000513          	li	a0,0
   10e74:	00100713          	li	a4,1
   10e78:	ea1ff06f          	j	10d18 <__muldf3+0xbc>
   10e7c:	00000413          	li	s0,0
   10e80:	7ff00513          	li	a0,2047
   10e84:	00200713          	li	a4,2
   10e88:	e91ff06f          	j	10d18 <__muldf3+0xbc>
  FP_MUL_D (R, A, B);
   10e8c:	00010f37          	lui	t5,0x10
   10e90:	ffff0713          	addi	a4,t5,-1 # ffff <__udivdi3+0x2c7>
   10e94:	01095693          	srli	a3,s2,0x10
   10e98:	0107d313          	srli	t1,a5,0x10
   10e9c:	00e97933          	and	s2,s2,a4
   10ea0:	00e7f7b3          	and	a5,a5,a4
   10ea4:	032308b3          	mul	a7,t1,s2
   10ea8:	02f90833          	mul	a6,s2,a5
   10eac:	02f68fb3          	mul	t6,a3,a5
   10eb0:	01f88eb3          	add	t4,a7,t6
   10eb4:	01085893          	srli	a7,a6,0x10
   10eb8:	01d888b3          	add	a7,a7,t4
   10ebc:	02668e33          	mul	t3,a3,t1
   10ec0:	01f8f463          	bgeu	a7,t6,10ec8 <__muldf3+0x26c>
   10ec4:	01ee0e33          	add	t3,t3,t5
   10ec8:	0108d293          	srli	t0,a7,0x10
   10ecc:	00e8f8b3          	and	a7,a7,a4
   10ed0:	00e87833          	and	a6,a6,a4
   10ed4:	01045f13          	srli	t5,s0,0x10
   10ed8:	01089893          	slli	a7,a7,0x10
   10edc:	00e47433          	and	s0,s0,a4
   10ee0:	010888b3          	add	a7,a7,a6
   10ee4:	02868733          	mul	a4,a3,s0
   10ee8:	02890833          	mul	a6,s2,s0
   10eec:	032f0933          	mul	s2,t5,s2
   10ef0:	00e90eb3          	add	t4,s2,a4
   10ef4:	01085913          	srli	s2,a6,0x10
   10ef8:	01d90933          	add	s2,s2,t4
   10efc:	03e686b3          	mul	a3,a3,t5
   10f00:	00e97663          	bgeu	s2,a4,10f0c <__muldf3+0x2b0>
   10f04:	00010737          	lui	a4,0x10
   10f08:	00e686b3          	add	a3,a3,a4
   10f0c:	01095e93          	srli	t4,s2,0x10
   10f10:	00de8eb3          	add	t4,t4,a3
   10f14:	000106b7          	lui	a3,0x10
   10f18:	fff68f93          	addi	t6,a3,-1 # ffff <__udivdi3+0x2c7>
   10f1c:	01f97933          	and	s2,s2,t6
   10f20:	01f87833          	and	a6,a6,t6
   10f24:	0104d713          	srli	a4,s1,0x10
   10f28:	01091913          	slli	s2,s2,0x10
   10f2c:	01f4f4b3          	and	s1,s1,t6
   10f30:	029783b3          	mul	t2,a5,s1
   10f34:	01090933          	add	s2,s2,a6
   10f38:	012282b3          	add	t0,t0,s2
   10f3c:	02930833          	mul	a6,t1,s1
   10f40:	02f707b3          	mul	a5,a4,a5
   10f44:	02e30fb3          	mul	t6,t1,a4
   10f48:	00f80333          	add	t1,a6,a5
   10f4c:	0103d813          	srli	a6,t2,0x10
   10f50:	00680833          	add	a6,a6,t1
   10f54:	00f87463          	bgeu	a6,a5,10f5c <__muldf3+0x300>
   10f58:	00df8fb3          	add	t6,t6,a3
   10f5c:	01085793          	srli	a5,a6,0x10
   10f60:	000106b7          	lui	a3,0x10
   10f64:	01f78fb3          	add	t6,a5,t6
   10f68:	fff68793          	addi	a5,a3,-1 # ffff <__udivdi3+0x2c7>
   10f6c:	00f87833          	and	a6,a6,a5
   10f70:	00f3f7b3          	and	a5,t2,a5
   10f74:	029403b3          	mul	t2,s0,s1
   10f78:	01081813          	slli	a6,a6,0x10
   10f7c:	00f80833          	add	a6,a6,a5
   10f80:	02870433          	mul	s0,a4,s0
   10f84:	029f04b3          	mul	s1,t5,s1
   10f88:	02ef0333          	mul	t1,t5,a4
   10f8c:	008484b3          	add	s1,s1,s0
   10f90:	0103d713          	srli	a4,t2,0x10
   10f94:	009704b3          	add	s1,a4,s1
   10f98:	0084f463          	bgeu	s1,s0,10fa0 <__muldf3+0x344>
   10f9c:	00d30333          	add	t1,t1,a3
   10fa0:	000107b7          	lui	a5,0x10
   10fa4:	fff78793          	addi	a5,a5,-1 # ffff <__udivdi3+0x2c7>
   10fa8:	00f4f6b3          	and	a3,s1,a5
   10fac:	01069693          	slli	a3,a3,0x10
   10fb0:	00f3f7b3          	and	a5,t2,a5
   10fb4:	005e0e33          	add	t3,t3,t0
   10fb8:	00f686b3          	add	a3,a3,a5
   10fbc:	012e3933          	sltu	s2,t3,s2
   10fc0:	01d686b3          	add	a3,a3,t4
   10fc4:	01268733          	add	a4,a3,s2
   10fc8:	010e0e33          	add	t3,t3,a6
   10fcc:	010e3833          	sltu	a6,t3,a6
   10fd0:	01f70f33          	add	t5,a4,t6
   10fd4:	010f02b3          	add	t0,t5,a6
   10fd8:	01d6b6b3          	sltu	a3,a3,t4
   10fdc:	01273733          	sltu	a4,a4,s2
   10fe0:	00e6e733          	or	a4,a3,a4
   10fe4:	0102b833          	sltu	a6,t0,a6
   10fe8:	0104d493          	srli	s1,s1,0x10
   10fec:	01ff3fb3          	sltu	t6,t5,t6
   10ff0:	00970733          	add	a4,a4,s1
   10ff4:	010fe833          	or	a6,t6,a6
   10ff8:	009e1793          	slli	a5,t3,0x9
   10ffc:	01070733          	add	a4,a4,a6
   11000:	00670733          	add	a4,a4,t1
   11004:	0117e7b3          	or	a5,a5,a7
   11008:	00971713          	slli	a4,a4,0x9
   1100c:	00f037b3          	snez	a5,a5
   11010:	017e5e13          	srli	t3,t3,0x17
   11014:	0172d413          	srli	s0,t0,0x17
   11018:	01c7e7b3          	or	a5,a5,t3
   1101c:	00929293          	slli	t0,t0,0x9
   11020:	00771693          	slli	a3,a4,0x7
   11024:	00876433          	or	s0,a4,s0
   11028:	0057e7b3          	or	a5,a5,t0
   1102c:	1006d463          	bgez	a3,11134 <__muldf3+0x4d8>
   11030:	0017d713          	srli	a4,a5,0x1
   11034:	0017f793          	andi	a5,a5,1
   11038:	00f767b3          	or	a5,a4,a5
   1103c:	01f41713          	slli	a4,s0,0x1f
   11040:	00e7e7b3          	or	a5,a5,a4
   11044:	00145413          	srli	s0,s0,0x1
  FP_PACK_D (r, R);
   11048:	3ff58693          	addi	a3,a1,1023
   1104c:	0ed05863          	blez	a3,1113c <__muldf3+0x4e0>
   11050:	0077f713          	andi	a4,a5,7
   11054:	02070063          	beqz	a4,11074 <__muldf3+0x418>
   11058:	00f7f713          	andi	a4,a5,15
   1105c:	00400513          	li	a0,4
   11060:	00a70a63          	beq	a4,a0,11074 <__muldf3+0x418>
   11064:	00478713          	addi	a4,a5,4
   11068:	00f737b3          	sltu	a5,a4,a5
   1106c:	00f40433          	add	s0,s0,a5
   11070:	00070793          	mv	a5,a4
   11074:	00741713          	slli	a4,s0,0x7
   11078:	00075a63          	bgez	a4,1108c <__muldf3+0x430>
   1107c:	ff000737          	lui	a4,0xff000
   11080:	fff70713          	addi	a4,a4,-1 # feffffff <//.+0xfefea087>
   11084:	00e47433          	and	s0,s0,a4
   11088:	40058693          	addi	a3,a1,1024
   1108c:	7fe00713          	li	a4,2046
   11090:	16d74863          	blt	a4,a3,11200 <__muldf3+0x5a4>
   11094:	0037d713          	srli	a4,a5,0x3
   11098:	01d41793          	slli	a5,s0,0x1d
   1109c:	00e7e7b3          	or	a5,a5,a4
   110a0:	00345413          	srli	s0,s0,0x3
   110a4:	01469713          	slli	a4,a3,0x14
   110a8:	00c41413          	slli	s0,s0,0xc
   110ac:	7ff006b7          	lui	a3,0x7ff00
   110b0:	00d77733          	and	a4,a4,a3
   110b4:	00c45413          	srli	s0,s0,0xc
   110b8:	00876433          	or	s0,a4,s0
   110bc:	01f61613          	slli	a2,a2,0x1f
  FP_HANDLE_EXCEPTIONS;

  return r;
}
   110c0:	02c12083          	lw	ra,44(sp)
  FP_PACK_D (r, R);
   110c4:	00c46733          	or	a4,s0,a2
}
   110c8:	02812403          	lw	s0,40(sp)
   110cc:	02412483          	lw	s1,36(sp)
   110d0:	02012903          	lw	s2,32(sp)
   110d4:	01c12983          	lw	s3,28(sp)
   110d8:	01812a03          	lw	s4,24(sp)
   110dc:	01412a83          	lw	s5,20(sp)
   110e0:	01012b03          	lw	s6,16(sp)
   110e4:	00c12b83          	lw	s7,12(sp)
   110e8:	00078513          	mv	a0,a5
   110ec:	00070593          	mv	a1,a4
   110f0:	03010113          	addi	sp,sp,48
   110f4:	00008067          	ret
  FP_UNPACK_D (A, a);
   110f8:	000a0613          	mv	a2,s4
  FP_MUL_D (R, A, B);
   110fc:	00048413          	mv	s0,s1
   11100:	00090793          	mv	a5,s2
   11104:	000b8713          	mv	a4,s7
  FP_PACK_D (r, R);
   11108:	00200693          	li	a3,2
   1110c:	0ed70a63          	beq	a4,a3,11200 <__muldf3+0x5a4>
   11110:	00300693          	li	a3,3
   11114:	0cd70c63          	beq	a4,a3,111ec <__muldf3+0x590>
   11118:	00100693          	li	a3,1
   1111c:	f2d716e3          	bne	a4,a3,11048 <__muldf3+0x3ec>
   11120:	00000413          	li	s0,0
   11124:	00000793          	li	a5,0
   11128:	0880006f          	j	111b0 <__muldf3+0x554>
  FP_UNPACK_D (B, b);
   1112c:	000a8613          	mv	a2,s5
  FP_MUL_D (R, A, B);
   11130:	fd9ff06f          	j	11108 <__muldf3+0x4ac>
   11134:	00050593          	mv	a1,a0
   11138:	f11ff06f          	j	11048 <__muldf3+0x3ec>
  FP_PACK_D (r, R);
   1113c:	00100513          	li	a0,1
   11140:	40d50533          	sub	a0,a0,a3
   11144:	03800713          	li	a4,56
   11148:	fca74ce3          	blt	a4,a0,11120 <__muldf3+0x4c4>
   1114c:	01f00713          	li	a4,31
   11150:	06a74463          	blt	a4,a0,111b8 <__muldf3+0x55c>
   11154:	41e58593          	addi	a1,a1,1054
   11158:	00b41733          	sll	a4,s0,a1
   1115c:	00a7d6b3          	srl	a3,a5,a0
   11160:	00b797b3          	sll	a5,a5,a1
   11164:	00d76733          	or	a4,a4,a3
   11168:	00f037b3          	snez	a5,a5
   1116c:	00f767b3          	or	a5,a4,a5
   11170:	00a45433          	srl	s0,s0,a0
   11174:	0077f713          	andi	a4,a5,7
   11178:	02070063          	beqz	a4,11198 <__muldf3+0x53c>
   1117c:	00f7f713          	andi	a4,a5,15
   11180:	00400693          	li	a3,4
   11184:	00d70a63          	beq	a4,a3,11198 <__muldf3+0x53c>
   11188:	00478713          	addi	a4,a5,4
   1118c:	00f737b3          	sltu	a5,a4,a5
   11190:	00f40433          	add	s0,s0,a5
   11194:	00070793          	mv	a5,a4
   11198:	00841713          	slli	a4,s0,0x8
   1119c:	06074a63          	bltz	a4,11210 <__muldf3+0x5b4>
   111a0:	01d41713          	slli	a4,s0,0x1d
   111a4:	0037d793          	srli	a5,a5,0x3
   111a8:	00f767b3          	or	a5,a4,a5
   111ac:	00345413          	srli	s0,s0,0x3
   111b0:	00000693          	li	a3,0
   111b4:	ef1ff06f          	j	110a4 <__muldf3+0x448>
   111b8:	fe100713          	li	a4,-31
   111bc:	40d70733          	sub	a4,a4,a3
   111c0:	02000813          	li	a6,32
   111c4:	00e45733          	srl	a4,s0,a4
   111c8:	00000693          	li	a3,0
   111cc:	01050663          	beq	a0,a6,111d8 <__muldf3+0x57c>
   111d0:	43e58593          	addi	a1,a1,1086
   111d4:	00b416b3          	sll	a3,s0,a1
   111d8:	00f6e7b3          	or	a5,a3,a5
   111dc:	00f037b3          	snez	a5,a5
   111e0:	00f767b3          	or	a5,a4,a5
   111e4:	00000413          	li	s0,0
   111e8:	f8dff06f          	j	11174 <__muldf3+0x518>
   111ec:	00080437          	lui	s0,0x80
   111f0:	00000793          	li	a5,0
   111f4:	7ff00693          	li	a3,2047
   111f8:	00000613          	li	a2,0
   111fc:	ea9ff06f          	j	110a4 <__muldf3+0x448>
   11200:	00000413          	li	s0,0
   11204:	00000793          	li	a5,0
   11208:	7ff00693          	li	a3,2047
   1120c:	e99ff06f          	j	110a4 <__muldf3+0x448>
   11210:	00000413          	li	s0,0
   11214:	00000793          	li	a5,0
   11218:	00100693          	li	a3,1
   1121c:	e89ff06f          	j	110a4 <__muldf3+0x448>

00011220 <__eqtf2>:
#include "soft-fp.h"
#include "quad.h"

CMPtype
__eqtf2 (TFtype a, TFtype b)
{
   11220:	00c52783          	lw	a5,12(a0)
   11224:	0005af03          	lw	t5,0(a1)
   11228:	0045af83          	lw	t6,4(a1)
   1122c:	0085a283          	lw	t0,8(a1)
   11230:	00c5a583          	lw	a1,12(a1)
  FP_DECL_Q (A);
  FP_DECL_Q (B);
  CMPtype r;

  FP_INIT_EXCEPTIONS;
  FP_UNPACK_RAW_Q (A, a);
   11234:	00008737          	lui	a4,0x8
   11238:	0107d693          	srli	a3,a5,0x10
   1123c:	fff70713          	addi	a4,a4,-1 # 7fff <__mcmp+0xb>
   11240:	01079813          	slli	a6,a5,0x10
  FP_UNPACK_RAW_Q (B, b);
   11244:	01059e93          	slli	t4,a1,0x10
  FP_UNPACK_RAW_Q (A, a);
   11248:	01f7d613          	srli	a2,a5,0x1f
   1124c:	00e6f6b3          	and	a3,a3,a4
  FP_UNPACK_RAW_Q (B, b);
   11250:	0105d793          	srli	a5,a1,0x10
{
   11254:	00052883          	lw	a7,0(a0)
   11258:	00452303          	lw	t1,4(a0)
   1125c:	00852e03          	lw	t3,8(a0)
   11260:	ff010113          	addi	sp,sp,-16
  FP_UNPACK_RAW_Q (A, a);
   11264:	01085813          	srli	a6,a6,0x10
  FP_UNPACK_RAW_Q (B, b);
   11268:	010ede93          	srli	t4,t4,0x10
   1126c:	00e7f7b3          	and	a5,a5,a4
   11270:	01f5d593          	srli	a1,a1,0x1f
  FP_CMP_EQ_Q (r, A, B, 1);
   11274:	02e69063          	bne	a3,a4,11294 <__eqtf2+0x74>
   11278:	0068e733          	or	a4,a7,t1
   1127c:	01c76733          	or	a4,a4,t3
   11280:	01076733          	or	a4,a4,a6
   11284:	00100513          	li	a0,1
   11288:	04071a63          	bnez	a4,112dc <__eqtf2+0xbc>
   1128c:	04d79863          	bne	a5,a3,112dc <__eqtf2+0xbc>
   11290:	0080006f          	j	11298 <__eqtf2+0x78>
   11294:	00e79c63          	bne	a5,a4,112ac <__eqtf2+0x8c>
   11298:	01ff6733          	or	a4,t5,t6
   1129c:	00576733          	or	a4,a4,t0
   112a0:	01d76733          	or	a4,a4,t4
   112a4:	00100513          	li	a0,1
   112a8:	02071a63          	bnez	a4,112dc <__eqtf2+0xbc>
   112ac:	00100513          	li	a0,1
   112b0:	02d79663          	bne	a5,a3,112dc <__eqtf2+0xbc>
   112b4:	03e89463          	bne	a7,t5,112dc <__eqtf2+0xbc>
   112b8:	03f31263          	bne	t1,t6,112dc <__eqtf2+0xbc>
   112bc:	025e1063          	bne	t3,t0,112dc <__eqtf2+0xbc>
   112c0:	01d81e63          	bne	a6,t4,112dc <__eqtf2+0xbc>
   112c4:	02b60063          	beq	a2,a1,112e4 <__eqtf2+0xc4>
   112c8:	00079a63          	bnez	a5,112dc <__eqtf2+0xbc>
   112cc:	0068e533          	or	a0,a7,t1
   112d0:	01c56533          	or	a0,a0,t3
   112d4:	01056533          	or	a0,a0,a6
   112d8:	00a03533          	snez	a0,a0
  FP_HANDLE_EXCEPTIONS;

  return r;
}
   112dc:	01010113          	addi	sp,sp,16
   112e0:	00008067          	ret
  FP_CMP_EQ_Q (r, A, B, 1);
   112e4:	00000513          	li	a0,0
   112e8:	ff5ff06f          	j	112dc <__eqtf2+0xbc>

000112ec <__getf2>:
#include "soft-fp.h"
#include "quad.h"

CMPtype
__getf2 (TFtype a, TFtype b)
{
   112ec:	00052f83          	lw	t6,0(a0)
   112f0:	00452803          	lw	a6,4(a0)
   112f4:	00852e03          	lw	t3,8(a0)
   112f8:	00c52503          	lw	a0,12(a0)
   112fc:	00c5a683          	lw	a3,12(a1)
  FP_DECL_Q (A);
  FP_DECL_Q (B);
  CMPtype r;

  FP_INIT_EXCEPTIONS;
  FP_UNPACK_RAW_Q (A, a);
   11300:	000087b7          	lui	a5,0x8
   11304:	01055613          	srli	a2,a0,0x10
   11308:	fff78793          	addi	a5,a5,-1 # 7fff <__mcmp+0xb>
  FP_UNPACK_RAW_Q (B, b);
   1130c:	01069313          	slli	t1,a3,0x10
   11310:	0106d713          	srli	a4,a3,0x10
{
   11314:	0005a283          	lw	t0,0(a1)
   11318:	0045a883          	lw	a7,4(a1)
   1131c:	0085ae83          	lw	t4,8(a1)
  FP_UNPACK_RAW_Q (A, a);
   11320:	00f67633          	and	a2,a2,a5
   11324:	01051593          	slli	a1,a0,0x10
{
   11328:	ff010113          	addi	sp,sp,-16
  FP_UNPACK_RAW_Q (A, a);
   1132c:	0105d593          	srli	a1,a1,0x10
   11330:	01f55513          	srli	a0,a0,0x1f
  FP_UNPACK_RAW_Q (B, b);
   11334:	01035313          	srli	t1,t1,0x10
   11338:	00f77733          	and	a4,a4,a5
   1133c:	01f6d693          	srli	a3,a3,0x1f
  FP_CMP_Q (r, A, B, -2, 2);
   11340:	00f61e63          	bne	a2,a5,1135c <__getf2+0x70>
   11344:	010fe7b3          	or	a5,t6,a6
   11348:	01c7e7b3          	or	a5,a5,t3
   1134c:	00b7e7b3          	or	a5,a5,a1
   11350:	0c078863          	beqz	a5,11420 <__getf2+0x134>
   11354:	ffe00513          	li	a0,-2
   11358:	0640006f          	j	113bc <__getf2+0xd0>
   1135c:	00f71a63          	bne	a4,a5,11370 <__getf2+0x84>
   11360:	0112e7b3          	or	a5,t0,a7
   11364:	01d7e7b3          	or	a5,a5,t4
   11368:	0067e7b3          	or	a5,a5,t1
   1136c:	fe0794e3          	bnez	a5,11354 <__getf2+0x68>
   11370:	0a061a63          	bnez	a2,11424 <__getf2+0x138>
   11374:	010fe7b3          	or	a5,t6,a6
   11378:	01c7e7b3          	or	a5,a5,t3
   1137c:	00b7e7b3          	or	a5,a5,a1
   11380:	0017b793          	seqz	a5,a5
   11384:	00071a63          	bnez	a4,11398 <__getf2+0xac>
   11388:	0112ef33          	or	t5,t0,a7
   1138c:	01df6f33          	or	t5,t5,t4
   11390:	006f6f33          	or	t5,t5,t1
   11394:	060f0a63          	beqz	t5,11408 <__getf2+0x11c>
   11398:	00079c63          	bnez	a5,113b0 <__getf2+0xc4>
   1139c:	00a69463          	bne	a3,a0,113a4 <__getf2+0xb8>
   113a0:	02c75263          	bge	a4,a2,113c4 <__getf2+0xd8>
   113a4:	04050e63          	beqz	a0,11400 <__getf2+0x114>
   113a8:	fff00513          	li	a0,-1
   113ac:	0100006f          	j	113bc <__getf2+0xd0>
   113b0:	fff00513          	li	a0,-1
   113b4:	00068463          	beqz	a3,113bc <__getf2+0xd0>
   113b8:	00068513          	mv	a0,a3
  FP_HANDLE_EXCEPTIONS;

  return r;
}
   113bc:	01010113          	addi	sp,sp,16
   113c0:	00008067          	ret
  FP_CMP_Q (r, A, B, -2, 2);
   113c4:	00e65663          	bge	a2,a4,113d0 <__getf2+0xe4>
   113c8:	fe051ae3          	bnez	a0,113bc <__getf2+0xd0>
   113cc:	fddff06f          	j	113a8 <__getf2+0xbc>
   113d0:	fcb36ae3          	bltu	t1,a1,113a4 <__getf2+0xb8>
   113d4:	02659e63          	bne	a1,t1,11410 <__getf2+0x124>
   113d8:	fdcee6e3          	bltu	t4,t3,113a4 <__getf2+0xb8>
   113dc:	03de1e63          	bne	t3,t4,11418 <__getf2+0x12c>
   113e0:	fd08e2e3          	bltu	a7,a6,113a4 <__getf2+0xb8>
   113e4:	01181463          	bne	a6,a7,113ec <__getf2+0x100>
   113e8:	fbf2eee3          	bltu	t0,t6,113a4 <__getf2+0xb8>
   113ec:	fd186ee3          	bltu	a6,a7,113c8 <__getf2+0xdc>
   113f0:	01181463          	bne	a6,a7,113f8 <__getf2+0x10c>
   113f4:	fc5feae3          	bltu	t6,t0,113c8 <__getf2+0xdc>
   113f8:	00000513          	li	a0,0
   113fc:	fc1ff06f          	j	113bc <__getf2+0xd0>
   11400:	00100513          	li	a0,1
   11404:	fb9ff06f          	j	113bc <__getf2+0xd0>
   11408:	fe0798e3          	bnez	a5,113f8 <__getf2+0x10c>
   1140c:	f99ff06f          	j	113a4 <__getf2+0xb8>
   11410:	fa65ece3          	bltu	a1,t1,113c8 <__getf2+0xdc>
   11414:	fe5ff06f          	j	113f8 <__getf2+0x10c>
   11418:	fbde68e3          	bltu	t3,t4,113c8 <__getf2+0xdc>
   1141c:	fddff06f          	j	113f8 <__getf2+0x10c>
   11420:	f4c700e3          	beq	a4,a2,11360 <__getf2+0x74>
   11424:	f6071ce3          	bnez	a4,1139c <__getf2+0xb0>
   11428:	00000793          	li	a5,0
   1142c:	f5dff06f          	j	11388 <__getf2+0x9c>

00011430 <__letf2>:
#include "soft-fp.h"
#include "quad.h"

CMPtype
__letf2 (TFtype a, TFtype b)
{
   11430:	00052f83          	lw	t6,0(a0)
   11434:	00452803          	lw	a6,4(a0)
   11438:	00852e03          	lw	t3,8(a0)
   1143c:	00c52503          	lw	a0,12(a0)
   11440:	00c5a683          	lw	a3,12(a1)
  FP_DECL_Q (A);
  FP_DECL_Q (B);
  CMPtype r;

  FP_INIT_EXCEPTIONS;
  FP_UNPACK_RAW_Q (A, a);
   11444:	000087b7          	lui	a5,0x8
   11448:	01055613          	srli	a2,a0,0x10
   1144c:	fff78793          	addi	a5,a5,-1 # 7fff <__mcmp+0xb>
  FP_UNPACK_RAW_Q (B, b);
   11450:	01069313          	slli	t1,a3,0x10
   11454:	0106d713          	srli	a4,a3,0x10
{
   11458:	0005a283          	lw	t0,0(a1)
   1145c:	0045a883          	lw	a7,4(a1)
   11460:	0085ae83          	lw	t4,8(a1)
  FP_UNPACK_RAW_Q (A, a);
   11464:	00f67633          	and	a2,a2,a5
   11468:	01051593          	slli	a1,a0,0x10
{
   1146c:	ff010113          	addi	sp,sp,-16
  FP_UNPACK_RAW_Q (A, a);
   11470:	0105d593          	srli	a1,a1,0x10
   11474:	01f55513          	srli	a0,a0,0x1f
  FP_UNPACK_RAW_Q (B, b);
   11478:	01035313          	srli	t1,t1,0x10
   1147c:	00f77733          	and	a4,a4,a5
   11480:	01f6d693          	srli	a3,a3,0x1f
  FP_CMP_Q (r, A, B, 2, 2);
   11484:	00f61e63          	bne	a2,a5,114a0 <__letf2+0x70>
   11488:	010fe7b3          	or	a5,t6,a6
   1148c:	01c7e7b3          	or	a5,a5,t3
   11490:	00b7e7b3          	or	a5,a5,a1
   11494:	0c078863          	beqz	a5,11564 <__letf2+0x134>
   11498:	00200513          	li	a0,2
   1149c:	0640006f          	j	11500 <__letf2+0xd0>
   114a0:	00f71a63          	bne	a4,a5,114b4 <__letf2+0x84>
   114a4:	0112e7b3          	or	a5,t0,a7
   114a8:	01d7e7b3          	or	a5,a5,t4
   114ac:	0067e7b3          	or	a5,a5,t1
   114b0:	fe0794e3          	bnez	a5,11498 <__letf2+0x68>
   114b4:	0a061a63          	bnez	a2,11568 <__letf2+0x138>
   114b8:	010fe7b3          	or	a5,t6,a6
   114bc:	01c7e7b3          	or	a5,a5,t3
   114c0:	00b7e7b3          	or	a5,a5,a1
   114c4:	0017b793          	seqz	a5,a5
   114c8:	00071a63          	bnez	a4,114dc <__letf2+0xac>
   114cc:	0112ef33          	or	t5,t0,a7
   114d0:	01df6f33          	or	t5,t5,t4
   114d4:	006f6f33          	or	t5,t5,t1
   114d8:	060f0a63          	beqz	t5,1154c <__letf2+0x11c>
   114dc:	00079c63          	bnez	a5,114f4 <__letf2+0xc4>
   114e0:	00a69463          	bne	a3,a0,114e8 <__letf2+0xb8>
   114e4:	02c75263          	bge	a4,a2,11508 <__letf2+0xd8>
   114e8:	04050e63          	beqz	a0,11544 <__letf2+0x114>
   114ec:	fff00513          	li	a0,-1
   114f0:	0100006f          	j	11500 <__letf2+0xd0>
   114f4:	fff00513          	li	a0,-1
   114f8:	00068463          	beqz	a3,11500 <__letf2+0xd0>
   114fc:	00068513          	mv	a0,a3
  FP_HANDLE_EXCEPTIONS;

  return r;
}
   11500:	01010113          	addi	sp,sp,16
   11504:	00008067          	ret
  FP_CMP_Q (r, A, B, 2, 2);
   11508:	00e65663          	bge	a2,a4,11514 <__letf2+0xe4>
   1150c:	fe051ae3          	bnez	a0,11500 <__letf2+0xd0>
   11510:	fddff06f          	j	114ec <__letf2+0xbc>
   11514:	fcb36ae3          	bltu	t1,a1,114e8 <__letf2+0xb8>
   11518:	02659e63          	bne	a1,t1,11554 <__letf2+0x124>
   1151c:	fdcee6e3          	bltu	t4,t3,114e8 <__letf2+0xb8>
   11520:	03de1e63          	bne	t3,t4,1155c <__letf2+0x12c>
   11524:	fd08e2e3          	bltu	a7,a6,114e8 <__letf2+0xb8>
   11528:	01181463          	bne	a6,a7,11530 <__letf2+0x100>
   1152c:	fbf2eee3          	bltu	t0,t6,114e8 <__letf2+0xb8>
   11530:	fd186ee3          	bltu	a6,a7,1150c <__letf2+0xdc>
   11534:	01181463          	bne	a6,a7,1153c <__letf2+0x10c>
   11538:	fc5feae3          	bltu	t6,t0,1150c <__letf2+0xdc>
   1153c:	00000513          	li	a0,0
   11540:	fc1ff06f          	j	11500 <__letf2+0xd0>
   11544:	00100513          	li	a0,1
   11548:	fb9ff06f          	j	11500 <__letf2+0xd0>
   1154c:	fe0798e3          	bnez	a5,1153c <__letf2+0x10c>
   11550:	f99ff06f          	j	114e8 <__letf2+0xb8>
   11554:	fa65ece3          	bltu	a1,t1,1150c <__letf2+0xdc>
   11558:	fe5ff06f          	j	1153c <__letf2+0x10c>
   1155c:	fbde68e3          	bltu	t3,t4,1150c <__letf2+0xdc>
   11560:	fddff06f          	j	1153c <__letf2+0x10c>
   11564:	f4c700e3          	beq	a4,a2,114a4 <__letf2+0x74>
   11568:	f6071ce3          	bnez	a4,114e0 <__letf2+0xb0>
   1156c:	00000793          	li	a5,0
   11570:	f5dff06f          	j	114cc <__letf2+0x9c>

00011574 <__multf3>:
#include "soft-fp.h"
#include "quad.h"

TFtype
__multf3 (TFtype a, TFtype b)
{
   11574:	f4010113          	addi	sp,sp,-192
   11578:	0b212823          	sw	s2,176(sp)
   1157c:	00c5a903          	lw	s2,12(a1)
   11580:	0005a683          	lw	a3,0(a1)
   11584:	0045a783          	lw	a5,4(a1)
   11588:	00a12423          	sw	a0,8(sp)
   1158c:	0085a503          	lw	a0,8(a1)
   11590:	01091713          	slli	a4,s2,0x10
   11594:	0b312623          	sw	s3,172(sp)
   11598:	0b412423          	sw	s4,168(sp)
   1159c:	00c62983          	lw	s3,12(a2) # 7ff0000c <//.+0x7feea094>
   115a0:	00062a03          	lw	s4,0(a2)
   115a4:	0b512223          	sw	s5,164(sp)
   115a8:	0b612023          	sw	s6,160(sp)
   115ac:	00862a83          	lw	s5,8(a2)
   115b0:	00462b03          	lw	s6,4(a2)
  FP_DECL_Q (B);
  FP_DECL_Q (R);
  TFtype r;

  FP_INIT_ROUNDMODE;
  FP_UNPACK_Q (A, a);
   115b4:	00008637          	lui	a2,0x8
{
   115b8:	0a812c23          	sw	s0,184(sp)
   115bc:	01075713          	srli	a4,a4,0x10
  FP_UNPACK_Q (A, a);
   115c0:	01095413          	srli	s0,s2,0x10
   115c4:	fff60613          	addi	a2,a2,-1 # 7fff <__mcmp+0xb>
   115c8:	07212623          	sw	s2,108(sp)
{
   115cc:	0a112e23          	sw	ra,188(sp)
   115d0:	0a912a23          	sw	s1,180(sp)
   115d4:	09712e23          	sw	s7,156(sp)
   115d8:	09812c23          	sw	s8,152(sp)
   115dc:	09912a23          	sw	s9,148(sp)
   115e0:	09a12823          	sw	s10,144(sp)
   115e4:	09b12623          	sw	s11,140(sp)
  FP_UNPACK_Q (A, a);
   115e8:	06d12023          	sw	a3,96(sp)
   115ec:	06f12223          	sw	a5,100(sp)
   115f0:	06a12423          	sw	a0,104(sp)
   115f4:	02d12823          	sw	a3,48(sp)
   115f8:	02f12a23          	sw	a5,52(sp)
   115fc:	02a12c23          	sw	a0,56(sp)
   11600:	02e12e23          	sw	a4,60(sp)
   11604:	00c47433          	and	s0,s0,a2
   11608:	01f95913          	srli	s2,s2,0x1f
   1160c:	12040863          	beqz	s0,1173c <__multf3+0x1c8>
   11610:	24c40263          	beq	s0,a2,11854 <__multf3+0x2e0>
   11614:	000107b7          	lui	a5,0x10
   11618:	00f767b3          	or	a5,a4,a5
   1161c:	02f12e23          	sw	a5,60(sp)
   11620:	03010613          	addi	a2,sp,48
   11624:	03c10793          	addi	a5,sp,60
   11628:	0007a703          	lw	a4,0(a5) # 10000 <__udivdi3+0x2c8>
   1162c:	ffc7a683          	lw	a3,-4(a5)
   11630:	ffc78793          	addi	a5,a5,-4
   11634:	00371713          	slli	a4,a4,0x3
   11638:	01d6d693          	srli	a3,a3,0x1d
   1163c:	00d76733          	or	a4,a4,a3
   11640:	00e7a223          	sw	a4,4(a5)
   11644:	fef612e3          	bne	a2,a5,11628 <__multf3+0xb4>
   11648:	03012783          	lw	a5,48(sp)
   1164c:	ffffc537          	lui	a0,0xffffc
   11650:	00150513          	addi	a0,a0,1 # ffffc001 <//.+0xfffe6089>
   11654:	00379793          	slli	a5,a5,0x3
   11658:	02f12823          	sw	a5,48(sp)
   1165c:	00a40433          	add	s0,s0,a0
   11660:	00000b93          	li	s7,0
  FP_UNPACK_Q (B, b);
   11664:	01099513          	slli	a0,s3,0x10
   11668:	00008737          	lui	a4,0x8
   1166c:	0109d793          	srli	a5,s3,0x10
   11670:	01055513          	srli	a0,a0,0x10
   11674:	fff70713          	addi	a4,a4,-1 # 7fff <__mcmp+0xb>
   11678:	07312623          	sw	s3,108(sp)
   1167c:	07412023          	sw	s4,96(sp)
   11680:	07612223          	sw	s6,100(sp)
   11684:	07512423          	sw	s5,104(sp)
   11688:	05412023          	sw	s4,64(sp)
   1168c:	05612223          	sw	s6,68(sp)
   11690:	05512423          	sw	s5,72(sp)
   11694:	04a12623          	sw	a0,76(sp)
   11698:	00e7f7b3          	and	a5,a5,a4
   1169c:	01f9d993          	srli	s3,s3,0x1f
   116a0:	1c078e63          	beqz	a5,1187c <__multf3+0x308>
   116a4:	2ee78863          	beq	a5,a4,11994 <__multf3+0x420>
   116a8:	00010ab7          	lui	s5,0x10
   116ac:	01556ab3          	or	s5,a0,s5
   116b0:	05512623          	sw	s5,76(sp)
   116b4:	04010593          	addi	a1,sp,64
   116b8:	04c10713          	addi	a4,sp,76
   116bc:	00072683          	lw	a3,0(a4)
   116c0:	ffc72603          	lw	a2,-4(a4)
   116c4:	ffc70713          	addi	a4,a4,-4
   116c8:	00369693          	slli	a3,a3,0x3
   116cc:	01d65613          	srli	a2,a2,0x1d
   116d0:	00c6e6b3          	or	a3,a3,a2
   116d4:	00d72223          	sw	a3,4(a4)
   116d8:	fee592e3          	bne	a1,a4,116bc <__multf3+0x148>
   116dc:	04012703          	lw	a4,64(sp)
   116e0:	ffffc537          	lui	a0,0xffffc
   116e4:	00150513          	addi	a0,a0,1 # ffffc001 <//.+0xfffe6089>
   116e8:	00371713          	slli	a4,a4,0x3
   116ec:	04e12023          	sw	a4,64(sp)
   116f0:	00a787b3          	add	a5,a5,a0
   116f4:	00000713          	li	a4,0
  FP_MUL_Q (R, A, B);
   116f8:	008787b3          	add	a5,a5,s0
   116fc:	00f12e23          	sw	a5,28(sp)
   11700:	00178793          	addi	a5,a5,1
   11704:	00f12c23          	sw	a5,24(sp)
   11708:	002b9793          	slli	a5,s7,0x2
   1170c:	013946b3          	xor	a3,s2,s3
   11710:	00e7e7b3          	or	a5,a5,a4
   11714:	00d12623          	sw	a3,12(sp)
   11718:	fff78793          	addi	a5,a5,-1
   1171c:	00e00693          	li	a3,14
   11720:	28f6ee63          	bltu	a3,a5,119bc <__multf3+0x448>
   11724:	000156b7          	lui	a3,0x15
   11728:	00279793          	slli	a5,a5,0x2
   1172c:	f3068693          	addi	a3,a3,-208 # 14f30 <zeroes.4448+0x88>
   11730:	00d787b3          	add	a5,a5,a3
   11734:	0007a783          	lw	a5,0(a5)
   11738:	00078067          	jr	a5
  FP_UNPACK_Q (A, a);
   1173c:	00d7e633          	or	a2,a5,a3
   11740:	00a66633          	or	a2,a2,a0
   11744:	00e66633          	or	a2,a2,a4
   11748:	12060463          	beqz	a2,11870 <__multf3+0x2fc>
   1174c:	08070063          	beqz	a4,117cc <__multf3+0x258>
   11750:	00070513          	mv	a0,a4
   11754:	2c5020ef          	jal	ra,14218 <__clzsi2>
   11758:	00050493          	mv	s1,a0
   1175c:	ff448713          	addi	a4,s1,-12 # 7fff4 <//.+0x6a07c>
   11760:	40575613          	srai	a2,a4,0x5
   11764:	01f77713          	andi	a4,a4,31
   11768:	08070c63          	beqz	a4,11800 <__multf3+0x28c>
   1176c:	ffc00793          	li	a5,-4
   11770:	02f607b3          	mul	a5,a2,a5
   11774:	02000513          	li	a0,32
   11778:	03010893          	addi	a7,sp,48
   1177c:	40e50533          	sub	a0,a0,a4
   11780:	00261593          	slli	a1,a2,0x2
   11784:	00c78793          	addi	a5,a5,12
   11788:	00f887b3          	add	a5,a7,a5
   1178c:	0af89263          	bne	a7,a5,11830 <__multf3+0x2bc>
   11790:	08010793          	addi	a5,sp,128
   11794:	00b785b3          	add	a1,a5,a1
   11798:	03012783          	lw	a5,48(sp)
   1179c:	fff60613          	addi	a2,a2,-1
   117a0:	00e79733          	sll	a4,a5,a4
   117a4:	fae5a823          	sw	a4,-80(a1)
   117a8:	00160613          	addi	a2,a2,1
   117ac:	ffffc437          	lui	s0,0xffffc
   117b0:	00261613          	slli	a2,a2,0x2
   117b4:	00000593          	li	a1,0
   117b8:	03010513          	addi	a0,sp,48
   117bc:	01140413          	addi	s0,s0,17 # ffffc011 <//.+0xfffe6099>
   117c0:	d15ee0ef          	jal	ra,4d4 <memset>
   117c4:	40940433          	sub	s0,s0,s1
   117c8:	e99ff06f          	j	11660 <__multf3+0xec>
   117cc:	00050863          	beqz	a0,117dc <__multf3+0x268>
   117d0:	249020ef          	jal	ra,14218 <__clzsi2>
   117d4:	02050493          	addi	s1,a0,32
   117d8:	f85ff06f          	j	1175c <__multf3+0x1e8>
   117dc:	00078a63          	beqz	a5,117f0 <__multf3+0x27c>
   117e0:	00078513          	mv	a0,a5
   117e4:	235020ef          	jal	ra,14218 <__clzsi2>
   117e8:	04050493          	addi	s1,a0,64
   117ec:	f71ff06f          	j	1175c <__multf3+0x1e8>
   117f0:	00068513          	mv	a0,a3
   117f4:	225020ef          	jal	ra,14218 <__clzsi2>
   117f8:	06050493          	addi	s1,a0,96
   117fc:	f61ff06f          	j	1175c <__multf3+0x1e8>
   11800:	ffc00693          	li	a3,-4
   11804:	02d606b3          	mul	a3,a2,a3
   11808:	03c10793          	addi	a5,sp,60
   1180c:	00300713          	li	a4,3
   11810:	00d785b3          	add	a1,a5,a3
   11814:	0005a583          	lw	a1,0(a1)
   11818:	fff70713          	addi	a4,a4,-1
   1181c:	ffc78793          	addi	a5,a5,-4
   11820:	00b7a223          	sw	a1,4(a5)
   11824:	fec756e3          	bge	a4,a2,11810 <__multf3+0x29c>
   11828:	fff60613          	addi	a2,a2,-1
   1182c:	f7dff06f          	j	117a8 <__multf3+0x234>
   11830:	0007a683          	lw	a3,0(a5)
   11834:	ffc7a803          	lw	a6,-4(a5)
   11838:	00b78333          	add	t1,a5,a1
   1183c:	00e696b3          	sll	a3,a3,a4
   11840:	00a85833          	srl	a6,a6,a0
   11844:	0106e6b3          	or	a3,a3,a6
   11848:	00d32023          	sw	a3,0(t1) # 1000000 <//.+0xfea088>
   1184c:	ffc78793          	addi	a5,a5,-4
   11850:	f3dff06f          	j	1178c <__multf3+0x218>
   11854:	00d7e7b3          	or	a5,a5,a3
   11858:	00a7e7b3          	or	a5,a5,a0
   1185c:	00e7e7b3          	or	a5,a5,a4
   11860:	00300b93          	li	s7,3
   11864:	e00790e3          	bnez	a5,11664 <__multf3+0xf0>
   11868:	00200b93          	li	s7,2
   1186c:	df9ff06f          	j	11664 <__multf3+0xf0>
   11870:	00000413          	li	s0,0
   11874:	00100b93          	li	s7,1
   11878:	dedff06f          	j	11664 <__multf3+0xf0>
  FP_UNPACK_Q (B, b);
   1187c:	016a67b3          	or	a5,s4,s6
   11880:	0157e7b3          	or	a5,a5,s5
   11884:	00a7e7b3          	or	a5,a5,a0
   11888:	12078463          	beqz	a5,119b0 <__multf3+0x43c>
   1188c:	06050e63          	beqz	a0,11908 <__multf3+0x394>
   11890:	189020ef          	jal	ra,14218 <__clzsi2>
   11894:	00050493          	mv	s1,a0
   11898:	ff448713          	addi	a4,s1,-12
   1189c:	40575613          	srai	a2,a4,0x5
   118a0:	01f77713          	andi	a4,a4,31
   118a4:	08070e63          	beqz	a4,11940 <__multf3+0x3cc>
   118a8:	ffc00793          	li	a5,-4
   118ac:	02f607b3          	mul	a5,a2,a5
   118b0:	02000513          	li	a0,32
   118b4:	04010893          	addi	a7,sp,64
   118b8:	40e50533          	sub	a0,a0,a4
   118bc:	00261593          	slli	a1,a2,0x2
   118c0:	00c78793          	addi	a5,a5,12
   118c4:	00f887b3          	add	a5,a7,a5
   118c8:	0af89463          	bne	a7,a5,11970 <__multf3+0x3fc>
   118cc:	08010793          	addi	a5,sp,128
   118d0:	00b785b3          	add	a1,a5,a1
   118d4:	04012783          	lw	a5,64(sp)
   118d8:	fff60613          	addi	a2,a2,-1
   118dc:	00e79733          	sll	a4,a5,a4
   118e0:	fce5a023          	sw	a4,-64(a1)
   118e4:	00160613          	addi	a2,a2,1
   118e8:	00261613          	slli	a2,a2,0x2
   118ec:	00000593          	li	a1,0
   118f0:	04010513          	addi	a0,sp,64
   118f4:	be1ee0ef          	jal	ra,4d4 <memset>
   118f8:	ffffc7b7          	lui	a5,0xffffc
   118fc:	01178793          	addi	a5,a5,17 # ffffc011 <//.+0xfffe6099>
   11900:	409787b3          	sub	a5,a5,s1
   11904:	df1ff06f          	j	116f4 <__multf3+0x180>
   11908:	000a8a63          	beqz	s5,1191c <__multf3+0x3a8>
   1190c:	000a8513          	mv	a0,s5
   11910:	109020ef          	jal	ra,14218 <__clzsi2>
   11914:	02050493          	addi	s1,a0,32
   11918:	f81ff06f          	j	11898 <__multf3+0x324>
   1191c:	000b0a63          	beqz	s6,11930 <__multf3+0x3bc>
   11920:	000b0513          	mv	a0,s6
   11924:	0f5020ef          	jal	ra,14218 <__clzsi2>
   11928:	04050493          	addi	s1,a0,64
   1192c:	f6dff06f          	j	11898 <__multf3+0x324>
   11930:	000a0513          	mv	a0,s4
   11934:	0e5020ef          	jal	ra,14218 <__clzsi2>
   11938:	06050493          	addi	s1,a0,96
   1193c:	f5dff06f          	j	11898 <__multf3+0x324>
   11940:	ffc00693          	li	a3,-4
   11944:	02d606b3          	mul	a3,a2,a3
   11948:	04c10793          	addi	a5,sp,76
   1194c:	00300713          	li	a4,3
   11950:	00d785b3          	add	a1,a5,a3
   11954:	0005a583          	lw	a1,0(a1)
   11958:	fff70713          	addi	a4,a4,-1
   1195c:	ffc78793          	addi	a5,a5,-4
   11960:	00b7a223          	sw	a1,4(a5)
   11964:	fec756e3          	bge	a4,a2,11950 <__multf3+0x3dc>
   11968:	fff60613          	addi	a2,a2,-1
   1196c:	f79ff06f          	j	118e4 <__multf3+0x370>
   11970:	0007a683          	lw	a3,0(a5)
   11974:	ffc7a803          	lw	a6,-4(a5)
   11978:	00b78333          	add	t1,a5,a1
   1197c:	00e696b3          	sll	a3,a3,a4
   11980:	00a85833          	srl	a6,a6,a0
   11984:	0106e6b3          	or	a3,a3,a6
   11988:	00d32023          	sw	a3,0(t1)
   1198c:	ffc78793          	addi	a5,a5,-4
   11990:	f39ff06f          	j	118c8 <__multf3+0x354>
   11994:	016a6a33          	or	s4,s4,s6
   11998:	015a6ab3          	or	s5,s4,s5
   1199c:	00aaeab3          	or	s5,s5,a0
   119a0:	00300713          	li	a4,3
   119a4:	d40a9ae3          	bnez	s5,116f8 <__multf3+0x184>
   119a8:	00200713          	li	a4,2
   119ac:	d4dff06f          	j	116f8 <__multf3+0x184>
   119b0:	00000793          	li	a5,0
   119b4:	00100713          	li	a4,1
   119b8:	d41ff06f          	j	116f8 <__multf3+0x184>
  FP_MUL_Q (R, A, B);
   119bc:	03012703          	lw	a4,48(sp)
   119c0:	04012e03          	lw	t3,64(sp)
   119c4:	00010537          	lui	a0,0x10
   119c8:	fff50693          	addi	a3,a0,-1 # ffff <__udivdi3+0x2c7>
   119cc:	01075f93          	srli	t6,a4,0x10
   119d0:	010e5a93          	srli	s5,t3,0x10
   119d4:	00d77733          	and	a4,a4,a3
   119d8:	00de7e33          	and	t3,t3,a3
   119dc:	02ea87b3          	mul	a5,s5,a4
   119e0:	02ee0633          	mul	a2,t3,a4
   119e4:	03cf8833          	mul	a6,t6,t3
   119e8:	010785b3          	add	a1,a5,a6
   119ec:	01065793          	srli	a5,a2,0x10
   119f0:	00b787b3          	add	a5,a5,a1
   119f4:	035f8bb3          	mul	s7,t6,s5
   119f8:	0107f463          	bgeu	a5,a6,11a00 <__multf3+0x48c>
   119fc:	00ab8bb3          	add	s7,s7,a0
   11a00:	04412f03          	lw	t5,68(sp)
   11a04:	0107d993          	srli	s3,a5,0x10
   11a08:	00d7f7b3          	and	a5,a5,a3
   11a0c:	00d67633          	and	a2,a2,a3
   11a10:	01079793          	slli	a5,a5,0x10
   11a14:	00c787b3          	add	a5,a5,a2
   11a18:	010f5493          	srli	s1,t5,0x10
   11a1c:	00df7f33          	and	t5,t5,a3
   11a20:	02ef06b3          	mul	a3,t5,a4
   11a24:	02f12023          	sw	a5,32(sp)
   11a28:	06f12023          	sw	a5,96(sp)
   11a2c:	03ef8633          	mul	a2,t6,t5
   11a30:	02e487b3          	mul	a5,s1,a4
   11a34:	00c78533          	add	a0,a5,a2
   11a38:	0106d793          	srli	a5,a3,0x10
   11a3c:	00a787b3          	add	a5,a5,a0
   11a40:	029f8b33          	mul	s6,t6,s1
   11a44:	00c7f663          	bgeu	a5,a2,11a50 <__multf3+0x4dc>
   11a48:	00010637          	lui	a2,0x10
   11a4c:	00cb0b33          	add	s6,s6,a2
   11a50:	00010637          	lui	a2,0x10
   11a54:	fff60593          	addi	a1,a2,-1 # ffff <__udivdi3+0x2c7>
   11a58:	00b7f533          	and	a0,a5,a1
   11a5c:	0107d293          	srli	t0,a5,0x10
   11a60:	03412783          	lw	a5,52(sp)
   11a64:	00b6f6b3          	and	a3,a3,a1
   11a68:	01051513          	slli	a0,a0,0x10
   11a6c:	0107d913          	srli	s2,a5,0x10
   11a70:	00b7f5b3          	and	a1,a5,a1
   11a74:	02ba87b3          	mul	a5,s5,a1
   11a78:	00d50533          	add	a0,a0,a3
   11a7c:	00a989b3          	add	s3,s3,a0
   11a80:	03c586b3          	mul	a3,a1,t3
   11a84:	03c90333          	mul	t1,s2,t3
   11a88:	00678833          	add	a6,a5,t1
   11a8c:	0106d793          	srli	a5,a3,0x10
   11a90:	010787b3          	add	a5,a5,a6
   11a94:	032a88b3          	mul	a7,s5,s2
   11a98:	0067f463          	bgeu	a5,t1,11aa0 <__multf3+0x52c>
   11a9c:	00c888b3          	add	a7,a7,a2
   11aa0:	0107da13          	srli	s4,a5,0x10
   11aa4:	011a0a33          	add	s4,s4,a7
   11aa8:	000108b7          	lui	a7,0x10
   11aac:	fff88613          	addi	a2,a7,-1 # ffff <__udivdi3+0x2c7>
   11ab0:	00c7f833          	and	a6,a5,a2
   11ab4:	00c6f6b3          	and	a3,a3,a2
   11ab8:	01081813          	slli	a6,a6,0x10
   11abc:	03e58633          	mul	a2,a1,t5
   11ac0:	00d80833          	add	a6,a6,a3
   11ac4:	03e907b3          	mul	a5,s2,t5
   11ac8:	01065e93          	srli	t4,a2,0x10
   11acc:	02b486b3          	mul	a3,s1,a1
   11ad0:	00f686b3          	add	a3,a3,a5
   11ad4:	00de86b3          	add	a3,t4,a3
   11ad8:	03248333          	mul	t1,s1,s2
   11adc:	00f6f463          	bgeu	a3,a5,11ae4 <__multf3+0x570>
   11ae0:	01130333          	add	t1,t1,a7
   11ae4:	04812e83          	lw	t4,72(sp)
   11ae8:	0106d793          	srli	a5,a3,0x10
   11aec:	006787b3          	add	a5,a5,t1
   11af0:	00010437          	lui	s0,0x10
   11af4:	02f12223          	sw	a5,36(sp)
   11af8:	fff40793          	addi	a5,s0,-1 # ffff <__udivdi3+0x2c7>
   11afc:	010ed393          	srli	t2,t4,0x10
   11b00:	00fefeb3          	and	t4,t4,a5
   11b04:	02e388b3          	mul	a7,t2,a4
   11b08:	00f67633          	and	a2,a2,a5
   11b0c:	00f6f6b3          	and	a3,a3,a5
   11b10:	01069693          	slli	a3,a3,0x10
   11b14:	00c686b3          	add	a3,a3,a2
   11b18:	02ee8333          	mul	t1,t4,a4
   11b1c:	03df8c33          	mul	s8,t6,t4
   11b20:	018887b3          	add	a5,a7,s8
   11b24:	01035893          	srli	a7,t1,0x10
   11b28:	00f888b3          	add	a7,a7,a5
   11b2c:	027f8633          	mul	a2,t6,t2
   11b30:	0188f463          	bgeu	a7,s8,11b38 <__multf3+0x5c4>
   11b34:	00860633          	add	a2,a2,s0
   11b38:	0108d793          	srli	a5,a7,0x10
   11b3c:	00010cb7          	lui	s9,0x10
   11b40:	00c787b3          	add	a5,a5,a2
   11b44:	fffc8613          	addi	a2,s9,-1 # ffff <__udivdi3+0x2c7>
   11b48:	02f12423          	sw	a5,40(sp)
   11b4c:	00c8f7b3          	and	a5,a7,a2
   11b50:	03812883          	lw	a7,56(sp)
   11b54:	00c37333          	and	t1,t1,a2
   11b58:	01079793          	slli	a5,a5,0x10
   11b5c:	0108d413          	srli	s0,a7,0x10
   11b60:	00c8f633          	and	a2,a7,a2
   11b64:	03c608b3          	mul	a7,a2,t3
   11b68:	006787b3          	add	a5,a5,t1
   11b6c:	03c40d33          	mul	s10,s0,t3
   11b70:	0108dd93          	srli	s11,a7,0x10
   11b74:	02ca8333          	mul	t1,s5,a2
   11b78:	01a30333          	add	t1,t1,s10
   11b7c:	006d8333          	add	t1,s11,t1
   11b80:	028a8c33          	mul	s8,s5,s0
   11b84:	01a37463          	bgeu	t1,s10,11b8c <__multf3+0x618>
   11b88:	019c0c33          	add	s8,s8,s9
   11b8c:	01035c93          	srli	s9,t1,0x10
   11b90:	018c8c33          	add	s8,s9,s8
   11b94:	00010cb7          	lui	s9,0x10
   11b98:	013b89b3          	add	s3,s7,s3
   11b9c:	fffc8d13          	addi	s10,s9,-1 # ffff <__udivdi3+0x2c7>
   11ba0:	00a9b533          	sltu	a0,s3,a0
   11ba4:	01a37333          	and	t1,t1,s10
   11ba8:	00a282b3          	add	t0,t0,a0
   11bac:	01031313          	slli	t1,t1,0x10
   11bb0:	01a8f8b3          	and	a7,a7,s10
   11bb4:	01628b33          	add	s6,t0,s6
   11bb8:	011308b3          	add	a7,t1,a7
   11bbc:	01098333          	add	t1,s3,a6
   11bc0:	01033833          	sltu	a6,t1,a6
   11bc4:	00612823          	sw	t1,16(sp)
   11bc8:	06612223          	sw	t1,100(sp)
   11bcc:	014b0333          	add	t1,s6,s4
   11bd0:	010302b3          	add	t0,t1,a6
   11bd4:	01433a33          	sltu	s4,t1,s4
   11bd8:	0102b833          	sltu	a6,t0,a6
   11bdc:	00d289b3          	add	s3,t0,a3
   11be0:	010a6833          	or	a6,s4,a6
   11be4:	00ab3533          	sltu	a0,s6,a0
   11be8:	00d9b6b3          	sltu	a3,s3,a3
   11bec:	00a80533          	add	a0,a6,a0
   11bf0:	00f989b3          	add	s3,s3,a5
   11bf4:	02412803          	lw	a6,36(sp)
   11bf8:	01198333          	add	t1,s3,a7
   11bfc:	011338b3          	sltu	a7,t1,a7
   11c00:	00612a23          	sw	t1,20(sp)
   11c04:	06612423          	sw	t1,104(sp)
   11c08:	02412303          	lw	t1,36(sp)
   11c0c:	01050533          	add	a0,a0,a6
   11c10:	02812803          	lw	a6,40(sp)
   11c14:	00d50db3          	add	s11,a0,a3
   11c18:	00ddb6b3          	sltu	a3,s11,a3
   11c1c:	00653533          	sltu	a0,a0,t1
   11c20:	00f9b7b3          	sltu	a5,s3,a5
   11c24:	010d8bb3          	add	s7,s11,a6
   11c28:	00d566b3          	or	a3,a0,a3
   11c2c:	02812503          	lw	a0,40(sp)
   11c30:	00fb8833          	add	a6,s7,a5
   11c34:	04c12303          	lw	t1,76(sp)
   11c38:	018809b3          	add	s3,a6,s8
   11c3c:	01198b33          	add	s6,s3,a7
   11c40:	00abbbb3          	sltu	s7,s7,a0
   11c44:	00f837b3          	sltu	a5,a6,a5
   11c48:	00fbe7b3          	or	a5,s7,a5
   11c4c:	011b38b3          	sltu	a7,s6,a7
   11c50:	0189bc33          	sltu	s8,s3,s8
   11c54:	00f686b3          	add	a3,a3,a5
   11c58:	01035293          	srli	t0,t1,0x10
   11c5c:	011c6a33          	or	s4,s8,a7
   11c60:	01a37333          	and	t1,t1,s10
   11c64:	02e307b3          	mul	a5,t1,a4
   11c68:	01468a33          	add	s4,a3,s4
   11c6c:	02e28733          	mul	a4,t0,a4
   11c70:	0107d893          	srli	a7,a5,0x10
   11c74:	026f86b3          	mul	a3,t6,t1
   11c78:	00d70733          	add	a4,a4,a3
   11c7c:	00e888b3          	add	a7,a7,a4
   11c80:	025f8fb3          	mul	t6,t6,t0
   11c84:	00d8f463          	bgeu	a7,a3,11c8c <__multf3+0x718>
   11c88:	019f8fb3          	add	t6,t6,s9
   11c8c:	03c12983          	lw	s3,60(sp)
   11c90:	000106b7          	lui	a3,0x10
   11c94:	fff68513          	addi	a0,a3,-1 # ffff <__udivdi3+0x2c7>
   11c98:	0108dd13          	srli	s10,a7,0x10
   11c9c:	00a8f8b3          	and	a7,a7,a0
   11ca0:	00a7f7b3          	and	a5,a5,a0
   11ca4:	01fd0d33          	add	s10,s10,t6
   11ca8:	01089893          	slli	a7,a7,0x10
   11cac:	0109df93          	srli	t6,s3,0x10
   11cb0:	00a9f9b3          	and	s3,s3,a0
   11cb4:	03fa8cb3          	mul	s9,s5,t6
   11cb8:	00f888b3          	add	a7,a7,a5
   11cbc:	033a8ab3          	mul	s5,s5,s3
   11cc0:	03c987b3          	mul	a5,s3,t3
   11cc4:	03cf8e33          	mul	t3,t6,t3
   11cc8:	0107d813          	srli	a6,a5,0x10
   11ccc:	01ca8ab3          	add	s5,s5,t3
   11cd0:	01580ab3          	add	s5,a6,s5
   11cd4:	01caf463          	bgeu	s5,t3,11cdc <__multf3+0x768>
   11cd8:	00dc8cb3          	add	s9,s9,a3
   11cdc:	00010bb7          	lui	s7,0x10
   11ce0:	fffb8713          	addi	a4,s7,-1 # ffff <__udivdi3+0x2c7>
   11ce4:	010ad813          	srli	a6,s5,0x10
   11ce8:	01980cb3          	add	s9,a6,s9
   11cec:	00eaf833          	and	a6,s5,a4
   11cf0:	00e7f7b3          	and	a5,a5,a4
   11cf4:	01081813          	slli	a6,a6,0x10
   11cf8:	02be86b3          	mul	a3,t4,a1
   11cfc:	00f80833          	add	a6,a6,a5
   11d00:	03d90e33          	mul	t3,s2,t4
   11d04:	0106d513          	srli	a0,a3,0x10
   11d08:	02b387b3          	mul	a5,t2,a1
   11d0c:	01c787b3          	add	a5,a5,t3
   11d10:	00f507b3          	add	a5,a0,a5
   11d14:	02790733          	mul	a4,s2,t2
   11d18:	01c7f463          	bgeu	a5,t3,11d20 <__multf3+0x7ac>
   11d1c:	01770733          	add	a4,a4,s7
   11d20:	0107d513          	srli	a0,a5,0x10
   11d24:	00e50733          	add	a4,a0,a4
   11d28:	00010bb7          	lui	s7,0x10
   11d2c:	02e12223          	sw	a4,36(sp)
   11d30:	fffb8713          	addi	a4,s7,-1 # ffff <__udivdi3+0x2c7>
   11d34:	00e7f533          	and	a0,a5,a4
   11d38:	00e6f6b3          	and	a3,a3,a4
   11d3c:	03e40e33          	mul	t3,s0,t5
   11d40:	01051513          	slli	a0,a0,0x10
   11d44:	00d50533          	add	a0,a0,a3
   11d48:	03e60733          	mul	a4,a2,t5
   11d4c:	02c487b3          	mul	a5,s1,a2
   11d50:	01075693          	srli	a3,a4,0x10
   11d54:	01c787b3          	add	a5,a5,t3
   11d58:	00f687b3          	add	a5,a3,a5
   11d5c:	02848ab3          	mul	s5,s1,s0
   11d60:	01c7f463          	bgeu	a5,t3,11d68 <__multf3+0x7f4>
   11d64:	017a8ab3          	add	s5,s5,s7
   11d68:	00010db7          	lui	s11,0x10
   11d6c:	fffd8e13          	addi	t3,s11,-1 # ffff <__udivdi3+0x2c7>
   11d70:	01c7f6b3          	and	a3,a5,t3
   11d74:	0107db93          	srli	s7,a5,0x10
   11d78:	011b07b3          	add	a5,s6,a7
   11d7c:	01c77733          	and	a4,a4,t3
   11d80:	0117b8b3          	sltu	a7,a5,a7
   11d84:	01aa0a33          	add	s4,s4,s10
   11d88:	01069693          	slli	a3,a3,0x10
   11d8c:	00e686b3          	add	a3,a3,a4
   11d90:	011a0733          	add	a4,s4,a7
   11d94:	02e12423          	sw	a4,40(sp)
   11d98:	010787b3          	add	a5,a5,a6
   11d9c:	01aa3a33          	sltu	s4,s4,s10
   11da0:	02812d03          	lw	s10,40(sp)
   11da4:	0107b833          	sltu	a6,a5,a6
   11da8:	01970b33          	add	s6,a4,s9
   11dac:	010b0733          	add	a4,s6,a6
   11db0:	02e12623          	sw	a4,44(sp)
   11db4:	011d38b3          	sltu	a7,s10,a7
   11db8:	011a6a33          	or	s4,s4,a7
   11dbc:	02c12883          	lw	a7,44(sp)
   11dc0:	02412e03          	lw	t3,36(sp)
   11dc4:	00a787b3          	add	a5,a5,a0
   11dc8:	0108b833          	sltu	a6,a7,a6
   11dcc:	019b3b33          	sltu	s6,s6,s9
   11dd0:	00a7b533          	sltu	a0,a5,a0
   11dd4:	01c70733          	add	a4,a4,t3
   11dd8:	010b6b33          	or	s6,s6,a6
   11ddc:	02412803          	lw	a6,36(sp)
   11de0:	00a70c33          	add	s8,a4,a0
   11de4:	015b8bb3          	add	s7,s7,s5
   11de8:	00d787b3          	add	a5,a5,a3
   11dec:	00d7b6b3          	sltu	a3,a5,a3
   11df0:	017c0ab3          	add	s5,s8,s7
   11df4:	00da8e33          	add	t3,s5,a3
   11df8:	01073733          	sltu	a4,a4,a6
   11dfc:	00ac3533          	sltu	a0,s8,a0
   11e00:	00a76733          	or	a4,a4,a0
   11e04:	00de36b3          	sltu	a3,t3,a3
   11e08:	016a0a33          	add	s4,s4,s6
   11e0c:	017abab3          	sltu	s5,s5,s7
   11e10:	00ea0a33          	add	s4,s4,a4
   11e14:	00daeab3          	or	s5,s5,a3
   11e18:	02ce8833          	mul	a6,t4,a2
   11e1c:	015a06b3          	add	a3,s4,s5
   11e20:	06f12623          	sw	a5,108(sp)
   11e24:	03d40a33          	mul	s4,s0,t4
   11e28:	01085513          	srli	a0,a6,0x10
   11e2c:	02c38733          	mul	a4,t2,a2
   11e30:	01470733          	add	a4,a4,s4
   11e34:	00e50733          	add	a4,a0,a4
   11e38:	028388b3          	mul	a7,t2,s0
   11e3c:	01477463          	bgeu	a4,s4,11e44 <__multf3+0x8d0>
   11e40:	01b888b3          	add	a7,a7,s11
   11e44:	00010a37          	lui	s4,0x10
   11e48:	01075513          	srli	a0,a4,0x10
   11e4c:	fffa0a93          	addi	s5,s4,-1 # ffff <__udivdi3+0x2c7>
   11e50:	011508b3          	add	a7,a0,a7
   11e54:	01577533          	and	a0,a4,s5
   11e58:	01587833          	and	a6,a6,s5
   11e5c:	01051513          	slli	a0,a0,0x10
   11e60:	02690ab3          	mul	s5,s2,t1
   11e64:	01050533          	add	a0,a0,a6
   11e68:	02b30833          	mul	a6,t1,a1
   11e6c:	02b285b3          	mul	a1,t0,a1
   11e70:	01085713          	srli	a4,a6,0x10
   11e74:	015585b3          	add	a1,a1,s5
   11e78:	00b70733          	add	a4,a4,a1
   11e7c:	02590933          	mul	s2,s2,t0
   11e80:	01577463          	bgeu	a4,s5,11e88 <__multf3+0x914>
   11e84:	01490933          	add	s2,s2,s4
   11e88:	00010ab7          	lui	s5,0x10
   11e8c:	01075593          	srli	a1,a4,0x10
   11e90:	fffa8a13          	addi	s4,s5,-1 # ffff <__udivdi3+0x2c7>
   11e94:	01487833          	and	a6,a6,s4
   11e98:	01258933          	add	s2,a1,s2
   11e9c:	014775b3          	and	a1,a4,s4
   11ea0:	01059593          	slli	a1,a1,0x10
   11ea4:	03e98733          	mul	a4,s3,t5
   11ea8:	010585b3          	add	a1,a1,a6
   11eac:	03ef8f33          	mul	t5,t6,t5
   11eb0:	01075813          	srli	a6,a4,0x10
   11eb4:	03f48a33          	mul	s4,s1,t6
   11eb8:	033484b3          	mul	s1,s1,s3
   11ebc:	01e484b3          	add	s1,s1,t5
   11ec0:	009804b3          	add	s1,a6,s1
   11ec4:	01e4f463          	bgeu	s1,t5,11ecc <__multf3+0x958>
   11ec8:	015a0a33          	add	s4,s4,s5
   11ecc:	0104db13          	srli	s6,s1,0x10
   11ed0:	014b0b33          	add	s6,s6,s4
   11ed4:	00010a37          	lui	s4,0x10
   11ed8:	fffa0f13          	addi	t5,s4,-1 # ffff <__udivdi3+0x2c7>
   11edc:	01e4f833          	and	a6,s1,t5
   11ee0:	01e77733          	and	a4,a4,t5
   11ee4:	026404b3          	mul	s1,s0,t1
   11ee8:	01081813          	slli	a6,a6,0x10
   11eec:	00e80833          	add	a6,a6,a4
   11ef0:	02660f33          	mul	t5,a2,t1
   11ef4:	02c28633          	mul	a2,t0,a2
   11ef8:	010f5713          	srli	a4,t5,0x10
   11efc:	00960633          	add	a2,a2,s1
   11f00:	00c70633          	add	a2,a4,a2
   11f04:	02540433          	mul	s0,s0,t0
   11f08:	00967463          	bgeu	a2,s1,11f10 <__multf3+0x99c>
   11f0c:	01440433          	add	s0,s0,s4
   11f10:	00010a37          	lui	s4,0x10
   11f14:	01065713          	srli	a4,a2,0x10
   11f18:	fffa0493          	addi	s1,s4,-1 # ffff <__udivdi3+0x2c7>
   11f1c:	00870433          	add	s0,a4,s0
   11f20:	00967733          	and	a4,a2,s1
   11f24:	009f7f33          	and	t5,t5,s1
   11f28:	01071713          	slli	a4,a4,0x10
   11f2c:	03f384b3          	mul	s1,t2,t6
   11f30:	01e70733          	add	a4,a4,t5
   11f34:	033383b3          	mul	t2,t2,s3
   11f38:	03d98f33          	mul	t5,s3,t4
   11f3c:	03df8eb3          	mul	t4,t6,t4
   11f40:	010f5613          	srli	a2,t5,0x10
   11f44:	01d383b3          	add	t2,t2,t4
   11f48:	00760633          	add	a2,a2,t2
   11f4c:	01d67463          	bgeu	a2,t4,11f54 <__multf3+0x9e0>
   11f50:	014484b3          	add	s1,s1,s4
   11f54:	01065c13          	srli	s8,a2,0x10
   11f58:	00010cb7          	lui	s9,0x10
   11f5c:	009c0c33          	add	s8,s8,s1
   11f60:	00ae0e33          	add	t3,t3,a0
   11f64:	fffc8493          	addi	s1,s9,-1 # ffff <__udivdi3+0x2c7>
   11f68:	00ae3533          	sltu	a0,t3,a0
   11f6c:	011686b3          	add	a3,a3,a7
   11f70:	00967633          	and	a2,a2,s1
   11f74:	00a68d33          	add	s10,a3,a0
   11f78:	009f7f33          	and	t5,t5,s1
   11f7c:	00be0e33          	add	t3,t3,a1
   11f80:	01061613          	slli	a2,a2,0x10
   11f84:	01e60633          	add	a2,a2,t5
   11f88:	00be35b3          	sltu	a1,t3,a1
   11f8c:	012d0f33          	add	t5,s10,s2
   11f90:	010e0e33          	add	t3,t3,a6
   11f94:	00bf03b3          	add	t2,t5,a1
   11f98:	01638eb3          	add	t4,t2,s6
   11f9c:	07c12823          	sw	t3,112(sp)
   11fa0:	010e3e33          	sltu	t3,t3,a6
   11fa4:	01ce8db3          	add	s11,t4,t3
   11fa8:	0116b6b3          	sltu	a3,a3,a7
   11fac:	00b3b5b3          	sltu	a1,t2,a1
   11fb0:	00ad3533          	sltu	a0,s10,a0
   11fb4:	012f3933          	sltu	s2,t5,s2
   11fb8:	00a6e533          	or	a0,a3,a0
   11fbc:	00b96933          	or	s2,s2,a1
   11fc0:	016ebeb3          	sltu	t4,t4,s6
   11fc4:	01cdbe33          	sltu	t3,s11,t3
   11fc8:	01250533          	add	a0,a0,s2
   11fcc:	01ceeeb3          	or	t4,t4,t3
   11fd0:	00ed8833          	add	a6,s11,a4
   11fd4:	01d50533          	add	a0,a0,t4
   11fd8:	00e83733          	sltu	a4,a6,a4
   11fdc:	00850533          	add	a0,a0,s0
   11fe0:	00e506b3          	add	a3,a0,a4
   11fe4:	00853433          	sltu	s0,a0,s0
   11fe8:	02698533          	mul	a0,s3,t1
   11fec:	00c80833          	add	a6,a6,a2
   11ff0:	00e6b733          	sltu	a4,a3,a4
   11ff4:	00c83633          	sltu	a2,a6,a2
   11ff8:	018686b3          	add	a3,a3,s8
   11ffc:	00c685b3          	add	a1,a3,a2
   12000:	0186bc33          	sltu	s8,a3,s8
   12004:	00c5b633          	sltu	a2,a1,a2
   12008:	07012a23          	sw	a6,116(sp)
   1200c:	00e46733          	or	a4,s0,a4
   12010:	026f8333          	mul	t1,t6,t1
   12014:	01055693          	srli	a3,a0,0x10
   12018:	00cc6633          	or	a2,s8,a2
   1201c:	033289b3          	mul	s3,t0,s3
   12020:	006989b3          	add	s3,s3,t1
   12024:	03f28fb3          	mul	t6,t0,t6
   12028:	013682b3          	add	t0,a3,s3
   1202c:	0062f463          	bgeu	t0,t1,12034 <__multf3+0xac0>
   12030:	019f8fb3          	add	t6,t6,s9
   12034:	0092f6b3          	and	a3,t0,s1
   12038:	01069693          	slli	a3,a3,0x10
   1203c:	009574b3          	and	s1,a0,s1
   12040:	0102d293          	srli	t0,t0,0x10
   12044:	009684b3          	add	s1,a3,s1
   12048:	00e282b3          	add	t0,t0,a4
   1204c:	01012683          	lw	a3,16(sp)
   12050:	02012703          	lw	a4,32(sp)
   12054:	009585b3          	add	a1,a1,s1
   12058:	0095b4b3          	sltu	s1,a1,s1
   1205c:	00d769b3          	or	s3,a4,a3
   12060:	01412703          	lw	a4,20(sp)
   12064:	00c282b3          	add	t0,t0,a2
   12068:	009282b3          	add	t0,t0,s1
   1206c:	013769b3          	or	s3,a4,s3
   12070:	01f28fb3          	add	t6,t0,t6
   12074:	00d79793          	slli	a5,a5,0xd
   12078:	06b12c23          	sw	a1,120(sp)
   1207c:	07f12e23          	sw	t6,124(sp)
   12080:	0137e7b3          	or	a5,a5,s3
   12084:	06010713          	addi	a4,sp,96
   12088:	07010593          	addi	a1,sp,112
   1208c:	00c72683          	lw	a3,12(a4)
   12090:	01072603          	lw	a2,16(a4)
   12094:	00470713          	addi	a4,a4,4
   12098:	0136d693          	srli	a3,a3,0x13
   1209c:	00d61613          	slli	a2,a2,0xd
   120a0:	00c6e6b3          	or	a3,a3,a2
   120a4:	fed72e23          	sw	a3,-4(a4)
   120a8:	fee592e3          	bne	a1,a4,1208c <__multf3+0xb18>
   120ac:	06012703          	lw	a4,96(sp)
   120b0:	06812683          	lw	a3,104(sp)
   120b4:	00f037b3          	snez	a5,a5
   120b8:	00e7e7b3          	or	a5,a5,a4
   120bc:	04d12c23          	sw	a3,88(sp)
   120c0:	06c12703          	lw	a4,108(sp)
   120c4:	06412683          	lw	a3,100(sp)
   120c8:	04f12823          	sw	a5,80(sp)
   120cc:	04e12e23          	sw	a4,92(sp)
   120d0:	04d12a23          	sw	a3,84(sp)
   120d4:	00b71693          	slli	a3,a4,0xb
   120d8:	2006dc63          	bgez	a3,122f0 <__multf3+0xd7c>
   120dc:	01f79793          	slli	a5,a5,0x1f
   120e0:	05010713          	addi	a4,sp,80
   120e4:	05c10593          	addi	a1,sp,92
   120e8:	00072683          	lw	a3,0(a4)
   120ec:	00472603          	lw	a2,4(a4)
   120f0:	00470713          	addi	a4,a4,4
   120f4:	0016d693          	srli	a3,a3,0x1
   120f8:	01f61613          	slli	a2,a2,0x1f
   120fc:	00c6e6b3          	or	a3,a3,a2
   12100:	fed72e23          	sw	a3,-4(a4)
   12104:	fee592e3          	bne	a1,a4,120e8 <__multf3+0xb74>
   12108:	05c12703          	lw	a4,92(sp)
   1210c:	00f037b3          	snez	a5,a5
   12110:	00175713          	srli	a4,a4,0x1
   12114:	04e12e23          	sw	a4,92(sp)
   12118:	05012703          	lw	a4,80(sp)
   1211c:	00f767b3          	or	a5,a4,a5
   12120:	04f12823          	sw	a5,80(sp)
  FP_PACK_Q (r, R);
   12124:	01812703          	lw	a4,24(sp)
   12128:	000047b7          	lui	a5,0x4
   1212c:	fff78793          	addi	a5,a5,-1 # 3fff <eshup1+0x13>
   12130:	00f707b3          	add	a5,a4,a5
   12134:	1ef05063          	blez	a5,12314 <__multf3+0xda0>
   12138:	05012703          	lw	a4,80(sp)
   1213c:	00777693          	andi	a3,a4,7
   12140:	04068463          	beqz	a3,12188 <__multf3+0xc14>
   12144:	00f77693          	andi	a3,a4,15
   12148:	00400613          	li	a2,4
   1214c:	02c68e63          	beq	a3,a2,12188 <__multf3+0xc14>
   12150:	05412683          	lw	a3,84(sp)
   12154:	00470713          	addi	a4,a4,4
   12158:	04e12823          	sw	a4,80(sp)
   1215c:	00473713          	sltiu	a4,a4,4
   12160:	00d706b3          	add	a3,a4,a3
   12164:	00e6b733          	sltu	a4,a3,a4
   12168:	04d12a23          	sw	a3,84(sp)
   1216c:	05812683          	lw	a3,88(sp)
   12170:	00d706b3          	add	a3,a4,a3
   12174:	04d12c23          	sw	a3,88(sp)
   12178:	00e6b6b3          	sltu	a3,a3,a4
   1217c:	05c12703          	lw	a4,92(sp)
   12180:	00e686b3          	add	a3,a3,a4
   12184:	04d12e23          	sw	a3,92(sp)
   12188:	05c12703          	lw	a4,92(sp)
   1218c:	00b71693          	slli	a3,a4,0xb
   12190:	0206d063          	bgez	a3,121b0 <__multf3+0xc3c>
   12194:	fff007b7          	lui	a5,0xfff00
   12198:	fff78793          	addi	a5,a5,-1 # ffefffff <//.+0xffeea087>
   1219c:	00f77733          	and	a4,a4,a5
   121a0:	04e12e23          	sw	a4,92(sp)
   121a4:	01812703          	lw	a4,24(sp)
   121a8:	000047b7          	lui	a5,0x4
   121ac:	00f707b3          	add	a5,a4,a5
   121b0:	05010713          	addi	a4,sp,80
   121b4:	05c10593          	addi	a1,sp,92
   121b8:	00072683          	lw	a3,0(a4)
   121bc:	00472603          	lw	a2,4(a4)
   121c0:	00470713          	addi	a4,a4,4
   121c4:	0036d693          	srli	a3,a3,0x3
   121c8:	01d61613          	slli	a2,a2,0x1d
   121cc:	00c6e6b3          	or	a3,a3,a2
   121d0:	fed72e23          	sw	a3,-4(a4)
   121d4:	feb712e3          	bne	a4,a1,121b8 <__multf3+0xc44>
   121d8:	00008737          	lui	a4,0x8
   121dc:	ffe70693          	addi	a3,a4,-2 # 7ffe <__mcmp+0xa>
   121e0:	10f6ce63          	blt	a3,a5,122fc <__multf3+0xd88>
   121e4:	05c12703          	lw	a4,92(sp)
   121e8:	00375713          	srli	a4,a4,0x3
   121ec:	04e12e23          	sw	a4,92(sp)
   121f0:	05c12703          	lw	a4,92(sp)
   121f4:	01179793          	slli	a5,a5,0x11
   121f8:	0117d793          	srli	a5,a5,0x11
   121fc:	06e11623          	sh	a4,108(sp)
   12200:	00c12703          	lw	a4,12(sp)
  FP_HANDLE_EXCEPTIONS;

  return r;
}
   12204:	0bc12083          	lw	ra,188(sp)
   12208:	0b812403          	lw	s0,184(sp)
  FP_PACK_Q (r, R);
   1220c:	00f71713          	slli	a4,a4,0xf
   12210:	00f767b3          	or	a5,a4,a5
   12214:	06f11723          	sh	a5,110(sp)
  return r;
   12218:	00812703          	lw	a4,8(sp)
   1221c:	05012783          	lw	a5,80(sp)
}
   12220:	0b412483          	lw	s1,180(sp)
   12224:	0b012903          	lw	s2,176(sp)
  return r;
   12228:	00f72023          	sw	a5,0(a4)
   1222c:	05412783          	lw	a5,84(sp)
}
   12230:	0ac12983          	lw	s3,172(sp)
   12234:	0a812a03          	lw	s4,168(sp)
  return r;
   12238:	00f72223          	sw	a5,4(a4)
   1223c:	05812783          	lw	a5,88(sp)
}
   12240:	0a412a83          	lw	s5,164(sp)
   12244:	0a012b03          	lw	s6,160(sp)
  return r;
   12248:	00f72423          	sw	a5,8(a4)
   1224c:	06c12783          	lw	a5,108(sp)
}
   12250:	09c12b83          	lw	s7,156(sp)
   12254:	09812c03          	lw	s8,152(sp)
  return r;
   12258:	00f72623          	sw	a5,12(a4)
}
   1225c:	09412c83          	lw	s9,148(sp)
   12260:	09012d03          	lw	s10,144(sp)
   12264:	08c12d83          	lw	s11,140(sp)
   12268:	00070513          	mv	a0,a4
   1226c:	0c010113          	addi	sp,sp,192
   12270:	00008067          	ret
  FP_UNPACK_Q (A, a);
   12274:	01212623          	sw	s2,12(sp)
  FP_MUL_Q (R, A, B);
   12278:	03012783          	lw	a5,48(sp)
   1227c:	04f12823          	sw	a5,80(sp)
   12280:	03412783          	lw	a5,52(sp)
   12284:	04f12a23          	sw	a5,84(sp)
   12288:	03812783          	lw	a5,56(sp)
   1228c:	04f12c23          	sw	a5,88(sp)
   12290:	03c12783          	lw	a5,60(sp)
   12294:	04f12e23          	sw	a5,92(sp)
  FP_PACK_Q (r, R);
   12298:	00200793          	li	a5,2
   1229c:	26fb8e63          	beq	s7,a5,12518 <__multf3+0xfa4>
   122a0:	00300793          	li	a5,3
   122a4:	28fb8863          	beq	s7,a5,12534 <__multf3+0xfc0>
   122a8:	00100793          	li	a5,1
   122ac:	e6fb9ce3          	bne	s7,a5,12124 <__multf3+0xbb0>
   122b0:	04012e23          	sw	zero,92(sp)
   122b4:	04012c23          	sw	zero,88(sp)
   122b8:	04012a23          	sw	zero,84(sp)
   122bc:	04012823          	sw	zero,80(sp)
   122c0:	2180006f          	j	124d8 <__multf3+0xf64>
  FP_UNPACK_Q (B, b);
   122c4:	01312623          	sw	s3,12(sp)
  FP_MUL_Q (R, A, B);
   122c8:	04012783          	lw	a5,64(sp)
   122cc:	00070b93          	mv	s7,a4
   122d0:	04f12823          	sw	a5,80(sp)
   122d4:	04412783          	lw	a5,68(sp)
   122d8:	04f12a23          	sw	a5,84(sp)
   122dc:	04812783          	lw	a5,72(sp)
   122e0:	04f12c23          	sw	a5,88(sp)
   122e4:	04c12783          	lw	a5,76(sp)
   122e8:	04f12e23          	sw	a5,92(sp)
   122ec:	fadff06f          	j	12298 <__multf3+0xd24>
   122f0:	01c12783          	lw	a5,28(sp)
   122f4:	00f12c23          	sw	a5,24(sp)
   122f8:	e2dff06f          	j	12124 <__multf3+0xbb0>
  FP_PACK_Q (r, R);
   122fc:	04012e23          	sw	zero,92(sp)
   12300:	04012c23          	sw	zero,88(sp)
   12304:	04012a23          	sw	zero,84(sp)
   12308:	04012823          	sw	zero,80(sp)
   1230c:	fff70793          	addi	a5,a4,-1
   12310:	ee1ff06f          	j	121f0 <__multf3+0xc7c>
   12314:	00100713          	li	a4,1
   12318:	40f707b3          	sub	a5,a4,a5
   1231c:	07400713          	li	a4,116
   12320:	1cf74063          	blt	a4,a5,124e0 <__multf3+0xf6c>
   12324:	05010493          	addi	s1,sp,80
   12328:	4057d513          	srai	a0,a5,0x5
   1232c:	00048693          	mv	a3,s1
   12330:	00000413          	li	s0,0
   12334:	00000713          	li	a4,0
   12338:	04a71263          	bne	a4,a0,1237c <__multf3+0xe08>
   1233c:	01f7f793          	andi	a5,a5,31
   12340:	00251713          	slli	a4,a0,0x2
   12344:	04079663          	bnez	a5,12390 <__multf3+0xe1c>
   12348:	00300613          	li	a2,3
   1234c:	00048793          	mv	a5,s1
   12350:	00000693          	li	a3,0
   12354:	40a60633          	sub	a2,a2,a0
   12358:	00e785b3          	add	a1,a5,a4
   1235c:	0005a583          	lw	a1,0(a1)
   12360:	00168693          	addi	a3,a3,1
   12364:	00478793          	addi	a5,a5,4 # 4004 <eshup1+0x18>
   12368:	feb7ae23          	sw	a1,-4(a5)
   1236c:	fed656e3          	bge	a2,a3,12358 <__multf3+0xde4>
   12370:	00400793          	li	a5,4
   12374:	40a78533          	sub	a0,a5,a0
   12378:	0700006f          	j	123e8 <__multf3+0xe74>
   1237c:	0006a603          	lw	a2,0(a3)
   12380:	00170713          	addi	a4,a4,1
   12384:	00468693          	addi	a3,a3,4
   12388:	00c46433          	or	s0,s0,a2
   1238c:	fadff06f          	j	12338 <__multf3+0xdc4>
   12390:	ffc00893          	li	a7,-4
   12394:	031508b3          	mul	a7,a0,a7
   12398:	08010693          	addi	a3,sp,128
   1239c:	00e686b3          	add	a3,a3,a4
   123a0:	fd06a683          	lw	a3,-48(a3)
   123a4:	02000593          	li	a1,32
   123a8:	40f585b3          	sub	a1,a1,a5
   123ac:	00b696b3          	sll	a3,a3,a1
   123b0:	00d46433          	or	s0,s0,a3
   123b4:	00300693          	li	a3,3
   123b8:	00e48733          	add	a4,s1,a4
   123bc:	00000813          	li	a6,0
   123c0:	40a686b3          	sub	a3,a3,a0
   123c4:	0ad84e63          	blt	a6,a3,12480 <__multf3+0xf0c>
   123c8:	00400713          	li	a4,4
   123cc:	40a70533          	sub	a0,a4,a0
   123d0:	00269693          	slli	a3,a3,0x2
   123d4:	08010713          	addi	a4,sp,128
   123d8:	00d706b3          	add	a3,a4,a3
   123dc:	05c12703          	lw	a4,92(sp)
   123e0:	00f757b3          	srl	a5,a4,a5
   123e4:	fcf6a823          	sw	a5,-48(a3)
   123e8:	00400913          	li	s2,4
   123ec:	40a90633          	sub	a2,s2,a0
   123f0:	00251513          	slli	a0,a0,0x2
   123f4:	00261613          	slli	a2,a2,0x2
   123f8:	00000593          	li	a1,0
   123fc:	00a48533          	add	a0,s1,a0
   12400:	8d4ee0ef          	jal	ra,4d4 <memset>
   12404:	05012703          	lw	a4,80(sp)
   12408:	008037b3          	snez	a5,s0
   1240c:	00e7e7b3          	or	a5,a5,a4
   12410:	04f12823          	sw	a5,80(sp)
   12414:	0077f713          	andi	a4,a5,7
   12418:	04070263          	beqz	a4,1245c <__multf3+0xee8>
   1241c:	00f7f713          	andi	a4,a5,15
   12420:	03270e63          	beq	a4,s2,1245c <__multf3+0xee8>
   12424:	05412703          	lw	a4,84(sp)
   12428:	00478793          	addi	a5,a5,4
   1242c:	04f12823          	sw	a5,80(sp)
   12430:	0047b793          	sltiu	a5,a5,4
   12434:	00e78733          	add	a4,a5,a4
   12438:	00f737b3          	sltu	a5,a4,a5
   1243c:	04e12a23          	sw	a4,84(sp)
   12440:	05812703          	lw	a4,88(sp)
   12444:	00e78733          	add	a4,a5,a4
   12448:	04e12c23          	sw	a4,88(sp)
   1244c:	00f73733          	sltu	a4,a4,a5
   12450:	05c12783          	lw	a5,92(sp)
   12454:	00f70733          	add	a4,a4,a5
   12458:	04e12e23          	sw	a4,92(sp)
   1245c:	05c12783          	lw	a5,92(sp)
   12460:	00c79713          	slli	a4,a5,0xc
   12464:	04075263          	bgez	a4,124a8 <__multf3+0xf34>
   12468:	04012e23          	sw	zero,92(sp)
   1246c:	04012c23          	sw	zero,88(sp)
   12470:	04012a23          	sw	zero,84(sp)
   12474:	04012823          	sw	zero,80(sp)
   12478:	00100793          	li	a5,1
   1247c:	d75ff06f          	j	121f0 <__multf3+0xc7c>
   12480:	00072603          	lw	a2,0(a4)
   12484:	00472303          	lw	t1,4(a4)
   12488:	01170e33          	add	t3,a4,a7
   1248c:	00f65633          	srl	a2,a2,a5
   12490:	00b31333          	sll	t1,t1,a1
   12494:	00666633          	or	a2,a2,t1
   12498:	00ce2023          	sw	a2,0(t3)
   1249c:	00180813          	addi	a6,a6,1
   124a0:	00470713          	addi	a4,a4,4
   124a4:	f21ff06f          	j	123c4 <__multf3+0xe50>
   124a8:	00c48693          	addi	a3,s1,12
   124ac:	0004a783          	lw	a5,0(s1)
   124b0:	0044a703          	lw	a4,4(s1)
   124b4:	00448493          	addi	s1,s1,4
   124b8:	0037d793          	srli	a5,a5,0x3
   124bc:	01d71713          	slli	a4,a4,0x1d
   124c0:	00e7e7b3          	or	a5,a5,a4
   124c4:	fef4ae23          	sw	a5,-4(s1)
   124c8:	fed492e3          	bne	s1,a3,124ac <__multf3+0xf38>
   124cc:	05c12783          	lw	a5,92(sp)
   124d0:	0037d793          	srli	a5,a5,0x3
   124d4:	04f12e23          	sw	a5,92(sp)
   124d8:	00000793          	li	a5,0
   124dc:	d15ff06f          	j	121f0 <__multf3+0xc7c>
   124e0:	05412783          	lw	a5,84(sp)
   124e4:	05012703          	lw	a4,80(sp)
   124e8:	00f76733          	or	a4,a4,a5
   124ec:	05812783          	lw	a5,88(sp)
   124f0:	00f76733          	or	a4,a4,a5
   124f4:	05c12783          	lw	a5,92(sp)
   124f8:	00f76733          	or	a4,a4,a5
   124fc:	00000793          	li	a5,0
   12500:	ce0708e3          	beqz	a4,121f0 <__multf3+0xc7c>
   12504:	04012e23          	sw	zero,92(sp)
   12508:	04012c23          	sw	zero,88(sp)
   1250c:	04012a23          	sw	zero,84(sp)
   12510:	04012823          	sw	zero,80(sp)
   12514:	cddff06f          	j	121f0 <__multf3+0xc7c>
   12518:	000087b7          	lui	a5,0x8
   1251c:	04012e23          	sw	zero,92(sp)
   12520:	04012c23          	sw	zero,88(sp)
   12524:	04012a23          	sw	zero,84(sp)
   12528:	04012823          	sw	zero,80(sp)
   1252c:	fff78793          	addi	a5,a5,-1 # 7fff <__mcmp+0xb>
   12530:	cc1ff06f          	j	121f0 <__multf3+0xc7c>
   12534:	000087b7          	lui	a5,0x8
   12538:	04f12e23          	sw	a5,92(sp)
   1253c:	04012c23          	sw	zero,88(sp)
   12540:	04012a23          	sw	zero,84(sp)
   12544:	04012823          	sw	zero,80(sp)
   12548:	fff78793          	addi	a5,a5,-1 # 7fff <__mcmp+0xb>
   1254c:	00012623          	sw	zero,12(sp)
   12550:	ca1ff06f          	j	121f0 <__multf3+0xc7c>

00012554 <__subtf3>:
#include "soft-fp.h"
#include "quad.h"

TFtype
__subtf3 (TFtype a, TFtype b)
{
   12554:	f9010113          	addi	sp,sp,-112
   12558:	0085a783          	lw	a5,8(a1)
   1255c:	05512a23          	sw	s5,84(sp)
   12560:	00c5aa83          	lw	s5,12(a1)
   12564:	0005a683          	lw	a3,0(a1)
   12568:	0045a703          	lw	a4,4(a1)
   1256c:	05612823          	sw	s6,80(sp)
   12570:	05712623          	sw	s7,76(sp)
   12574:	00050b13          	mv	s6,a0
  FP_DECL_Q (B);
  FP_DECL_Q (R);
  TFtype r;

  FP_INIT_ROUNDMODE;
  FP_UNPACK_SEMIRAW_Q (A, a);
   12578:	02f12c23          	sw	a5,56(sp)
   1257c:	00f12c23          	sw	a5,24(sp)
{
   12580:	00062803          	lw	a6,0(a2)
  FP_UNPACK_SEMIRAW_Q (A, a);
   12584:	010a9793          	slli	a5,s5,0x10
{
   12588:	00462503          	lw	a0,4(a2)
   1258c:	00862583          	lw	a1,8(a2)
   12590:	00c62b83          	lw	s7,12(a2)
   12594:	06912223          	sw	s1,100(sp)
  FP_UNPACK_SEMIRAW_Q (A, a);
   12598:	0107d793          	srli	a5,a5,0x10
   1259c:	001a9493          	slli	s1,s5,0x1
   125a0:	02d12823          	sw	a3,48(sp)
   125a4:	03512e23          	sw	s5,60(sp)
   125a8:	00d12823          	sw	a3,16(sp)
{
   125ac:	06112623          	sw	ra,108(sp)
   125b0:	06812423          	sw	s0,104(sp)
   125b4:	07212023          	sw	s2,96(sp)
   125b8:	05312e23          	sw	s3,92(sp)
   125bc:	05412c23          	sw	s4,88(sp)
   125c0:	05812423          	sw	s8,72(sp)
   125c4:	05912223          	sw	s9,68(sp)
  FP_UNPACK_SEMIRAW_Q (A, a);
   125c8:	02e12a23          	sw	a4,52(sp)
   125cc:	00e12a23          	sw	a4,20(sp)
   125d0:	00f12e23          	sw	a5,28(sp)
   125d4:	0114d493          	srli	s1,s1,0x11
   125d8:	01fada93          	srli	s5,s5,0x1f
   125dc:	01010893          	addi	a7,sp,16
   125e0:	01c10693          	addi	a3,sp,28
   125e4:	0006a783          	lw	a5,0(a3)
   125e8:	ffc6a703          	lw	a4,-4(a3)
   125ec:	ffc68693          	addi	a3,a3,-4
   125f0:	00379793          	slli	a5,a5,0x3
   125f4:	01d75713          	srli	a4,a4,0x1d
   125f8:	00e7e7b3          	or	a5,a5,a4
   125fc:	00f6a223          	sw	a5,4(a3)
   12600:	fed892e3          	bne	a7,a3,125e4 <__subtf3+0x90>
   12604:	01012903          	lw	s2,16(sp)
  FP_UNPACK_SEMIRAW_Q (B, b);
   12608:	010b9793          	slli	a5,s7,0x10
   1260c:	001b9c13          	slli	s8,s7,0x1
  FP_UNPACK_SEMIRAW_Q (A, a);
   12610:	00391913          	slli	s2,s2,0x3
  FP_UNPACK_SEMIRAW_Q (B, b);
   12614:	0107d793          	srli	a5,a5,0x10
   12618:	02a12a23          	sw	a0,52(sp)
   1261c:	02b12c23          	sw	a1,56(sp)
   12620:	03712e23          	sw	s7,60(sp)
   12624:	02a12223          	sw	a0,36(sp)
   12628:	02b12423          	sw	a1,40(sp)
  FP_UNPACK_SEMIRAW_Q (A, a);
   1262c:	01212823          	sw	s2,16(sp)
  FP_UNPACK_SEMIRAW_Q (B, b);
   12630:	03012823          	sw	a6,48(sp)
   12634:	03012023          	sw	a6,32(sp)
   12638:	02f12623          	sw	a5,44(sp)
   1263c:	011c5c13          	srli	s8,s8,0x11
   12640:	01fbdb93          	srli	s7,s7,0x1f
   12644:	02010513          	addi	a0,sp,32
   12648:	02c10593          	addi	a1,sp,44
   1264c:	0005a783          	lw	a5,0(a1)
   12650:	ffc5a703          	lw	a4,-4(a1)
   12654:	ffc58593          	addi	a1,a1,-4
   12658:	00379793          	slli	a5,a5,0x3
   1265c:	01d75713          	srli	a4,a4,0x1d
   12660:	00e7e7b3          	or	a5,a5,a4
   12664:	00f5a223          	sw	a5,4(a1)
   12668:	feb512e3          	bne	a0,a1,1264c <__subtf3+0xf8>
   1266c:	02012403          	lw	s0,32(sp)
  FP_SUB_Q (R, A, B);
   12670:	000087b7          	lui	a5,0x8
   12674:	fff78793          	addi	a5,a5,-1 # 7fff <__mcmp+0xb>
  FP_UNPACK_SEMIRAW_Q (B, b);
   12678:	00341413          	slli	s0,s0,0x3
   1267c:	02812023          	sw	s0,32(sp)
  FP_SUB_Q (R, A, B);
   12680:	02fc1063          	bne	s8,a5,126a0 <__subtf3+0x14c>
   12684:	02812703          	lw	a4,40(sp)
   12688:	02412783          	lw	a5,36(sp)
   1268c:	00e7e7b3          	or	a5,a5,a4
   12690:	02c12703          	lw	a4,44(sp)
   12694:	00e7e7b3          	or	a5,a5,a4
   12698:	0087e7b3          	or	a5,a5,s0
   1269c:	00079463          	bnez	a5,126a4 <__subtf3+0x150>
   126a0:	001bcb93          	xori	s7,s7,1
   126a4:	41848833          	sub	a6,s1,s8
   126a8:	0f5b9ce3          	bne	s7,s5,12fa0 <__subtf3+0xa4c>
   126ac:	45005c63          	blez	a6,12b04 <__subtf3+0x5b0>
   126b0:	01412b83          	lw	s7,20(sp)
   126b4:	01812a03          	lw	s4,24(sp)
   126b8:	01c12983          	lw	s3,28(sp)
   126bc:	0a0c1c63          	bnez	s8,12774 <__subtf3+0x220>
   126c0:	02412603          	lw	a2,36(sp)
   126c4:	02812703          	lw	a4,40(sp)
   126c8:	02c12783          	lw	a5,44(sp)
   126cc:	00e666b3          	or	a3,a2,a4
   126d0:	00f6e6b3          	or	a3,a3,a5
   126d4:	0086e6b3          	or	a3,a3,s0
   126d8:	00069e63          	bnez	a3,126f4 <__subtf3+0x1a0>
   126dc:	03212823          	sw	s2,48(sp)
   126e0:	03712a23          	sw	s7,52(sp)
   126e4:	03412c23          	sw	s4,56(sp)
   126e8:	03312e23          	sw	s3,60(sp)
   126ec:	00080493          	mv	s1,a6
   126f0:	0a00006f          	j	12790 <__subtf3+0x23c>
   126f4:	fff80693          	addi	a3,a6,-1
   126f8:	04069a63          	bnez	a3,1274c <__subtf3+0x1f8>
   126fc:	00890433          	add	s0,s2,s0
   12700:	01243933          	sltu	s2,s0,s2
   12704:	01760633          	add	a2,a2,s7
   12708:	02812823          	sw	s0,48(sp)
   1270c:	01260433          	add	s0,a2,s2
   12710:	01243933          	sltu	s2,s0,s2
   12714:	01763633          	sltu	a2,a2,s7
   12718:	01266633          	or	a2,a2,s2
   1271c:	01470733          	add	a4,a4,s4
   12720:	00c706b3          	add	a3,a4,a2
   12724:	00c6b633          	sltu	a2,a3,a2
   12728:	01473733          	sltu	a4,a4,s4
   1272c:	00c76733          	or	a4,a4,a2
   12730:	013787b3          	add	a5,a5,s3
   12734:	00f70733          	add	a4,a4,a5
   12738:	02812a23          	sw	s0,52(sp)
   1273c:	02d12c23          	sw	a3,56(sp)
   12740:	02e12e23          	sw	a4,60(sp)
  FP_UNPACK_SEMIRAW_Q (B, b);
   12744:	00100493          	li	s1,1
  FP_SUB_Q (R, A, B);
   12748:	3080006f          	j	12a50 <__subtf3+0x4fc>
   1274c:	000087b7          	lui	a5,0x8
   12750:	fff78793          	addi	a5,a5,-1 # 7fff <__mcmp+0xb>
   12754:	f8f804e3          	beq	a6,a5,126dc <__subtf3+0x188>
   12758:	07400793          	li	a5,116
   1275c:	1ad7da63          	bge	a5,a3,12910 <__subtf3+0x3bc>
   12760:	02012623          	sw	zero,44(sp)
   12764:	02012423          	sw	zero,40(sp)
   12768:	02012223          	sw	zero,36(sp)
   1276c:	00100793          	li	a5,1
   12770:	2840006f          	j	129f4 <__subtf3+0x4a0>
   12774:	000087b7          	lui	a5,0x8
   12778:	fff78793          	addi	a5,a5,-1 # 7fff <__mcmp+0xb>
   1277c:	16f49c63          	bne	s1,a5,128f4 <__subtf3+0x3a0>
   12780:	03212823          	sw	s2,48(sp)
   12784:	03712a23          	sw	s7,52(sp)
   12788:	03412c23          	sw	s4,56(sp)
   1278c:	03312e23          	sw	s3,60(sp)
  FP_PACK_SEMIRAW_Q (r, R);
   12790:	03012783          	lw	a5,48(sp)
   12794:	0077f713          	andi	a4,a5,7
   12798:	04070463          	beqz	a4,127e0 <__subtf3+0x28c>
   1279c:	00f7f713          	andi	a4,a5,15
   127a0:	00400693          	li	a3,4
   127a4:	02d70e63          	beq	a4,a3,127e0 <__subtf3+0x28c>
   127a8:	03412703          	lw	a4,52(sp)
   127ac:	00478793          	addi	a5,a5,4
   127b0:	02f12823          	sw	a5,48(sp)
   127b4:	0047b793          	sltiu	a5,a5,4
   127b8:	00e78733          	add	a4,a5,a4
   127bc:	00f737b3          	sltu	a5,a4,a5
   127c0:	02e12a23          	sw	a4,52(sp)
   127c4:	03812703          	lw	a4,56(sp)
   127c8:	00e78733          	add	a4,a5,a4
   127cc:	02e12c23          	sw	a4,56(sp)
   127d0:	00f73733          	sltu	a4,a4,a5
   127d4:	03c12783          	lw	a5,60(sp)
   127d8:	00f70733          	add	a4,a4,a5
   127dc:	02e12e23          	sw	a4,60(sp)
   127e0:	03c12783          	lw	a5,60(sp)
   127e4:	00c79713          	slli	a4,a5,0xc
   127e8:	02075463          	bgez	a4,12810 <__subtf3+0x2bc>
   127ec:	00008737          	lui	a4,0x8
   127f0:	00148493          	addi	s1,s1,1
   127f4:	fff70713          	addi	a4,a4,-1 # 7fff <__mcmp+0xb>
   127f8:	00e49463          	bne	s1,a4,12800 <__subtf3+0x2ac>
   127fc:	24c0106f          	j	13a48 <__subtf3+0x14f4>
   12800:	fff80737          	lui	a4,0xfff80
   12804:	fff70713          	addi	a4,a4,-1 # fff7ffff <//.+0xfff6a087>
   12808:	00e7f7b3          	and	a5,a5,a4
   1280c:	02f12e23          	sw	a5,60(sp)
   12810:	03010793          	addi	a5,sp,48
   12814:	03c10613          	addi	a2,sp,60
   12818:	0007a703          	lw	a4,0(a5)
   1281c:	0047a683          	lw	a3,4(a5)
   12820:	00478793          	addi	a5,a5,4
   12824:	00375713          	srli	a4,a4,0x3
   12828:	01d69693          	slli	a3,a3,0x1d
   1282c:	00d76733          	or	a4,a4,a3
   12830:	fee7ae23          	sw	a4,-4(a5)
   12834:	fef612e3          	bne	a2,a5,12818 <__subtf3+0x2c4>
   12838:	03c12783          	lw	a5,60(sp)
   1283c:	000086b7          	lui	a3,0x8
   12840:	0037d713          	srli	a4,a5,0x3
   12844:	02e12e23          	sw	a4,60(sp)
   12848:	fff68793          	addi	a5,a3,-1 # 7fff <__mcmp+0xb>
   1284c:	02f49a63          	bne	s1,a5,12880 <__subtf3+0x32c>
   12850:	03412603          	lw	a2,52(sp)
   12854:	03012783          	lw	a5,48(sp)
   12858:	00c7e7b3          	or	a5,a5,a2
   1285c:	03812603          	lw	a2,56(sp)
   12860:	00c7e7b3          	or	a5,a5,a2
   12864:	00e7e7b3          	or	a5,a5,a4
   12868:	00078c63          	beqz	a5,12880 <__subtf3+0x32c>
   1286c:	02d12e23          	sw	a3,60(sp)
   12870:	02012c23          	sw	zero,56(sp)
   12874:	02012a23          	sw	zero,52(sp)
   12878:	02012823          	sw	zero,48(sp)
   1287c:	00000a93          	li	s5,0
   12880:	03c12783          	lw	a5,60(sp)
   12884:	01149493          	slli	s1,s1,0x11
   12888:	0114d493          	srli	s1,s1,0x11
   1288c:	00f11623          	sh	a5,12(sp)
  FP_HANDLE_EXCEPTIONS;

  return r;
   12890:	03012783          	lw	a5,48(sp)
  FP_PACK_SEMIRAW_Q (r, R);
   12894:	00fa9a93          	slli	s5,s5,0xf
   12898:	009aeab3          	or	s5,s5,s1
  return r;
   1289c:	00fb2023          	sw	a5,0(s6)
   128a0:	03412783          	lw	a5,52(sp)
  FP_PACK_SEMIRAW_Q (r, R);
   128a4:	01511723          	sh	s5,14(sp)
}
   128a8:	06c12083          	lw	ra,108(sp)
  return r;
   128ac:	00fb2223          	sw	a5,4(s6)
   128b0:	03812783          	lw	a5,56(sp)
}
   128b4:	06812403          	lw	s0,104(sp)
   128b8:	06412483          	lw	s1,100(sp)
  return r;
   128bc:	00fb2423          	sw	a5,8(s6)
   128c0:	00c12783          	lw	a5,12(sp)
}
   128c4:	06012903          	lw	s2,96(sp)
   128c8:	05c12983          	lw	s3,92(sp)
  return r;
   128cc:	00fb2623          	sw	a5,12(s6)
}
   128d0:	05812a03          	lw	s4,88(sp)
   128d4:	05412a83          	lw	s5,84(sp)
   128d8:	04c12b83          	lw	s7,76(sp)
   128dc:	04812c03          	lw	s8,72(sp)
   128e0:	04412c83          	lw	s9,68(sp)
   128e4:	000b0513          	mv	a0,s6
   128e8:	05012b03          	lw	s6,80(sp)
   128ec:	07010113          	addi	sp,sp,112
   128f0:	00008067          	ret
  FP_SUB_Q (R, A, B);
   128f4:	02c12783          	lw	a5,44(sp)
   128f8:	00080737          	lui	a4,0x80
   128fc:	00e7e7b3          	or	a5,a5,a4
   12900:	02f12623          	sw	a5,44(sp)
   12904:	07400793          	li	a5,116
   12908:	e507cce3          	blt	a5,a6,12760 <__subtf3+0x20c>
   1290c:	00080693          	mv	a3,a6
   12910:	4056d793          	srai	a5,a3,0x5
  FP_UNPACK_SEMIRAW_Q (B, b);
   12914:	00058613          	mv	a2,a1
  FP_SUB_Q (R, A, B);
   12918:	00000413          	li	s0,0
   1291c:	00000713          	li	a4,0
   12920:	04f71063          	bne	a4,a5,12960 <__subtf3+0x40c>
   12924:	01f6f693          	andi	a3,a3,31
   12928:	00279613          	slli	a2,a5,0x2
   1292c:	04069463          	bnez	a3,12974 <__subtf3+0x420>
   12930:	00300693          	li	a3,3
   12934:	00000713          	li	a4,0
   12938:	40f686b3          	sub	a3,a3,a5
   1293c:	00c58833          	add	a6,a1,a2
   12940:	00082803          	lw	a6,0(a6)
   12944:	00170713          	addi	a4,a4,1 # 80001 <//.+0x6a089>
   12948:	00458593          	addi	a1,a1,4
   1294c:	ff05ae23          	sw	a6,-4(a1)
   12950:	fee6d6e3          	bge	a3,a4,1293c <__subtf3+0x3e8>
   12954:	00400713          	li	a4,4
   12958:	40f707b3          	sub	a5,a4,a5
   1295c:	0700006f          	j	129cc <__subtf3+0x478>
   12960:	00062803          	lw	a6,0(a2)
   12964:	00170713          	addi	a4,a4,1
   12968:	00460613          	addi	a2,a2,4
   1296c:	01046433          	or	s0,s0,a6
   12970:	fb1ff06f          	j	12920 <__subtf3+0x3cc>
   12974:	ffc00313          	li	t1,-4
   12978:	02678333          	mul	t1,a5,t1
   1297c:	04010713          	addi	a4,sp,64
   12980:	00c70733          	add	a4,a4,a2
   12984:	fe072703          	lw	a4,-32(a4)
   12988:	02000813          	li	a6,32
   1298c:	40d80833          	sub	a6,a6,a3
   12990:	01071733          	sll	a4,a4,a6
   12994:	00e46433          	or	s0,s0,a4
   12998:	00300713          	li	a4,3
   1299c:	00c50633          	add	a2,a0,a2
   129a0:	00000893          	li	a7,0
   129a4:	40f70733          	sub	a4,a4,a5
   129a8:	12e8ca63          	blt	a7,a4,12adc <__subtf3+0x588>
   129ac:	00400613          	li	a2,4
   129b0:	40f607b3          	sub	a5,a2,a5
   129b4:	00271713          	slli	a4,a4,0x2
   129b8:	04010613          	addi	a2,sp,64
   129bc:	00e60733          	add	a4,a2,a4
   129c0:	02c12603          	lw	a2,44(sp)
   129c4:	00d656b3          	srl	a3,a2,a3
   129c8:	fed72023          	sw	a3,-32(a4)
   129cc:	00400613          	li	a2,4
   129d0:	40f60633          	sub	a2,a2,a5
   129d4:	00279793          	slli	a5,a5,0x2
   129d8:	00f50533          	add	a0,a0,a5
   129dc:	00261613          	slli	a2,a2,0x2
   129e0:	00000593          	li	a1,0
   129e4:	af1ed0ef          	jal	ra,4d4 <memset>
   129e8:	02012703          	lw	a4,32(sp)
   129ec:	008037b3          	snez	a5,s0
   129f0:	00f767b3          	or	a5,a4,a5
   129f4:	02f12023          	sw	a5,32(sp)
   129f8:	02012603          	lw	a2,32(sp)
   129fc:	02812683          	lw	a3,40(sp)
   12a00:	00c90633          	add	a2,s2,a2
   12a04:	01263933          	sltu	s2,a2,s2
   12a08:	02c12823          	sw	a2,48(sp)
   12a0c:	02412603          	lw	a2,36(sp)
   12a10:	00cb8633          	add	a2,s7,a2
   12a14:	012607b3          	add	a5,a2,s2
   12a18:	0127b933          	sltu	s2,a5,s2
   12a1c:	01763633          	sltu	a2,a2,s7
   12a20:	01266633          	or	a2,a2,s2
   12a24:	02f12a23          	sw	a5,52(sp)
   12a28:	00da07b3          	add	a5,s4,a3
   12a2c:	00c78733          	add	a4,a5,a2
   12a30:	00c73633          	sltu	a2,a4,a2
   12a34:	02e12c23          	sw	a4,56(sp)
   12a38:	02c12703          	lw	a4,44(sp)
   12a3c:	0147b7b3          	sltu	a5,a5,s4
   12a40:	00c7e7b3          	or	a5,a5,a2
   12a44:	00e989b3          	add	s3,s3,a4
   12a48:	013787b3          	add	a5,a5,s3
   12a4c:	02f12e23          	sw	a5,60(sp)
   12a50:	03c12783          	lw	a5,60(sp)
   12a54:	00c79713          	slli	a4,a5,0xc
   12a58:	d2075ce3          	bgez	a4,12790 <__subtf3+0x23c>
   12a5c:	fff80737          	lui	a4,0xfff80
   12a60:	fff70713          	addi	a4,a4,-1 # fff7ffff <//.+0xfff6a087>
   12a64:	00e7f7b3          	and	a5,a5,a4
   12a68:	02f12e23          	sw	a5,60(sp)
   12a6c:	03012783          	lw	a5,48(sp)
   12a70:	00148493          	addi	s1,s1,1
   12a74:	03c10593          	addi	a1,sp,60
   12a78:	01f79713          	slli	a4,a5,0x1f
   12a7c:	03010793          	addi	a5,sp,48
   12a80:	0007a683          	lw	a3,0(a5)
   12a84:	0047a603          	lw	a2,4(a5)
   12a88:	00478793          	addi	a5,a5,4
   12a8c:	0016d693          	srli	a3,a3,0x1
   12a90:	01f61613          	slli	a2,a2,0x1f
   12a94:	00c6e6b3          	or	a3,a3,a2
   12a98:	fed7ae23          	sw	a3,-4(a5)
   12a9c:	fef592e3          	bne	a1,a5,12a80 <__subtf3+0x52c>
   12aa0:	03c12783          	lw	a5,60(sp)
   12aa4:	0017d793          	srli	a5,a5,0x1
   12aa8:	02f12e23          	sw	a5,60(sp)
   12aac:	00e037b3          	snez	a5,a4
   12ab0:	03012703          	lw	a4,48(sp)
   12ab4:	00f767b3          	or	a5,a4,a5
   12ab8:	02f12823          	sw	a5,48(sp)
   12abc:	000087b7          	lui	a5,0x8
   12ac0:	fff78793          	addi	a5,a5,-1 # 7fff <__mcmp+0xb>
   12ac4:	ccf496e3          	bne	s1,a5,12790 <__subtf3+0x23c>
   12ac8:	02012e23          	sw	zero,60(sp)
   12acc:	02012c23          	sw	zero,56(sp)
   12ad0:	02012a23          	sw	zero,52(sp)
   12ad4:	02012823          	sw	zero,48(sp)
   12ad8:	cb9ff06f          	j	12790 <__subtf3+0x23c>
   12adc:	00062583          	lw	a1,0(a2)
   12ae0:	00462e03          	lw	t3,4(a2)
   12ae4:	00660eb3          	add	t4,a2,t1
   12ae8:	00d5d5b3          	srl	a1,a1,a3
   12aec:	010e1e33          	sll	t3,t3,a6
   12af0:	01c5e5b3          	or	a1,a1,t3
   12af4:	00bea023          	sw	a1,0(t4)
   12af8:	00188893          	addi	a7,a7,1
   12afc:	00460613          	addi	a2,a2,4
   12b00:	ea9ff06f          	j	129a8 <__subtf3+0x454>
   12b04:	02412983          	lw	s3,36(sp)
   12b08:	02812a03          	lw	s4,40(sp)
   12b0c:	02c12b83          	lw	s7,44(sp)
   12b10:	28080663          	beqz	a6,12d9c <__subtf3+0x848>
   12b14:	409c05b3          	sub	a1,s8,s1
   12b18:	0a049a63          	bnez	s1,12bcc <__subtf3+0x678>
   12b1c:	01412703          	lw	a4,20(sp)
   12b20:	01812783          	lw	a5,24(sp)
   12b24:	01c12503          	lw	a0,28(sp)
   12b28:	00f76633          	or	a2,a4,a5
   12b2c:	00a66633          	or	a2,a2,a0
   12b30:	01266633          	or	a2,a2,s2
   12b34:	00061e63          	bnez	a2,12b50 <__subtf3+0x5fc>
   12b38:	02812823          	sw	s0,48(sp)
   12b3c:	03312a23          	sw	s3,52(sp)
   12b40:	03412c23          	sw	s4,56(sp)
   12b44:	03712e23          	sw	s7,60(sp)
   12b48:	00058493          	mv	s1,a1
   12b4c:	c45ff06f          	j	12790 <__subtf3+0x23c>
   12b50:	fff58613          	addi	a2,a1,-1
   12b54:	04061863          	bnez	a2,12ba4 <__subtf3+0x650>
   12b58:	00890933          	add	s2,s2,s0
   12b5c:	01370733          	add	a4,a4,s3
   12b60:	00893433          	sltu	s0,s2,s0
   12b64:	03212823          	sw	s2,48(sp)
   12b68:	00870933          	add	s2,a4,s0
   12b6c:	00893433          	sltu	s0,s2,s0
   12b70:	01373733          	sltu	a4,a4,s3
   12b74:	008769b3          	or	s3,a4,s0
   12b78:	014787b3          	add	a5,a5,s4
   12b7c:	01378733          	add	a4,a5,s3
   12b80:	013739b3          	sltu	s3,a4,s3
   12b84:	0147b7b3          	sltu	a5,a5,s4
   12b88:	0137e7b3          	or	a5,a5,s3
   12b8c:	01750bb3          	add	s7,a0,s7
   12b90:	01778bb3          	add	s7,a5,s7
   12b94:	03212a23          	sw	s2,52(sp)
   12b98:	02e12c23          	sw	a4,56(sp)
   12b9c:	03712e23          	sw	s7,60(sp)
   12ba0:	ba5ff06f          	j	12744 <__subtf3+0x1f0>
   12ba4:	000087b7          	lui	a5,0x8
   12ba8:	fff78793          	addi	a5,a5,-1 # 7fff <__mcmp+0xb>
   12bac:	f8f586e3          	beq	a1,a5,12b38 <__subtf3+0x5e4>
   12bb0:	07400793          	li	a5,116
   12bb4:	04c7dc63          	bge	a5,a2,12c0c <__subtf3+0x6b8>
   12bb8:	00012e23          	sw	zero,28(sp)
   12bbc:	00012c23          	sw	zero,24(sp)
   12bc0:	00012a23          	sw	zero,20(sp)
   12bc4:	00100793          	li	a5,1
   12bc8:	1480006f          	j	12d10 <__subtf3+0x7bc>
   12bcc:	000087b7          	lui	a5,0x8
   12bd0:	fff78793          	addi	a5,a5,-1 # 7fff <__mcmp+0xb>
   12bd4:	00fc1e63          	bne	s8,a5,12bf0 <__subtf3+0x69c>
   12bd8:	02812823          	sw	s0,48(sp)
   12bdc:	03312a23          	sw	s3,52(sp)
   12be0:	03412c23          	sw	s4,56(sp)
   12be4:	03712e23          	sw	s7,60(sp)
   12be8:	000c0493          	mv	s1,s8
   12bec:	ba5ff06f          	j	12790 <__subtf3+0x23c>
   12bf0:	01c12783          	lw	a5,28(sp)
   12bf4:	00080737          	lui	a4,0x80
   12bf8:	00e7e7b3          	or	a5,a5,a4
   12bfc:	00f12e23          	sw	a5,28(sp)
   12c00:	07400793          	li	a5,116
   12c04:	fab7cae3          	blt	a5,a1,12bb8 <__subtf3+0x664>
   12c08:	00058613          	mv	a2,a1
   12c0c:	02000793          	li	a5,32
   12c10:	02f647b3          	div	a5,a2,a5
  FP_UNPACK_SEMIRAW_Q (A, a);
   12c14:	00068593          	mv	a1,a3
  FP_SUB_Q (R, A, B);
   12c18:	00000493          	li	s1,0
   12c1c:	00000713          	li	a4,0
   12c20:	04f74663          	blt	a4,a5,12c6c <__subtf3+0x718>
   12c24:	00078593          	mv	a1,a5
   12c28:	0007d463          	bgez	a5,12c30 <__subtf3+0x6dc>
   12c2c:	00000593          	li	a1,0
   12c30:	01f67513          	andi	a0,a2,31
   12c34:	00279713          	slli	a4,a5,0x2
   12c38:	04051463          	bnez	a0,12c80 <__subtf3+0x72c>
   12c3c:	00300593          	li	a1,3
   12c40:	00000613          	li	a2,0
   12c44:	40f585b3          	sub	a1,a1,a5
   12c48:	00e68533          	add	a0,a3,a4
   12c4c:	00052503          	lw	a0,0(a0)
   12c50:	00160613          	addi	a2,a2,1
   12c54:	00468693          	addi	a3,a3,4
   12c58:	fea6ae23          	sw	a0,-4(a3)
   12c5c:	fec5d6e3          	bge	a1,a2,12c48 <__subtf3+0x6f4>
   12c60:	00400513          	li	a0,4
   12c64:	40f507b3          	sub	a5,a0,a5
   12c68:	0780006f          	j	12ce0 <__subtf3+0x78c>
   12c6c:	0005a503          	lw	a0,0(a1)
   12c70:	00170713          	addi	a4,a4,1 # 80001 <//.+0x6a089>
   12c74:	00458593          	addi	a1,a1,4
   12c78:	00a4e4b3          	or	s1,s1,a0
   12c7c:	fa5ff06f          	j	12c20 <__subtf3+0x6cc>
   12c80:	02000513          	li	a0,32
   12c84:	02a66633          	rem	a2,a2,a0
   12c88:	ffc00313          	li	t1,-4
   12c8c:	04010693          	addi	a3,sp,64
   12c90:	00259593          	slli	a1,a1,0x2
   12c94:	00b685b3          	add	a1,a3,a1
   12c98:	fd05a683          	lw	a3,-48(a1)
   12c9c:	00000813          	li	a6,0
   12ca0:	02678333          	mul	t1,a5,t1
   12ca4:	40c50533          	sub	a0,a0,a2
   12ca8:	00a696b3          	sll	a3,a3,a0
   12cac:	00d4e4b3          	or	s1,s1,a3
   12cb0:	00e886b3          	add	a3,a7,a4
   12cb4:	00300713          	li	a4,3
   12cb8:	40f70733          	sub	a4,a4,a5
   12cbc:	0ae84c63          	blt	a6,a4,12d74 <__subtf3+0x820>
   12cc0:	04010693          	addi	a3,sp,64
   12cc4:	00271713          	slli	a4,a4,0x2
   12cc8:	00e68733          	add	a4,a3,a4
   12ccc:	01c12683          	lw	a3,28(sp)
   12cd0:	00400513          	li	a0,4
   12cd4:	40f507b3          	sub	a5,a0,a5
   12cd8:	00c6d633          	srl	a2,a3,a2
   12cdc:	fcc72823          	sw	a2,-48(a4)
   12ce0:	00400713          	li	a4,4
   12ce4:	00000613          	li	a2,0
   12ce8:	00f74663          	blt	a4,a5,12cf4 <__subtf3+0x7a0>
   12cec:	40f70733          	sub	a4,a4,a5
   12cf0:	00271613          	slli	a2,a4,0x2
   12cf4:	00279793          	slli	a5,a5,0x2
   12cf8:	00f88533          	add	a0,a7,a5
   12cfc:	00000593          	li	a1,0
   12d00:	fd4ed0ef          	jal	ra,4d4 <memset>
   12d04:	01012703          	lw	a4,16(sp)
   12d08:	009037b3          	snez	a5,s1
   12d0c:	00f767b3          	or	a5,a4,a5
   12d10:	00f12823          	sw	a5,16(sp)
   12d14:	01012783          	lw	a5,16(sp)
   12d18:	01412703          	lw	a4,20(sp)
  FP_UNPACK_SEMIRAW_Q (B, b);
   12d1c:	000c0493          	mv	s1,s8
  FP_SUB_Q (R, A, B);
   12d20:	00f407b3          	add	a5,s0,a5
   12d24:	00e98733          	add	a4,s3,a4
   12d28:	0087b433          	sltu	s0,a5,s0
   12d2c:	02f12823          	sw	a5,48(sp)
   12d30:	008707b3          	add	a5,a4,s0
   12d34:	0087b433          	sltu	s0,a5,s0
   12d38:	02f12a23          	sw	a5,52(sp)
   12d3c:	01812783          	lw	a5,24(sp)
   12d40:	013739b3          	sltu	s3,a4,s3
   12d44:	0089e9b3          	or	s3,s3,s0
   12d48:	00fa07b3          	add	a5,s4,a5
   12d4c:	01378733          	add	a4,a5,s3
   12d50:	0147b7b3          	sltu	a5,a5,s4
   12d54:	01c12a03          	lw	s4,28(sp)
   12d58:	013739b3          	sltu	s3,a4,s3
   12d5c:	0137e7b3          	or	a5,a5,s3
   12d60:	014b8bb3          	add	s7,s7,s4
   12d64:	01778bb3          	add	s7,a5,s7
   12d68:	02e12c23          	sw	a4,56(sp)
   12d6c:	03712e23          	sw	s7,60(sp)
   12d70:	ce1ff06f          	j	12a50 <__subtf3+0x4fc>
   12d74:	0006a583          	lw	a1,0(a3)
   12d78:	0046ae03          	lw	t3,4(a3)
   12d7c:	00668eb3          	add	t4,a3,t1
   12d80:	00c5d5b3          	srl	a1,a1,a2
   12d84:	00ae1e33          	sll	t3,t3,a0
   12d88:	01c5e5b3          	or	a1,a1,t3
   12d8c:	00bea023          	sw	a1,0(t4)
   12d90:	00180813          	addi	a6,a6,1
   12d94:	00468693          	addi	a3,a3,4
   12d98:	f25ff06f          	j	12cbc <__subtf3+0x768>
   12d9c:	000088b7          	lui	a7,0x8
   12da0:	00148813          	addi	a6,s1,1
   12da4:	ffe88693          	addi	a3,a7,-2 # 7ffe <__mcmp+0xa>
   12da8:	00d876b3          	and	a3,a6,a3
   12dac:	01412503          	lw	a0,20(sp)
   12db0:	01812583          	lw	a1,24(sp)
   12db4:	01c12603          	lw	a2,28(sp)
   12db8:	03010793          	addi	a5,sp,48
   12dbc:	03c10713          	addi	a4,sp,60
   12dc0:	14069463          	bnez	a3,12f08 <__subtf3+0x9b4>
   12dc4:	00b566b3          	or	a3,a0,a1
   12dc8:	00c6e6b3          	or	a3,a3,a2
   12dcc:	0126e6b3          	or	a3,a3,s2
   12dd0:	0a049663          	bnez	s1,12e7c <__subtf3+0x928>
   12dd4:	00069c63          	bnez	a3,12dec <__subtf3+0x898>
   12dd8:	02812823          	sw	s0,48(sp)
   12ddc:	03312a23          	sw	s3,52(sp)
   12de0:	03412c23          	sw	s4,56(sp)
   12de4:	03712e23          	sw	s7,60(sp)
   12de8:	9a9ff06f          	j	12790 <__subtf3+0x23c>
   12dec:	0149e7b3          	or	a5,s3,s4
   12df0:	0177e7b3          	or	a5,a5,s7
   12df4:	0087e7b3          	or	a5,a5,s0
   12df8:	00079c63          	bnez	a5,12e10 <__subtf3+0x8bc>
   12dfc:	03212823          	sw	s2,48(sp)
   12e00:	02a12a23          	sw	a0,52(sp)
   12e04:	02b12c23          	sw	a1,56(sp)
   12e08:	02c12e23          	sw	a2,60(sp)
   12e0c:	985ff06f          	j	12790 <__subtf3+0x23c>
   12e10:	00890433          	add	s0,s2,s0
   12e14:	013507b3          	add	a5,a0,s3
   12e18:	01243933          	sltu	s2,s0,s2
   12e1c:	02812823          	sw	s0,48(sp)
   12e20:	01278433          	add	s0,a5,s2
   12e24:	00a7b9b3          	sltu	s3,a5,a0
   12e28:	01243933          	sltu	s2,s0,s2
   12e2c:	0129e933          	or	s2,s3,s2
   12e30:	01458a33          	add	s4,a1,s4
   12e34:	012a09b3          	add	s3,s4,s2
   12e38:	0129b933          	sltu	s2,s3,s2
   12e3c:	00ba3a33          	sltu	s4,s4,a1
   12e40:	012a6a33          	or	s4,s4,s2
   12e44:	01760bb3          	add	s7,a2,s7
   12e48:	017a0a33          	add	s4,s4,s7
   12e4c:	02812a23          	sw	s0,52(sp)
   12e50:	03312c23          	sw	s3,56(sp)
   12e54:	00ca1793          	slli	a5,s4,0xc
   12e58:	0007c663          	bltz	a5,12e64 <__subtf3+0x910>
   12e5c:	03412e23          	sw	s4,60(sp)
   12e60:	931ff06f          	j	12790 <__subtf3+0x23c>
   12e64:	fff807b7          	lui	a5,0xfff80
   12e68:	fff78793          	addi	a5,a5,-1 # fff7ffff <//.+0xfff6a087>
   12e6c:	00fa7a33          	and	s4,s4,a5
   12e70:	03412e23          	sw	s4,60(sp)
   12e74:	00100493          	li	s1,1
   12e78:	919ff06f          	j	12790 <__subtf3+0x23c>
   12e7c:	00069e63          	bnez	a3,12e98 <__subtf3+0x944>
   12e80:	02812823          	sw	s0,48(sp)
   12e84:	03312a23          	sw	s3,52(sp)
   12e88:	03412c23          	sw	s4,56(sp)
   12e8c:	03712e23          	sw	s7,60(sp)
   12e90:	fff88493          	addi	s1,a7,-1
   12e94:	8fdff06f          	j	12790 <__subtf3+0x23c>
   12e98:	0149e9b3          	or	s3,s3,s4
   12e9c:	0179ebb3          	or	s7,s3,s7
   12ea0:	008be433          	or	s0,s7,s0
   12ea4:	00041c63          	bnez	s0,12ebc <__subtf3+0x968>
   12ea8:	03212823          	sw	s2,48(sp)
   12eac:	02a12a23          	sw	a0,52(sp)
   12eb0:	02b12c23          	sw	a1,56(sp)
   12eb4:	02c12e23          	sw	a2,60(sp)
   12eb8:	fd9ff06f          	j	12e90 <__subtf3+0x93c>
   12ebc:	03112e23          	sw	a7,60(sp)
   12ec0:	02012c23          	sw	zero,56(sp)
   12ec4:	02012a23          	sw	zero,52(sp)
   12ec8:	02012823          	sw	zero,48(sp)
   12ecc:	00072683          	lw	a3,0(a4)
   12ed0:	ffc72603          	lw	a2,-4(a4)
   12ed4:	ffc70713          	addi	a4,a4,-4
   12ed8:	00369693          	slli	a3,a3,0x3
   12edc:	01d65613          	srli	a2,a2,0x1d
   12ee0:	00c6e6b3          	or	a3,a3,a2
   12ee4:	00d72223          	sw	a3,4(a4)
   12ee8:	fee792e3          	bne	a5,a4,12ecc <__subtf3+0x978>
   12eec:	03012783          	lw	a5,48(sp)
   12ef0:	000084b7          	lui	s1,0x8
   12ef4:	00000a93          	li	s5,0
   12ef8:	00379793          	slli	a5,a5,0x3
   12efc:	02f12823          	sw	a5,48(sp)
   12f00:	fff48493          	addi	s1,s1,-1 # 7fff <__mcmp+0xb>
   12f04:	88dff06f          	j	12790 <__subtf3+0x23c>
   12f08:	00890433          	add	s0,s2,s0
   12f0c:	01243933          	sltu	s2,s0,s2
   12f10:	013509b3          	add	s3,a0,s3
   12f14:	02812823          	sw	s0,48(sp)
   12f18:	01298433          	add	s0,s3,s2
   12f1c:	01243933          	sltu	s2,s0,s2
   12f20:	00a9b9b3          	sltu	s3,s3,a0
   12f24:	0129e933          	or	s2,s3,s2
   12f28:	014589b3          	add	s3,a1,s4
   12f2c:	012986b3          	add	a3,s3,s2
   12f30:	00b9ba33          	sltu	s4,s3,a1
   12f34:	0126b9b3          	sltu	s3,a3,s2
   12f38:	013a69b3          	or	s3,s4,s3
   12f3c:	01760bb3          	add	s7,a2,s7
   12f40:	01798bb3          	add	s7,s3,s7
   12f44:	02812a23          	sw	s0,52(sp)
   12f48:	02d12c23          	sw	a3,56(sp)
   12f4c:	03712e23          	sw	s7,60(sp)
   12f50:	0007a683          	lw	a3,0(a5)
   12f54:	0047a603          	lw	a2,4(a5)
   12f58:	00478793          	addi	a5,a5,4
   12f5c:	0016d693          	srli	a3,a3,0x1
   12f60:	01f61613          	slli	a2,a2,0x1f
   12f64:	00c6e6b3          	or	a3,a3,a2
   12f68:	fed7ae23          	sw	a3,-4(a5)
   12f6c:	fef712e3          	bne	a4,a5,12f50 <__subtf3+0x9fc>
   12f70:	000087b7          	lui	a5,0x8
   12f74:	fff78793          	addi	a5,a5,-1 # 7fff <__mcmp+0xb>
   12f78:	00f80a63          	beq	a6,a5,12f8c <__subtf3+0xa38>
   12f7c:	03c12783          	lw	a5,60(sp)
   12f80:	0017d793          	srli	a5,a5,0x1
   12f84:	02f12e23          	sw	a5,60(sp)
   12f88:	f64ff06f          	j	126ec <__subtf3+0x198>
   12f8c:	02012e23          	sw	zero,60(sp)
   12f90:	02012c23          	sw	zero,56(sp)
   12f94:	02012a23          	sw	zero,52(sp)
   12f98:	02012823          	sw	zero,48(sp)
   12f9c:	f50ff06f          	j	126ec <__subtf3+0x198>
   12fa0:	2b005463          	blez	a6,13248 <__subtf3+0xcf4>
   12fa4:	01412983          	lw	s3,20(sp)
   12fa8:	01812a03          	lw	s4,24(sp)
   12fac:	01c12b83          	lw	s7,28(sp)
   12fb0:	0c0c1463          	bnez	s8,13078 <__subtf3+0xb24>
   12fb4:	02412883          	lw	a7,36(sp)
   12fb8:	02812683          	lw	a3,40(sp)
   12fbc:	02c12783          	lw	a5,44(sp)
   12fc0:	00d8e733          	or	a4,a7,a3
   12fc4:	00f76733          	or	a4,a4,a5
   12fc8:	00876733          	or	a4,a4,s0
   12fcc:	00071c63          	bnez	a4,12fe4 <__subtf3+0xa90>
   12fd0:	03212823          	sw	s2,48(sp)
   12fd4:	03312a23          	sw	s3,52(sp)
   12fd8:	03412c23          	sw	s4,56(sp)
   12fdc:	03712e23          	sw	s7,60(sp)
   12fe0:	f0cff06f          	j	126ec <__subtf3+0x198>
   12fe4:	fff80713          	addi	a4,a6,-1
   12fe8:	06071463          	bnez	a4,13050 <__subtf3+0xafc>
   12fec:	40890433          	sub	s0,s2,s0
   12ff0:	41198633          	sub	a2,s3,a7
   12ff4:	008935b3          	sltu	a1,s2,s0
   12ff8:	00c9b533          	sltu	a0,s3,a2
   12ffc:	40b605b3          	sub	a1,a2,a1
   13000:	00000613          	li	a2,0
   13004:	00897663          	bgeu	s2,s0,13010 <__subtf3+0xabc>
   13008:	413889b3          	sub	s3,a7,s3
   1300c:	0019b613          	seqz	a2,s3
   13010:	00a669b3          	or	s3,a2,a0
   13014:	40da0633          	sub	a2,s4,a3
   13018:	00ca3533          	sltu	a0,s4,a2
   1301c:	41360633          	sub	a2,a2,s3
   13020:	00098663          	beqz	s3,1302c <__subtf3+0xad8>
   13024:	41468733          	sub	a4,a3,s4
   13028:	00173713          	seqz	a4,a4
   1302c:	40fb87b3          	sub	a5,s7,a5
   13030:	00a76733          	or	a4,a4,a0
   13034:	40e787b3          	sub	a5,a5,a4
   13038:	02f12e23          	sw	a5,60(sp)
   1303c:	02c12c23          	sw	a2,56(sp)
   13040:	02b12a23          	sw	a1,52(sp)
   13044:	02812823          	sw	s0,48(sp)
  FP_UNPACK_SEMIRAW_Q (B, b);
   13048:	00100493          	li	s1,1
  FP_SUB_Q (R, A, B);
   1304c:	1b40006f          	j	13200 <__subtf3+0xcac>
   13050:	000087b7          	lui	a5,0x8
   13054:	fff78793          	addi	a5,a5,-1 # 7fff <__mcmp+0xb>
   13058:	f6f80ce3          	beq	a6,a5,12fd0 <__subtf3+0xa7c>
   1305c:	07400793          	li	a5,116
   13060:	04e7d463          	bge	a5,a4,130a8 <__subtf3+0xb54>
   13064:	02012623          	sw	zero,44(sp)
   13068:	02012423          	sw	zero,40(sp)
   1306c:	02012223          	sw	zero,36(sp)
   13070:	00100793          	li	a5,1
   13074:	1180006f          	j	1318c <__subtf3+0xc38>
   13078:	000087b7          	lui	a5,0x8
   1307c:	fff78793          	addi	a5,a5,-1 # 7fff <__mcmp+0xb>
   13080:	00f49663          	bne	s1,a5,1308c <__subtf3+0xb38>
   13084:	03212823          	sw	s2,48(sp)
   13088:	d55ff06f          	j	12ddc <__subtf3+0x888>
   1308c:	02c12783          	lw	a5,44(sp)
   13090:	00080737          	lui	a4,0x80
   13094:	00e7e7b3          	or	a5,a5,a4
   13098:	02f12623          	sw	a5,44(sp)
   1309c:	07400793          	li	a5,116
   130a0:	fd07c2e3          	blt	a5,a6,13064 <__subtf3+0xb10>
   130a4:	00080713          	mv	a4,a6
   130a8:	40575793          	srai	a5,a4,0x5
  FP_UNPACK_SEMIRAW_Q (B, b);
   130ac:	00058613          	mv	a2,a1
  FP_SUB_Q (R, A, B);
   130b0:	00000413          	li	s0,0
   130b4:	00000693          	li	a3,0
   130b8:	04f69063          	bne	a3,a5,130f8 <__subtf3+0xba4>
   130bc:	01f77613          	andi	a2,a4,31
   130c0:	00279713          	slli	a4,a5,0x2
   130c4:	04061463          	bnez	a2,1310c <__subtf3+0xbb8>
   130c8:	00300613          	li	a2,3
   130cc:	00000693          	li	a3,0
   130d0:	40f60633          	sub	a2,a2,a5
   130d4:	00e58833          	add	a6,a1,a4
   130d8:	00082803          	lw	a6,0(a6)
   130dc:	00168693          	addi	a3,a3,1
   130e0:	00458593          	addi	a1,a1,4
   130e4:	ff05ae23          	sw	a6,-4(a1)
   130e8:	fed656e3          	bge	a2,a3,130d4 <__subtf3+0xb80>
   130ec:	00400713          	li	a4,4
   130f0:	40f707b3          	sub	a5,a4,a5
   130f4:	0700006f          	j	13164 <__subtf3+0xc10>
   130f8:	00062803          	lw	a6,0(a2)
   130fc:	00168693          	addi	a3,a3,1
   13100:	00460613          	addi	a2,a2,4
   13104:	01046433          	or	s0,s0,a6
   13108:	fb1ff06f          	j	130b8 <__subtf3+0xb64>
   1310c:	ffc00313          	li	t1,-4
   13110:	02678333          	mul	t1,a5,t1
   13114:	04010693          	addi	a3,sp,64
   13118:	00e686b3          	add	a3,a3,a4
   1311c:	fe06a683          	lw	a3,-32(a3)
   13120:	02000813          	li	a6,32
   13124:	40c80833          	sub	a6,a6,a2
   13128:	010696b3          	sll	a3,a3,a6
   1312c:	00d46433          	or	s0,s0,a3
   13130:	00300693          	li	a3,3
   13134:	00e50733          	add	a4,a0,a4
   13138:	00000893          	li	a7,0
   1313c:	40f686b3          	sub	a3,a3,a5
   13140:	0ed8c063          	blt	a7,a3,13220 <__subtf3+0xccc>
   13144:	00400713          	li	a4,4
   13148:	40f707b3          	sub	a5,a4,a5
   1314c:	00269693          	slli	a3,a3,0x2
   13150:	04010713          	addi	a4,sp,64
   13154:	00d706b3          	add	a3,a4,a3
   13158:	02c12703          	lw	a4,44(sp)
   1315c:	00c75733          	srl	a4,a4,a2
   13160:	fee6a023          	sw	a4,-32(a3)
   13164:	00400613          	li	a2,4
   13168:	40f60633          	sub	a2,a2,a5
   1316c:	00279793          	slli	a5,a5,0x2
   13170:	00f50533          	add	a0,a0,a5
   13174:	00261613          	slli	a2,a2,0x2
   13178:	00000593          	li	a1,0
   1317c:	b58ed0ef          	jal	ra,4d4 <memset>
   13180:	02012703          	lw	a4,32(sp)
   13184:	008037b3          	snez	a5,s0
   13188:	00f767b3          	or	a5,a4,a5
   1318c:	02f12023          	sw	a5,32(sp)
   13190:	02012683          	lw	a3,32(sp)
   13194:	02412603          	lw	a2,36(sp)
   13198:	40d906b3          	sub	a3,s2,a3
   1319c:	40c98733          	sub	a4,s3,a2
   131a0:	00d937b3          	sltu	a5,s2,a3
   131a4:	00e9b5b3          	sltu	a1,s3,a4
   131a8:	40f70733          	sub	a4,a4,a5
   131ac:	00000793          	li	a5,0
   131b0:	00d97663          	bgeu	s2,a3,131bc <__subtf3+0xc68>
   131b4:	413609b3          	sub	s3,a2,s3
   131b8:	0019b793          	seqz	a5,s3
   131bc:	02812503          	lw	a0,40(sp)
   131c0:	00b7e9b3          	or	s3,a5,a1
   131c4:	00000593          	li	a1,0
   131c8:	40aa0633          	sub	a2,s4,a0
   131cc:	00ca3833          	sltu	a6,s4,a2
   131d0:	41360633          	sub	a2,a2,s3
   131d4:	00098663          	beqz	s3,131e0 <__subtf3+0xc8c>
   131d8:	41450a33          	sub	s4,a0,s4
   131dc:	001a3593          	seqz	a1,s4
   131e0:	02c12783          	lw	a5,44(sp)
   131e4:	0105e5b3          	or	a1,a1,a6
   131e8:	02c12c23          	sw	a2,56(sp)
   131ec:	40fb87b3          	sub	a5,s7,a5
   131f0:	40b787b3          	sub	a5,a5,a1
   131f4:	02f12e23          	sw	a5,60(sp)
   131f8:	02e12a23          	sw	a4,52(sp)
   131fc:	02d12823          	sw	a3,48(sp)
   13200:	03c12783          	lw	a5,60(sp)
   13204:	00c79713          	slli	a4,a5,0xc
   13208:	d8075463          	bgez	a4,12790 <__subtf3+0x23c>
   1320c:	00080737          	lui	a4,0x80
   13210:	fff70713          	addi	a4,a4,-1 # 7ffff <//.+0x6a087>
   13214:	00e7f7b3          	and	a5,a5,a4
   13218:	02f12e23          	sw	a5,60(sp)
   1321c:	5b00006f          	j	137cc <__subtf3+0x1278>
   13220:	00072583          	lw	a1,0(a4)
   13224:	00472e03          	lw	t3,4(a4)
   13228:	00670eb3          	add	t4,a4,t1
   1322c:	00c5d5b3          	srl	a1,a1,a2
   13230:	010e1e33          	sll	t3,t3,a6
   13234:	01c5e5b3          	or	a1,a1,t3
   13238:	00bea023          	sw	a1,0(t4)
   1323c:	00188893          	addi	a7,a7,1
   13240:	00470713          	addi	a4,a4,4
   13244:	efdff06f          	j	13140 <__subtf3+0xbec>
   13248:	02412983          	lw	s3,36(sp)
   1324c:	02812a03          	lw	s4,40(sp)
   13250:	02c12c83          	lw	s9,44(sp)
   13254:	2c080463          	beqz	a6,1351c <__subtf3+0xfc8>
   13258:	409c05b3          	sub	a1,s8,s1
   1325c:	0c049263          	bnez	s1,13320 <__subtf3+0xdcc>
   13260:	01412503          	lw	a0,20(sp)
   13264:	01812703          	lw	a4,24(sp)
   13268:	01c12603          	lw	a2,28(sp)
   1326c:	00e567b3          	or	a5,a0,a4
   13270:	00c7e7b3          	or	a5,a5,a2
   13274:	0127e7b3          	or	a5,a5,s2
   13278:	02079063          	bnez	a5,13298 <__subtf3+0xd44>
   1327c:	02812823          	sw	s0,48(sp)
   13280:	03312a23          	sw	s3,52(sp)
   13284:	03412c23          	sw	s4,56(sp)
   13288:	03912e23          	sw	s9,60(sp)
   1328c:	00058493          	mv	s1,a1
   13290:	000b8a93          	mv	s5,s7
   13294:	cfcff06f          	j	12790 <__subtf3+0x23c>
   13298:	fff58793          	addi	a5,a1,-1
   1329c:	06079463          	bnez	a5,13304 <__subtf3+0xdb0>
   132a0:	41240933          	sub	s2,s0,s2
   132a4:	40a986b3          	sub	a3,s3,a0
   132a8:	012435b3          	sltu	a1,s0,s2
   132ac:	00d9b833          	sltu	a6,s3,a3
   132b0:	40b685b3          	sub	a1,a3,a1
   132b4:	00000693          	li	a3,0
   132b8:	01247663          	bgeu	s0,s2,132c4 <__subtf3+0xd70>
   132bc:	413509b3          	sub	s3,a0,s3
   132c0:	0019b693          	seqz	a3,s3
   132c4:	0106e9b3          	or	s3,a3,a6
   132c8:	40ea06b3          	sub	a3,s4,a4
   132cc:	00da3533          	sltu	a0,s4,a3
   132d0:	413686b3          	sub	a3,a3,s3
   132d4:	00098663          	beqz	s3,132e0 <__subtf3+0xd8c>
   132d8:	41470a33          	sub	s4,a4,s4
   132dc:	001a3793          	seqz	a5,s4
   132e0:	40cc8633          	sub	a2,s9,a2
   132e4:	00a7ecb3          	or	s9,a5,a0
   132e8:	41960cb3          	sub	s9,a2,s9
   132ec:	03912e23          	sw	s9,60(sp)
   132f0:	02d12c23          	sw	a3,56(sp)
   132f4:	02b12a23          	sw	a1,52(sp)
   132f8:	03212823          	sw	s2,48(sp)
   132fc:	000b8a93          	mv	s5,s7
   13300:	d49ff06f          	j	13048 <__subtf3+0xaf4>
   13304:	00008737          	lui	a4,0x8
   13308:	fff70713          	addi	a4,a4,-1 # 7fff <__mcmp+0xb>
   1330c:	f6e588e3          	beq	a1,a4,1327c <__subtf3+0xd28>
   13310:	07400713          	li	a4,116
   13314:	1ef74a63          	blt	a4,a5,13508 <__subtf3+0xfb4>
   13318:	00078593          	mv	a1,a5
   1331c:	0400006f          	j	1335c <__subtf3+0xe08>
   13320:	000087b7          	lui	a5,0x8
   13324:	fff78793          	addi	a5,a5,-1 # 7fff <__mcmp+0xb>
   13328:	00fc1e63          	bne	s8,a5,13344 <__subtf3+0xdf0>
   1332c:	02812823          	sw	s0,48(sp)
   13330:	03312a23          	sw	s3,52(sp)
   13334:	03412c23          	sw	s4,56(sp)
   13338:	03912e23          	sw	s9,60(sp)
   1333c:	000c0493          	mv	s1,s8
   13340:	f51ff06f          	j	13290 <__subtf3+0xd3c>
   13344:	01c12783          	lw	a5,28(sp)
   13348:	00080737          	lui	a4,0x80
   1334c:	00e7e7b3          	or	a5,a5,a4
   13350:	00f12e23          	sw	a5,28(sp)
   13354:	07400793          	li	a5,116
   13358:	1ab7c863          	blt	a5,a1,13508 <__subtf3+0xfb4>
   1335c:	02000713          	li	a4,32
   13360:	02e5c733          	div	a4,a1,a4
  FP_UNPACK_SEMIRAW_Q (A, a);
   13364:	00068613          	mv	a2,a3
  FP_SUB_Q (R, A, B);
   13368:	00000493          	li	s1,0
   1336c:	00000793          	li	a5,0
   13370:	04e7c663          	blt	a5,a4,133bc <__subtf3+0xe68>
   13374:	00070613          	mv	a2,a4
   13378:	00075463          	bgez	a4,13380 <__subtf3+0xe2c>
   1337c:	00000613          	li	a2,0
   13380:	01f5f513          	andi	a0,a1,31
   13384:	00271793          	slli	a5,a4,0x2
   13388:	04051463          	bnez	a0,133d0 <__subtf3+0xe7c>
   1338c:	00300593          	li	a1,3
   13390:	00000613          	li	a2,0
   13394:	40e585b3          	sub	a1,a1,a4
   13398:	00f68533          	add	a0,a3,a5
   1339c:	00052503          	lw	a0,0(a0)
   133a0:	00160613          	addi	a2,a2,1
   133a4:	00468693          	addi	a3,a3,4
   133a8:	fea6ae23          	sw	a0,-4(a3)
   133ac:	fec5d6e3          	bge	a1,a2,13398 <__subtf3+0xe44>
   133b0:	00400513          	li	a0,4
   133b4:	40e50733          	sub	a4,a0,a4
   133b8:	0780006f          	j	13430 <__subtf3+0xedc>
   133bc:	00062503          	lw	a0,0(a2)
   133c0:	00178793          	addi	a5,a5,1
   133c4:	00460613          	addi	a2,a2,4
   133c8:	00a4e4b3          	or	s1,s1,a0
   133cc:	fa5ff06f          	j	13370 <__subtf3+0xe1c>
   133d0:	02000513          	li	a0,32
   133d4:	02a5e5b3          	rem	a1,a1,a0
   133d8:	ffc00313          	li	t1,-4
   133dc:	04010693          	addi	a3,sp,64
   133e0:	00261613          	slli	a2,a2,0x2
   133e4:	00c68633          	add	a2,a3,a2
   133e8:	fd062683          	lw	a3,-48(a2)
   133ec:	00000813          	li	a6,0
   133f0:	02670333          	mul	t1,a4,t1
   133f4:	40b50533          	sub	a0,a0,a1
   133f8:	00a696b3          	sll	a3,a3,a0
   133fc:	00d4e4b3          	or	s1,s1,a3
   13400:	00f886b3          	add	a3,a7,a5
   13404:	00300793          	li	a5,3
   13408:	40e787b3          	sub	a5,a5,a4
   1340c:	0cf84a63          	blt	a6,a5,134e0 <__subtf3+0xf8c>
   13410:	04010693          	addi	a3,sp,64
   13414:	00279793          	slli	a5,a5,0x2
   13418:	00f687b3          	add	a5,a3,a5
   1341c:	01c12683          	lw	a3,28(sp)
   13420:	00400513          	li	a0,4
   13424:	40e50733          	sub	a4,a0,a4
   13428:	00b6d5b3          	srl	a1,a3,a1
   1342c:	fcb7a823          	sw	a1,-48(a5)
   13430:	00400793          	li	a5,4
   13434:	00000613          	li	a2,0
   13438:	00e7c663          	blt	a5,a4,13444 <__subtf3+0xef0>
   1343c:	40e787b3          	sub	a5,a5,a4
   13440:	00279613          	slli	a2,a5,0x2
   13444:	00271713          	slli	a4,a4,0x2
   13448:	00e88533          	add	a0,a7,a4
   1344c:	00000593          	li	a1,0
   13450:	884ed0ef          	jal	ra,4d4 <memset>
   13454:	01012703          	lw	a4,16(sp)
   13458:	009037b3          	snez	a5,s1
   1345c:	00f767b3          	or	a5,a4,a5
   13460:	00f12823          	sw	a5,16(sp)
   13464:	01012703          	lw	a4,16(sp)
   13468:	01412603          	lw	a2,20(sp)
   1346c:	40e40733          	sub	a4,s0,a4
   13470:	40c986b3          	sub	a3,s3,a2
   13474:	00e437b3          	sltu	a5,s0,a4
   13478:	00d9b5b3          	sltu	a1,s3,a3
   1347c:	40f686b3          	sub	a3,a3,a5
   13480:	00000793          	li	a5,0
   13484:	00e47663          	bgeu	s0,a4,13490 <__subtf3+0xf3c>
   13488:	413609b3          	sub	s3,a2,s3
   1348c:	0019b793          	seqz	a5,s3
   13490:	01812503          	lw	a0,24(sp)
   13494:	00b7e9b3          	or	s3,a5,a1
   13498:	00000793          	li	a5,0
   1349c:	40aa0633          	sub	a2,s4,a0
   134a0:	00ca3833          	sltu	a6,s4,a2
   134a4:	413605b3          	sub	a1,a2,s3
   134a8:	00098663          	beqz	s3,134b4 <__subtf3+0xf60>
   134ac:	41450a33          	sub	s4,a0,s4
   134b0:	001a3793          	seqz	a5,s4
   134b4:	01c12603          	lw	a2,28(sp)
   134b8:	02b12c23          	sw	a1,56(sp)
   134bc:	02d12a23          	sw	a3,52(sp)
   134c0:	40cc8633          	sub	a2,s9,a2
   134c4:	0107ecb3          	or	s9,a5,a6
   134c8:	41960cb3          	sub	s9,a2,s9
   134cc:	03912e23          	sw	s9,60(sp)
   134d0:	02e12823          	sw	a4,48(sp)
  FP_UNPACK_SEMIRAW_Q (B, b);
   134d4:	000c0493          	mv	s1,s8
   134d8:	000b8a93          	mv	s5,s7
   134dc:	d25ff06f          	j	13200 <__subtf3+0xcac>
  FP_SUB_Q (R, A, B);
   134e0:	0006a603          	lw	a2,0(a3)
   134e4:	0046ae03          	lw	t3,4(a3)
   134e8:	00668eb3          	add	t4,a3,t1
   134ec:	00b65633          	srl	a2,a2,a1
   134f0:	00ae1e33          	sll	t3,t3,a0
   134f4:	01c66633          	or	a2,a2,t3
   134f8:	00cea023          	sw	a2,0(t4)
   134fc:	00180813          	addi	a6,a6,1
   13500:	00468693          	addi	a3,a3,4
   13504:	f09ff06f          	j	1340c <__subtf3+0xeb8>
   13508:	00012e23          	sw	zero,28(sp)
   1350c:	00012c23          	sw	zero,24(sp)
   13510:	00012a23          	sw	zero,20(sp)
   13514:	00100793          	li	a5,1
   13518:	f49ff06f          	j	13460 <__subtf3+0xf0c>
   1351c:	00008537          	lui	a0,0x8
   13520:	ffe50713          	addi	a4,a0,-2 # 7ffe <__mcmp+0xa>
   13524:	00148793          	addi	a5,s1,1
   13528:	00e7f7b3          	and	a5,a5,a4
   1352c:	01812683          	lw	a3,24(sp)
   13530:	01412703          	lw	a4,20(sp)
   13534:	01c12603          	lw	a2,28(sp)
   13538:	1c079e63          	bnez	a5,13714 <__subtf3+0x11c0>
   1353c:	0149e7b3          	or	a5,s3,s4
   13540:	00d765b3          	or	a1,a4,a3
   13544:	0197e7b3          	or	a5,a5,s9
   13548:	00c5e5b3          	or	a1,a1,a2
   1354c:	0087e7b3          	or	a5,a5,s0
   13550:	0125e5b3          	or	a1,a1,s2
   13554:	10049863          	bnez	s1,13664 <__subtf3+0x1110>
   13558:	02059463          	bnez	a1,13580 <__subtf3+0x102c>
   1355c:	02812823          	sw	s0,48(sp)
   13560:	03312a23          	sw	s3,52(sp)
   13564:	03412c23          	sw	s4,56(sp)
   13568:	03912e23          	sw	s9,60(sp)
   1356c:	000b8a93          	mv	s5,s7
   13570:	a2079063          	bnez	a5,12790 <__subtf3+0x23c>
   13574:	00000493          	li	s1,0
   13578:	00000a93          	li	s5,0
   1357c:	a14ff06f          	j	12790 <__subtf3+0x23c>
   13580:	00079a63          	bnez	a5,13594 <__subtf3+0x1040>
   13584:	03212823          	sw	s2,48(sp)
   13588:	02e12a23          	sw	a4,52(sp)
   1358c:	02d12c23          	sw	a3,56(sp)
   13590:	879ff06f          	j	12e08 <__subtf3+0x8b4>
   13594:	408905b3          	sub	a1,s2,s0
   13598:	41370333          	sub	t1,a4,s3
   1359c:	00b93833          	sltu	a6,s2,a1
   135a0:	006737b3          	sltu	a5,a4,t1
   135a4:	41030833          	sub	a6,t1,a6
   135a8:	00000513          	li	a0,0
   135ac:	00b97463          	bgeu	s2,a1,135b4 <__subtf3+0x1060>
   135b0:	00133513          	seqz	a0,t1
   135b4:	414688b3          	sub	a7,a3,s4
   135b8:	00f56533          	or	a0,a0,a5
   135bc:	0116bf33          	sltu	t5,a3,a7
   135c0:	40a88eb3          	sub	t4,a7,a0
   135c4:	00000e13          	li	t3,0
   135c8:	00050463          	beqz	a0,135d0 <__subtf3+0x107c>
   135cc:	0018be13          	seqz	t3,a7
   135d0:	419607b3          	sub	a5,a2,s9
   135d4:	01ee6e33          	or	t3,t3,t5
   135d8:	41c787b3          	sub	a5,a5,t3
   135dc:	02f12e23          	sw	a5,60(sp)
   135e0:	03d12c23          	sw	t4,56(sp)
   135e4:	03012a23          	sw	a6,52(sp)
   135e8:	02b12823          	sw	a1,48(sp)
   135ec:	00c79513          	slli	a0,a5,0xc
   135f0:	06055063          	bgez	a0,13650 <__subtf3+0x10fc>
   135f4:	41240933          	sub	s2,s0,s2
   135f8:	40e98733          	sub	a4,s3,a4
   135fc:	012437b3          	sltu	a5,s0,s2
   13600:	00e9b9b3          	sltu	s3,s3,a4
   13604:	40f70733          	sub	a4,a4,a5
   13608:	00000793          	li	a5,0
   1360c:	01247463          	bgeu	s0,s2,13614 <__subtf3+0x10c0>
   13610:	00133793          	seqz	a5,t1
   13614:	40da06b3          	sub	a3,s4,a3
   13618:	0137e9b3          	or	s3,a5,s3
   1361c:	00da3a33          	sltu	s4,s4,a3
   13620:	00000593          	li	a1,0
   13624:	413686b3          	sub	a3,a3,s3
   13628:	00098463          	beqz	s3,13630 <__subtf3+0x10dc>
   1362c:	0018b593          	seqz	a1,a7
   13630:	40cc8633          	sub	a2,s9,a2
   13634:	0145e5b3          	or	a1,a1,s4
   13638:	40b605b3          	sub	a1,a2,a1
   1363c:	02b12e23          	sw	a1,60(sp)
   13640:	02d12c23          	sw	a3,56(sp)
   13644:	02e12a23          	sw	a4,52(sp)
   13648:	03212823          	sw	s2,48(sp)
   1364c:	c45ff06f          	j	13290 <__subtf3+0xd3c>
   13650:	0105e5b3          	or	a1,a1,a6
   13654:	01d5e5b3          	or	a1,a1,t4
   13658:	00f5e5b3          	or	a1,a1,a5
   1365c:	f0058ce3          	beqz	a1,13574 <__subtf3+0x1020>
   13660:	930ff06f          	j	12790 <__subtf3+0x23c>
   13664:	03010813          	addi	a6,sp,48
   13668:	04059e63          	bnez	a1,136c4 <__subtf3+0x1170>
   1366c:	02079e63          	bnez	a5,136a8 <__subtf3+0x1154>
   13670:	02a12e23          	sw	a0,60(sp)
   13674:	02012c23          	sw	zero,56(sp)
   13678:	02012a23          	sw	zero,52(sp)
   1367c:	02012823          	sw	zero,48(sp)
   13680:	03c10793          	addi	a5,sp,60
   13684:	0007a703          	lw	a4,0(a5)
   13688:	ffc7a683          	lw	a3,-4(a5)
   1368c:	ffc78793          	addi	a5,a5,-4
   13690:	00371713          	slli	a4,a4,0x3
   13694:	01d6d693          	srli	a3,a3,0x1d
   13698:	00d76733          	or	a4,a4,a3
   1369c:	00e7a223          	sw	a4,4(a5)
   136a0:	fef812e3          	bne	a6,a5,13684 <__subtf3+0x1130>
   136a4:	849ff06f          	j	12eec <__subtf3+0x998>
   136a8:	02812823          	sw	s0,48(sp)
   136ac:	03312a23          	sw	s3,52(sp)
   136b0:	03412c23          	sw	s4,56(sp)
   136b4:	03912e23          	sw	s9,60(sp)
   136b8:	000b8a93          	mv	s5,s7
   136bc:	fff50493          	addi	s1,a0,-1
   136c0:	8d0ff06f          	j	12790 <__subtf3+0x23c>
   136c4:	00079c63          	bnez	a5,136dc <__subtf3+0x1188>
   136c8:	03212823          	sw	s2,48(sp)
   136cc:	02e12a23          	sw	a4,52(sp)
   136d0:	02d12c23          	sw	a3,56(sp)
   136d4:	02c12e23          	sw	a2,60(sp)
   136d8:	fe5ff06f          	j	136bc <__subtf3+0x1168>
   136dc:	02a12e23          	sw	a0,60(sp)
   136e0:	02012c23          	sw	zero,56(sp)
   136e4:	02012a23          	sw	zero,52(sp)
   136e8:	02012823          	sw	zero,48(sp)
   136ec:	03c10793          	addi	a5,sp,60
   136f0:	0007a703          	lw	a4,0(a5)
   136f4:	ffc7a683          	lw	a3,-4(a5)
   136f8:	ffc78793          	addi	a5,a5,-4
   136fc:	00371713          	slli	a4,a4,0x3
   13700:	01d6d693          	srli	a3,a3,0x1d
   13704:	00d76733          	or	a4,a4,a3
   13708:	00e7a223          	sw	a4,4(a5)
   1370c:	fef812e3          	bne	a6,a5,136f0 <__subtf3+0x119c>
   13710:	fdcff06f          	j	12eec <__subtf3+0x998>
   13714:	408905b3          	sub	a1,s2,s0
   13718:	41370e33          	sub	t3,a4,s3
   1371c:	00b938b3          	sltu	a7,s2,a1
   13720:	01c737b3          	sltu	a5,a4,t3
   13724:	411e08b3          	sub	a7,t3,a7
   13728:	00000513          	li	a0,0
   1372c:	00b97463          	bgeu	s2,a1,13734 <__subtf3+0x11e0>
   13730:	001e3513          	seqz	a0,t3
   13734:	41468333          	sub	t1,a3,s4
   13738:	00f56533          	or	a0,a0,a5
   1373c:	0066bfb3          	sltu	t6,a3,t1
   13740:	40a30f33          	sub	t5,t1,a0
   13744:	00000e93          	li	t4,0
   13748:	00050463          	beqz	a0,13750 <__subtf3+0x11fc>
   1374c:	00133e93          	seqz	t4,t1
   13750:	419607b3          	sub	a5,a2,s9
   13754:	01feeeb3          	or	t4,t4,t6
   13758:	41d787b3          	sub	a5,a5,t4
   1375c:	02f12e23          	sw	a5,60(sp)
   13760:	03e12c23          	sw	t5,56(sp)
   13764:	03112a23          	sw	a7,52(sp)
   13768:	02b12823          	sw	a1,48(sp)
   1376c:	00c79513          	slli	a0,a5,0xc
   13770:	12055e63          	bgez	a0,138ac <__subtf3+0x1358>
   13774:	41240933          	sub	s2,s0,s2
   13778:	40e98733          	sub	a4,s3,a4
   1377c:	012437b3          	sltu	a5,s0,s2
   13780:	00e9b9b3          	sltu	s3,s3,a4
   13784:	40f70733          	sub	a4,a4,a5
   13788:	00000793          	li	a5,0
   1378c:	01247463          	bgeu	s0,s2,13794 <__subtf3+0x1240>
   13790:	001e3793          	seqz	a5,t3
   13794:	0137e9b3          	or	s3,a5,s3
   13798:	40da06b3          	sub	a3,s4,a3
   1379c:	00da37b3          	sltu	a5,s4,a3
   137a0:	413686b3          	sub	a3,a3,s3
   137a4:	00098463          	beqz	s3,137ac <__subtf3+0x1258>
   137a8:	00133813          	seqz	a6,t1
   137ac:	40cc8633          	sub	a2,s9,a2
   137b0:	00f867b3          	or	a5,a6,a5
   137b4:	40f607b3          	sub	a5,a2,a5
   137b8:	02f12e23          	sw	a5,60(sp)
   137bc:	02d12c23          	sw	a3,56(sp)
   137c0:	02e12a23          	sw	a4,52(sp)
   137c4:	03212823          	sw	s2,48(sp)
   137c8:	000b8a93          	mv	s5,s7
   137cc:	03c12503          	lw	a0,60(sp)
   137d0:	0e050863          	beqz	a0,138c0 <__subtf3+0x136c>
   137d4:	245000ef          	jal	ra,14218 <__clzsi2>
   137d8:	ff450413          	addi	s0,a0,-12
   137dc:	02000793          	li	a5,32
   137e0:	01f47713          	andi	a4,s0,31
   137e4:	02f44633          	div	a2,s0,a5
   137e8:	10070863          	beqz	a4,138f8 <__subtf3+0x13a4>
   137ec:	03010893          	addi	a7,sp,48
   137f0:	00261593          	slli	a1,a2,0x2
   137f4:	02f46533          	rem	a0,s0,a5
   137f8:	40a78733          	sub	a4,a5,a0
   137fc:	ffc00793          	li	a5,-4
   13800:	02f607b3          	mul	a5,a2,a5
   13804:	00c78793          	addi	a5,a5,12
   13808:	00f887b3          	add	a5,a7,a5
   1380c:	10f89e63          	bne	a7,a5,13928 <__subtf3+0x13d4>
   13810:	04010793          	addi	a5,sp,64
   13814:	00b785b3          	add	a1,a5,a1
   13818:	03012783          	lw	a5,48(sp)
   1381c:	fff60613          	addi	a2,a2,-1
   13820:	00a797b3          	sll	a5,a5,a0
   13824:	fef5a823          	sw	a5,-16(a1)
   13828:	00160613          	addi	a2,a2,1
   1382c:	00261613          	slli	a2,a2,0x2
   13830:	00000593          	li	a1,0
   13834:	03010513          	addi	a0,sp,48
   13838:	c9dec0ef          	jal	ra,4d4 <memset>
   1383c:	1e944863          	blt	s0,s1,13a2c <__subtf3+0x14d8>
   13840:	409404b3          	sub	s1,s0,s1
   13844:	00148493          	addi	s1,s1,1
   13848:	02000793          	li	a5,32
   1384c:	02f4c7b3          	div	a5,s1,a5
   13850:	03010613          	addi	a2,sp,48
   13854:	00060693          	mv	a3,a2
   13858:	00000913          	li	s2,0
   1385c:	00000713          	li	a4,0
   13860:	0ef74663          	blt	a4,a5,1394c <__subtf3+0x13f8>
   13864:	00078713          	mv	a4,a5
   13868:	0007d463          	bgez	a5,13870 <__subtf3+0x131c>
   1386c:	00000713          	li	a4,0
   13870:	01f4f593          	andi	a1,s1,31
   13874:	00279693          	slli	a3,a5,0x2
   13878:	0e059463          	bnez	a1,13960 <__subtf3+0x140c>
   1387c:	00300593          	li	a1,3
   13880:	00000713          	li	a4,0
   13884:	40f585b3          	sub	a1,a1,a5
   13888:	00d60533          	add	a0,a2,a3
   1388c:	00052503          	lw	a0,0(a0)
   13890:	00170713          	addi	a4,a4,1 # 80001 <//.+0x6a089>
   13894:	00460613          	addi	a2,a2,4
   13898:	fea62e23          	sw	a0,-4(a2)
   1389c:	fee5d6e3          	bge	a1,a4,13888 <__subtf3+0x1334>
   138a0:	00400513          	li	a0,4
   138a4:	40f507b3          	sub	a5,a0,a5
   138a8:	11c0006f          	j	139c4 <__subtf3+0x1470>
   138ac:	0115e5b3          	or	a1,a1,a7
   138b0:	01e5e5b3          	or	a1,a1,t5
   138b4:	00f5e5b3          	or	a1,a1,a5
   138b8:	ca058ee3          	beqz	a1,13574 <__subtf3+0x1020>
   138bc:	f11ff06f          	j	137cc <__subtf3+0x1278>
   138c0:	03812503          	lw	a0,56(sp)
   138c4:	00050863          	beqz	a0,138d4 <__subtf3+0x1380>
   138c8:	151000ef          	jal	ra,14218 <__clzsi2>
   138cc:	02050513          	addi	a0,a0,32
   138d0:	f09ff06f          	j	137d8 <__subtf3+0x1284>
   138d4:	03412503          	lw	a0,52(sp)
   138d8:	00050863          	beqz	a0,138e8 <__subtf3+0x1394>
   138dc:	13d000ef          	jal	ra,14218 <__clzsi2>
   138e0:	04050513          	addi	a0,a0,64
   138e4:	ef5ff06f          	j	137d8 <__subtf3+0x1284>
   138e8:	03012503          	lw	a0,48(sp)
   138ec:	12d000ef          	jal	ra,14218 <__clzsi2>
   138f0:	06050513          	addi	a0,a0,96
   138f4:	ee5ff06f          	j	137d8 <__subtf3+0x1284>
   138f8:	ffc00693          	li	a3,-4
   138fc:	02d606b3          	mul	a3,a2,a3
   13900:	03c10793          	addi	a5,sp,60
   13904:	00300713          	li	a4,3
   13908:	00d785b3          	add	a1,a5,a3
   1390c:	0005a583          	lw	a1,0(a1)
   13910:	fff70713          	addi	a4,a4,-1
   13914:	ffc78793          	addi	a5,a5,-4
   13918:	00b7a223          	sw	a1,4(a5)
   1391c:	fec756e3          	bge	a4,a2,13908 <__subtf3+0x13b4>
   13920:	fff60613          	addi	a2,a2,-1
   13924:	f05ff06f          	j	13828 <__subtf3+0x12d4>
   13928:	0007a683          	lw	a3,0(a5)
   1392c:	ffc7a803          	lw	a6,-4(a5)
   13930:	00b78333          	add	t1,a5,a1
   13934:	00a696b3          	sll	a3,a3,a0
   13938:	00e85833          	srl	a6,a6,a4
   1393c:	0106e6b3          	or	a3,a3,a6
   13940:	00d32023          	sw	a3,0(t1)
   13944:	ffc78793          	addi	a5,a5,-4
   13948:	ec5ff06f          	j	1380c <__subtf3+0x12b8>
   1394c:	0006a583          	lw	a1,0(a3)
   13950:	00170713          	addi	a4,a4,1
   13954:	00468693          	addi	a3,a3,4
   13958:	00b96933          	or	s2,s2,a1
   1395c:	f05ff06f          	j	13860 <__subtf3+0x130c>
   13960:	02000613          	li	a2,32
   13964:	02c4e4b3          	rem	s1,s1,a2
   13968:	ffc00813          	li	a6,-4
   1396c:	00271713          	slli	a4,a4,0x2
   13970:	04010593          	addi	a1,sp,64
   13974:	00e58733          	add	a4,a1,a4
   13978:	ff072703          	lw	a4,-16(a4)
   1397c:	00000513          	li	a0,0
   13980:	03078833          	mul	a6,a5,a6
   13984:	40960633          	sub	a2,a2,s1
   13988:	00c71733          	sll	a4,a4,a2
   1398c:	00e96933          	or	s2,s2,a4
   13990:	03010713          	addi	a4,sp,48
   13994:	00d706b3          	add	a3,a4,a3
   13998:	00300713          	li	a4,3
   1399c:	40f70733          	sub	a4,a4,a5
   139a0:	06e54263          	blt	a0,a4,13a04 <__subtf3+0x14b0>
   139a4:	03c12403          	lw	s0,60(sp)
   139a8:	00271713          	slli	a4,a4,0x2
   139ac:	04010693          	addi	a3,sp,64
   139b0:	00400513          	li	a0,4
   139b4:	00e68733          	add	a4,a3,a4
   139b8:	009454b3          	srl	s1,s0,s1
   139bc:	40f507b3          	sub	a5,a0,a5
   139c0:	fe972823          	sw	s1,-16(a4)
   139c4:	00400713          	li	a4,4
   139c8:	00000613          	li	a2,0
   139cc:	00f74663          	blt	a4,a5,139d8 <__subtf3+0x1484>
   139d0:	40f70733          	sub	a4,a4,a5
   139d4:	00271613          	slli	a2,a4,0x2
   139d8:	00279513          	slli	a0,a5,0x2
   139dc:	03010793          	addi	a5,sp,48
   139e0:	00a78533          	add	a0,a5,a0
   139e4:	00000593          	li	a1,0
   139e8:	aedec0ef          	jal	ra,4d4 <memset>
   139ec:	03012703          	lw	a4,48(sp)
   139f0:	012037b3          	snez	a5,s2
   139f4:	00000493          	li	s1,0
   139f8:	00f767b3          	or	a5,a4,a5
   139fc:	02f12823          	sw	a5,48(sp)
   13a00:	d91fe06f          	j	12790 <__subtf3+0x23c>
   13a04:	0006a583          	lw	a1,0(a3)
   13a08:	0046a883          	lw	a7,4(a3)
   13a0c:	01068333          	add	t1,a3,a6
   13a10:	0095d5b3          	srl	a1,a1,s1
   13a14:	00c898b3          	sll	a7,a7,a2
   13a18:	0115e5b3          	or	a1,a1,a7
   13a1c:	00b32023          	sw	a1,0(t1)
   13a20:	00150513          	addi	a0,a0,1
   13a24:	00468693          	addi	a3,a3,4
   13a28:	f79ff06f          	j	139a0 <__subtf3+0x144c>
   13a2c:	03c12783          	lw	a5,60(sp)
   13a30:	fff80737          	lui	a4,0xfff80
   13a34:	fff70713          	addi	a4,a4,-1 # fff7ffff <//.+0xfff6a087>
   13a38:	00e7f7b3          	and	a5,a5,a4
   13a3c:	408484b3          	sub	s1,s1,s0
   13a40:	02f12e23          	sw	a5,60(sp)
   13a44:	d4dfe06f          	j	12790 <__subtf3+0x23c>
  FP_PACK_SEMIRAW_Q (r, R);
   13a48:	02012e23          	sw	zero,60(sp)
   13a4c:	02012c23          	sw	zero,56(sp)
   13a50:	02012a23          	sw	zero,52(sp)
   13a54:	02012823          	sw	zero,48(sp)
   13a58:	db9fe06f          	j	12810 <__subtf3+0x2bc>

00013a5c <__fixtfsi>:
#include "soft-fp.h"
#include "quad.h"

SItype
__fixtfsi (TFtype a)
{
   13a5c:	00852783          	lw	a5,8(a0)
   13a60:	00452703          	lw	a4,4(a0)
   13a64:	00c52683          	lw	a3,12(a0)
   13a68:	00052603          	lw	a2,0(a0)
   13a6c:	fe010113          	addi	sp,sp,-32
  FP_DECL_EX;
  FP_DECL_Q (A);
  USItype r;

  FP_INIT_EXCEPTIONS;
  FP_UNPACK_RAW_Q (A, a);
   13a70:	00e12223          	sw	a4,4(sp)
   13a74:	00f12423          	sw	a5,8(sp)
   13a78:	00f12c23          	sw	a5,24(sp)
  FP_TO_INT_Q (r, A, SI_BITS, 1);
   13a7c:	00004737          	lui	a4,0x4
  FP_UNPACK_RAW_Q (A, a);
   13a80:	00169793          	slli	a5,a3,0x1
   13a84:	0117d593          	srli	a1,a5,0x11
   13a88:	00c12023          	sw	a2,0(sp)
   13a8c:	00d12623          	sw	a3,12(sp)
   13a90:	00c12823          	sw	a2,16(sp)
  FP_TO_INT_Q (r, A, SI_BITS, 1);
   13a94:	ffe70793          	addi	a5,a4,-2 # 3ffe <eshup1+0x12>
   13a98:	00000513          	li	a0,0
   13a9c:	00b7de63          	bge	a5,a1,13ab8 <__fixtfsi+0x5c>
   13aa0:	01d70793          	addi	a5,a4,29
   13aa4:	01f6d813          	srli	a6,a3,0x1f
   13aa8:	00b7dc63          	bge	a5,a1,13ac0 <__fixtfsi+0x64>
   13aac:	80000537          	lui	a0,0x80000
   13ab0:	fff54513          	not	a0,a0
   13ab4:	00a80533          	add	a0,a6,a0
  FP_HANDLE_EXCEPTIONS;

  return r;
}
   13ab8:	02010113          	addi	sp,sp,32
   13abc:	00008067          	ret
  FP_UNPACK_RAW_Q (A, a);
   13ac0:	01069693          	slli	a3,a3,0x10
  FP_TO_INT_Q (r, A, SI_BITS, 1);
   13ac4:	000107b7          	lui	a5,0x10
  FP_UNPACK_RAW_Q (A, a);
   13ac8:	0106d693          	srli	a3,a3,0x10
  FP_TO_INT_Q (r, A, SI_BITS, 1);
   13acc:	00f6e6b3          	or	a3,a3,a5
   13ad0:	06f70793          	addi	a5,a4,111
   13ad4:	40b787b3          	sub	a5,a5,a1
   13ad8:	4057d713          	srai	a4,a5,0x5
   13adc:	00d12e23          	sw	a3,28(sp)
   13ae0:	01f7f793          	andi	a5,a5,31
   13ae4:	04078863          	beqz	a5,13b34 <__fixtfsi+0xd8>
   13ae8:	02000513          	li	a0,32
   13aec:	ffe70893          	addi	a7,a4,-2
   13af0:	40f50533          	sub	a0,a0,a5
   13af4:	00271713          	slli	a4,a4,0x2
   13af8:	02010e13          	addi	t3,sp,32
   13afc:	00a69533          	sll	a0,a3,a0
   13b00:	00000313          	li	t1,0
   13b04:	00000593          	li	a1,0
   13b08:	0018b893          	seqz	a7,a7
   13b0c:	00ee0733          	add	a4,t3,a4
   13b10:	0515c463          	blt	a1,a7,13b58 <__fixtfsi+0xfc>
   13b14:	00030463          	beqz	t1,13b1c <__fixtfsi+0xc0>
   13b18:	00c12823          	sw	a2,16(sp)
   13b1c:	00259593          	slli	a1,a1,0x2
   13b20:	02010713          	addi	a4,sp,32
   13b24:	00b705b3          	add	a1,a4,a1
   13b28:	00f6d6b3          	srl	a3,a3,a5
   13b2c:	fed5a823          	sw	a3,-16(a1)
   13b30:	0180006f          	j	13b48 <__fixtfsi+0xec>
   13b34:	02010793          	addi	a5,sp,32
   13b38:	00271713          	slli	a4,a4,0x2
   13b3c:	00e78733          	add	a4,a5,a4
   13b40:	ff072783          	lw	a5,-16(a4)
   13b44:	00f12823          	sw	a5,16(sp)
   13b48:	01012503          	lw	a0,16(sp)
   13b4c:	f60806e3          	beqz	a6,13ab8 <__fixtfsi+0x5c>
   13b50:	40a00533          	neg	a0,a0
   13b54:	f65ff06f          	j	13ab8 <__fixtfsi+0x5c>
   13b58:	ff072603          	lw	a2,-16(a4)
   13b5c:	00100313          	li	t1,1
   13b60:	00100593          	li	a1,1
   13b64:	00f65633          	srl	a2,a2,a5
   13b68:	00a66633          	or	a2,a2,a0
   13b6c:	fa5ff06f          	j	13b10 <__fixtfsi+0xb4>

00013b70 <__floatsitf>:
#include "soft-fp.h"
#include "quad.h"

TFtype
__floatsitf (SItype i)
{
   13b70:	fc010113          	addi	sp,sp,-64
   13b74:	02912a23          	sw	s1,52(sp)
   13b78:	02112e23          	sw	ra,60(sp)
   13b7c:	02812c23          	sw	s0,56(sp)
   13b80:	03212823          	sw	s2,48(sp)
   13b84:	03312623          	sw	s3,44(sp)
   13b88:	00050493          	mv	s1,a0
  FP_DECL_Q (A);
  TFtype a;

  FP_FROM_INT_Q (A, i, SI_BITS, USItype);
   13b8c:	12058063          	beqz	a1,13cac <__floatsitf+0x13c>
   13b90:	41f5d793          	srai	a5,a1,0x1f
   13b94:	00b7c433          	xor	s0,a5,a1
   13b98:	40f40433          	sub	s0,s0,a5
   13b9c:	00040513          	mv	a0,s0
   13ba0:	01f5d913          	srli	s2,a1,0x1f
   13ba4:	674000ef          	jal	ra,14218 <__clzsi2>
   13ba8:	05150593          	addi	a1,a0,81 # 80000051 <//.+0x7ffea0d9>
   13bac:	000049b7          	lui	s3,0x4
   13bb0:	01e98993          	addi	s3,s3,30 # 401e <eshup1+0x32>
   13bb4:	4055d793          	srai	a5,a1,0x5
   13bb8:	00812823          	sw	s0,16(sp)
   13bbc:	00012a23          	sw	zero,20(sp)
   13bc0:	00012c23          	sw	zero,24(sp)
   13bc4:	00012e23          	sw	zero,28(sp)
   13bc8:	01f5f593          	andi	a1,a1,31
   13bcc:	40a989b3          	sub	s3,s3,a0
   13bd0:	02058c63          	beqz	a1,13c08 <__floatsitf+0x98>
   13bd4:	00200713          	li	a4,2
   13bd8:	0ce79663          	bne	a5,a4,13ca4 <__floatsitf+0x134>
   13bdc:	02000713          	li	a4,32
   13be0:	40b70733          	sub	a4,a4,a1
   13be4:	00e45733          	srl	a4,s0,a4
   13be8:	00e12e23          	sw	a4,28(sp)
   13bec:	fff78613          	addi	a2,a5,-1 # ffff <__udivdi3+0x2c7>
   13bf0:	02010713          	addi	a4,sp,32
   13bf4:	00279793          	slli	a5,a5,0x2
   13bf8:	00f707b3          	add	a5,a4,a5
   13bfc:	00b41433          	sll	s0,s0,a1
   13c00:	fe87a823          	sw	s0,-16(a5)
   13c04:	0340006f          	j	13c38 <__floatsitf+0xc8>
   13c08:	00300713          	li	a4,3
   13c0c:	40f70733          	sub	a4,a4,a5
   13c10:	00271713          	slli	a4,a4,0x2
   13c14:	02010693          	addi	a3,sp,32
   13c18:	00e68733          	add	a4,a3,a4
   13c1c:	ff072703          	lw	a4,-16(a4)
   13c20:	00200613          	li	a2,2
   13c24:	00e12e23          	sw	a4,28(sp)
   13c28:	00200713          	li	a4,2
   13c2c:	00e79663          	bne	a5,a4,13c38 <__floatsitf+0xc8>
   13c30:	00812c23          	sw	s0,24(sp)
   13c34:	00100613          	li	a2,1
   13c38:	00160613          	addi	a2,a2,1
   13c3c:	00000593          	li	a1,0
   13c40:	00261613          	slli	a2,a2,0x2
   13c44:	01010513          	addi	a0,sp,16
   13c48:	88dec0ef          	jal	ra,4d4 <memset>
   13c4c:	00090593          	mv	a1,s2
  FP_PACK_RAW_Q (a, A);
   13c50:	01c12783          	lw	a5,28(sp)
   13c54:	00f59413          	slli	s0,a1,0xf
   13c58:	01346433          	or	s0,s0,s3
   13c5c:	00f11623          	sh	a5,12(sp)

  return a;
   13c60:	01012783          	lw	a5,16(sp)
  FP_PACK_RAW_Q (a, A);
   13c64:	00811723          	sh	s0,14(sp)
}
   13c68:	03c12083          	lw	ra,60(sp)
  return a;
   13c6c:	00f4a023          	sw	a5,0(s1)
   13c70:	01412783          	lw	a5,20(sp)
}
   13c74:	03812403          	lw	s0,56(sp)
   13c78:	03012903          	lw	s2,48(sp)
  return a;
   13c7c:	00f4a223          	sw	a5,4(s1)
   13c80:	01812783          	lw	a5,24(sp)
}
   13c84:	02c12983          	lw	s3,44(sp)
   13c88:	00048513          	mv	a0,s1
  return a;
   13c8c:	00f4a423          	sw	a5,8(s1)
   13c90:	00c12783          	lw	a5,12(sp)
   13c94:	00f4a623          	sw	a5,12(s1)
}
   13c98:	03412483          	lw	s1,52(sp)
   13c9c:	04010113          	addi	sp,sp,64
   13ca0:	00008067          	ret
  FP_FROM_INT_Q (A, i, SI_BITS, USItype);
   13ca4:	00300793          	li	a5,3
   13ca8:	f45ff06f          	j	13bec <__floatsitf+0x7c>
   13cac:	00012e23          	sw	zero,28(sp)
   13cb0:	00012c23          	sw	zero,24(sp)
   13cb4:	00012a23          	sw	zero,20(sp)
   13cb8:	00012823          	sw	zero,16(sp)
   13cbc:	00000993          	li	s3,0
   13cc0:	f91ff06f          	j	13c50 <__floatsitf+0xe0>

00013cc4 <__extenddftf2>:
  FP_DECL_D (A);
  FP_DECL_Q (R);
  TFtype r;

  FP_INIT_EXCEPTIONS;
  FP_UNPACK_RAW_D (A, a);
   13cc4:	01465793          	srli	a5,a2,0x14
   13cc8:	00c61713          	slli	a4,a2,0xc
   13ccc:	7ff7f793          	andi	a5,a5,2047
{
   13cd0:	fc010113          	addi	sp,sp,-64
  FP_UNPACK_RAW_D (A, a);
   13cd4:	00c75713          	srli	a4,a4,0xc
#if _FP_W_TYPE_SIZE < 64
  FP_EXTEND (Q, D, 4, 2, R, A);
   13cd8:	00178693          	addi	a3,a5,1
{
   13cdc:	02812c23          	sw	s0,56(sp)
   13ce0:	02912a23          	sw	s1,52(sp)
   13ce4:	03212823          	sw	s2,48(sp)
   13ce8:	02112e23          	sw	ra,60(sp)
   13cec:	03312623          	sw	s3,44(sp)
  FP_EXTEND (Q, D, 4, 2, R, A);
   13cf0:	00b12823          	sw	a1,16(sp)
   13cf4:	00e12a23          	sw	a4,20(sp)
   13cf8:	00012e23          	sw	zero,28(sp)
   13cfc:	00012c23          	sw	zero,24(sp)
   13d00:	7fe6f693          	andi	a3,a3,2046
{
   13d04:	00050913          	mv	s2,a0
   13d08:	00058413          	mv	s0,a1
  FP_UNPACK_RAW_D (A, a);
   13d0c:	01f65493          	srli	s1,a2,0x1f
  FP_EXTEND (Q, D, 4, 2, R, A);
   13d10:	08068463          	beqz	a3,13d98 <__extenddftf2+0xd4>
   13d14:	000046b7          	lui	a3,0x4
   13d18:	c0068693          	addi	a3,a3,-1024 # 3c00 <_free_r+0xd4>
   13d1c:	00d787b3          	add	a5,a5,a3
   13d20:	0045d513          	srli	a0,a1,0x4
   13d24:	00475693          	srli	a3,a4,0x4
   13d28:	01c71713          	slli	a4,a4,0x1c
   13d2c:	00a76733          	or	a4,a4,a0
   13d30:	01c59413          	slli	s0,a1,0x1c
   13d34:	00d12e23          	sw	a3,28(sp)
   13d38:	00e12c23          	sw	a4,24(sp)
   13d3c:	00812a23          	sw	s0,20(sp)
   13d40:	00012823          	sw	zero,16(sp)
#else
  FP_EXTEND (Q, D, 2, 1, R, A);
#endif
  FP_PACK_RAW_Q (r, R);
   13d44:	00f49493          	slli	s1,s1,0xf
   13d48:	00f4e7b3          	or	a5,s1,a5
   13d4c:	00f11723          	sh	a5,14(sp)
  FP_HANDLE_EXCEPTIONS;

  return r;
   13d50:	01012783          	lw	a5,16(sp)
  FP_PACK_RAW_Q (r, R);
   13d54:	01c12703          	lw	a4,28(sp)
}
   13d58:	03c12083          	lw	ra,60(sp)
  return r;
   13d5c:	00f92023          	sw	a5,0(s2)
   13d60:	01412783          	lw	a5,20(sp)
  FP_PACK_RAW_Q (r, R);
   13d64:	00e11623          	sh	a4,12(sp)
}
   13d68:	03812403          	lw	s0,56(sp)
  return r;
   13d6c:	00f92223          	sw	a5,4(s2)
   13d70:	01812783          	lw	a5,24(sp)
}
   13d74:	03412483          	lw	s1,52(sp)
   13d78:	02c12983          	lw	s3,44(sp)
  return r;
   13d7c:	00f92423          	sw	a5,8(s2)
   13d80:	00c12783          	lw	a5,12(sp)
}
   13d84:	00090513          	mv	a0,s2
  return r;
   13d88:	00f92623          	sw	a5,12(s2)
}
   13d8c:	03012903          	lw	s2,48(sp)
   13d90:	04010113          	addi	sp,sp,64
   13d94:	00008067          	ret
  FP_EXTEND (Q, D, 4, 2, R, A);
   13d98:	00b76533          	or	a0,a4,a1
   13d9c:	0e079263          	bnez	a5,13e80 <__extenddftf2+0x1bc>
   13da0:	fa0502e3          	beqz	a0,13d44 <__extenddftf2+0x80>
   13da4:	04070e63          	beqz	a4,13e00 <__extenddftf2+0x13c>
   13da8:	00070513          	mv	a0,a4
   13dac:	46c000ef          	jal	ra,14218 <__clzsi2>
   13db0:	00050993          	mv	s3,a0
   13db4:	03198593          	addi	a1,s3,49
   13db8:	4055d613          	srai	a2,a1,0x5
   13dbc:	01f5f593          	andi	a1,a1,31
   13dc0:	04058663          	beqz	a1,13e0c <__extenddftf2+0x148>
   13dc4:	ffc00713          	li	a4,-4
   13dc8:	02e60733          	mul	a4,a2,a4
   13dcc:	02000513          	li	a0,32
   13dd0:	01010893          	addi	a7,sp,16
   13dd4:	40b50533          	sub	a0,a0,a1
   13dd8:	00261693          	slli	a3,a2,0x2
   13ddc:	00c70713          	addi	a4,a4,12
   13de0:	00e88733          	add	a4,a7,a4
   13de4:	06e89c63          	bne	a7,a4,13e5c <__extenddftf2+0x198>
   13de8:	02010793          	addi	a5,sp,32
   13dec:	00d786b3          	add	a3,a5,a3
   13df0:	00b415b3          	sll	a1,s0,a1
   13df4:	fff60613          	addi	a2,a2,-1
   13df8:	feb6a823          	sw	a1,-16(a3)
   13dfc:	03c0006f          	j	13e38 <__extenddftf2+0x174>
   13e00:	418000ef          	jal	ra,14218 <__clzsi2>
   13e04:	02050993          	addi	s3,a0,32
   13e08:	fadff06f          	j	13db4 <__extenddftf2+0xf0>
   13e0c:	ffc00693          	li	a3,-4
   13e10:	02d606b3          	mul	a3,a2,a3
   13e14:	01c10793          	addi	a5,sp,28
   13e18:	00300713          	li	a4,3
   13e1c:	00d785b3          	add	a1,a5,a3
   13e20:	0005a583          	lw	a1,0(a1)
   13e24:	fff70713          	addi	a4,a4,-1
   13e28:	ffc78793          	addi	a5,a5,-4
   13e2c:	00b7a223          	sw	a1,4(a5)
   13e30:	fec756e3          	bge	a4,a2,13e1c <__extenddftf2+0x158>
   13e34:	fff60613          	addi	a2,a2,-1
   13e38:	00160613          	addi	a2,a2,1
   13e3c:	00261613          	slli	a2,a2,0x2
   13e40:	00000593          	li	a1,0
   13e44:	01010513          	addi	a0,sp,16
   13e48:	e8cec0ef          	jal	ra,4d4 <memset>
   13e4c:	000047b7          	lui	a5,0x4
   13e50:	c0c78793          	addi	a5,a5,-1012 # 3c0c <_free_r+0xe0>
   13e54:	413787b3          	sub	a5,a5,s3
   13e58:	eedff06f          	j	13d44 <__extenddftf2+0x80>
   13e5c:	00072783          	lw	a5,0(a4)
   13e60:	ffc72803          	lw	a6,-4(a4)
   13e64:	00d70333          	add	t1,a4,a3
   13e68:	00b797b3          	sll	a5,a5,a1
   13e6c:	00a85833          	srl	a6,a6,a0
   13e70:	0107e7b3          	or	a5,a5,a6
   13e74:	00f32023          	sw	a5,0(t1)
   13e78:	ffc70713          	addi	a4,a4,-4
   13e7c:	f69ff06f          	j	13de4 <__extenddftf2+0x120>
   13e80:	000087b7          	lui	a5,0x8
   13e84:	02050863          	beqz	a0,13eb4 <__extenddftf2+0x1f0>
   13e88:	01c71793          	slli	a5,a4,0x1c
   13e8c:	0045d693          	srli	a3,a1,0x4
   13e90:	00d7e7b3          	or	a5,a5,a3
   13e94:	00f12c23          	sw	a5,24(sp)
   13e98:	00475713          	srli	a4,a4,0x4
   13e9c:	000087b7          	lui	a5,0x8
   13ea0:	01c59413          	slli	s0,a1,0x1c
   13ea4:	00f76733          	or	a4,a4,a5
   13ea8:	00812a23          	sw	s0,20(sp)
   13eac:	00012823          	sw	zero,16(sp)
   13eb0:	00e12e23          	sw	a4,28(sp)
   13eb4:	fff78793          	addi	a5,a5,-1 # 7fff <__mcmp+0xb>
   13eb8:	e8dff06f          	j	13d44 <__extenddftf2+0x80>

00013ebc <__trunctfdf2>:
#include "double.h"
#include "quad.h"

DFtype
__trunctfdf2 (TFtype a)
{
   13ebc:	fd010113          	addi	sp,sp,-48
   13ec0:	00852783          	lw	a5,8(a0)
   13ec4:	02812423          	sw	s0,40(sp)
   13ec8:	00c52403          	lw	s0,12(a0)
   13ecc:	00052683          	lw	a3,0(a0)
   13ed0:	00452703          	lw	a4,4(a0)
  FP_DECL_Q (A);
  FP_DECL_D (R);
  DFtype r;

  FP_INIT_ROUNDMODE;
  FP_UNPACK_SEMIRAW_Q (A, a);
   13ed4:	00f12423          	sw	a5,8(sp)
   13ed8:	00f12c23          	sw	a5,24(sp)
   13edc:	01041793          	slli	a5,s0,0x10
   13ee0:	00d12023          	sw	a3,0(sp)
   13ee4:	00d12823          	sw	a3,16(sp)
   13ee8:	0107d793          	srli	a5,a5,0x10
   13eec:	00141693          	slli	a3,s0,0x1
   13ef0:	00e12223          	sw	a4,4(sp)
   13ef4:	00812623          	sw	s0,12(sp)
   13ef8:	00e12a23          	sw	a4,20(sp)
{
   13efc:	02112623          	sw	ra,44(sp)
   13f00:	02912223          	sw	s1,36(sp)
  FP_UNPACK_SEMIRAW_Q (A, a);
   13f04:	00f12e23          	sw	a5,28(sp)
   13f08:	0116d693          	srli	a3,a3,0x11
   13f0c:	01f45413          	srli	s0,s0,0x1f
   13f10:	01010513          	addi	a0,sp,16
   13f14:	01c10713          	addi	a4,sp,28
   13f18:	00072783          	lw	a5,0(a4)
   13f1c:	ffc72603          	lw	a2,-4(a4)
   13f20:	ffc70713          	addi	a4,a4,-4
   13f24:	00379793          	slli	a5,a5,0x3
   13f28:	01d65613          	srli	a2,a2,0x1d
   13f2c:	00c7e7b3          	or	a5,a5,a2
   13f30:	00f72223          	sw	a5,4(a4)
   13f34:	fee512e3          	bne	a0,a4,13f18 <__trunctfdf2+0x5c>
   13f38:	01012603          	lw	a2,16(sp)
#if _FP_W_TYPE_SIZE < 64
  FP_TRUNC (D, Q, 2, 4, R, A);
   13f3c:	00168793          	addi	a5,a3,1
  FP_UNPACK_SEMIRAW_Q (A, a);
   13f40:	00361813          	slli	a6,a2,0x3
  FP_TRUNC (D, Q, 2, 4, R, A);
   13f44:	00008637          	lui	a2,0x8
   13f48:	ffe60613          	addi	a2,a2,-2 # 7ffe <__mcmp+0xa>
  FP_UNPACK_SEMIRAW_Q (A, a);
   13f4c:	01012823          	sw	a6,16(sp)
  FP_TRUNC (D, Q, 2, 4, R, A);
   13f50:	00c7f7b3          	and	a5,a5,a2
   13f54:	1c078063          	beqz	a5,14114 <__trunctfdf2+0x258>
   13f58:	ffffc7b7          	lui	a5,0xffffc
   13f5c:	40078793          	addi	a5,a5,1024 # ffffc400 <//.+0xfffe6488>
   13f60:	00f686b3          	add	a3,a3,a5
   13f64:	7fe00793          	li	a5,2046
   13f68:	20d7c263          	blt	a5,a3,1416c <__trunctfdf2+0x2b0>
   13f6c:	06d05863          	blez	a3,13fdc <__trunctfdf2+0x120>
   13f70:	01812583          	lw	a1,24(sp)
   13f74:	01c12703          	lw	a4,28(sp)
   13f78:	01412783          	lw	a5,20(sp)
   13f7c:	01c5d613          	srli	a2,a1,0x1c
   13f80:	00471713          	slli	a4,a4,0x4
   13f84:	00c76733          	or	a4,a4,a2
   13f88:	00479613          	slli	a2,a5,0x4
   13f8c:	01066633          	or	a2,a2,a6
   13f90:	01c7d793          	srli	a5,a5,0x1c
   13f94:	00459593          	slli	a1,a1,0x4
   13f98:	00c03633          	snez	a2,a2
   13f9c:	00b7e7b3          	or	a5,a5,a1
   13fa0:	00f66633          	or	a2,a2,a5
   13fa4:	00e12a23          	sw	a4,20(sp)
   13fa8:	00c12823          	sw	a2,16(sp)
   13fac:	01012603          	lw	a2,16(sp)
   13fb0:	01412783          	lw	a5,20(sp)
#else
  FP_TRUNC (D, Q, 1, 2, R, A);
#endif
  FP_PACK_SEMIRAW_D (r, R);
   13fb4:	00767713          	andi	a4,a2,7
   13fb8:	1c070063          	beqz	a4,14178 <__trunctfdf2+0x2bc>
   13fbc:	00f67713          	andi	a4,a2,15
   13fc0:	00400593          	li	a1,4
   13fc4:	1ab70a63          	beq	a4,a1,14178 <__trunctfdf2+0x2bc>
   13fc8:	00460713          	addi	a4,a2,4
   13fcc:	00c73633          	sltu	a2,a4,a2
   13fd0:	00c787b3          	add	a5,a5,a2
   13fd4:	00070613          	mv	a2,a4
   13fd8:	1a00006f          	j	14178 <__trunctfdf2+0x2bc>
  FP_TRUNC (D, Q, 2, 4, R, A);
   13fdc:	fcc00793          	li	a5,-52
   13fe0:	00f6dc63          	bge	a3,a5,13ff8 <__trunctfdf2+0x13c>
   13fe4:	00012a23          	sw	zero,20(sp)
   13fe8:	00100793          	li	a5,1
   13fec:	00f12823          	sw	a5,16(sp)
   13ff0:	00000693          	li	a3,0
   13ff4:	fb9ff06f          	j	13fac <__trunctfdf2+0xf0>
   13ff8:	01c12783          	lw	a5,28(sp)
   13ffc:	000808b7          	lui	a7,0x80
   14000:	03d00613          	li	a2,61
   14004:	00f8e8b3          	or	a7,a7,a5
   14008:	40d60633          	sub	a2,a2,a3
   1400c:	01112e23          	sw	a7,28(sp)
   14010:	40565793          	srai	a5,a2,0x5
  FP_UNPACK_SEMIRAW_Q (A, a);
   14014:	00050593          	mv	a1,a0
  FP_TRUNC (D, Q, 2, 4, R, A);
   14018:	00000693          	li	a3,0
   1401c:	00000493          	li	s1,0
   14020:	0005a803          	lw	a6,0(a1)
   14024:	00168693          	addi	a3,a3,1
   14028:	00458593          	addi	a1,a1,4
   1402c:	0104e4b3          	or	s1,s1,a6
   14030:	fed798e3          	bne	a5,a3,14020 <__trunctfdf2+0x164>
   14034:	01f67693          	andi	a3,a2,31
   14038:	00279613          	slli	a2,a5,0x2
   1403c:	02069863          	bnez	a3,1406c <__trunctfdf2+0x1b0>
   14040:	00300593          	li	a1,3
   14044:	40f585b3          	sub	a1,a1,a5
   14048:	00c70833          	add	a6,a4,a2
   1404c:	00082803          	lw	a6,0(a6)
   14050:	00168693          	addi	a3,a3,1
   14054:	00470713          	addi	a4,a4,4
   14058:	ff072e23          	sw	a6,-4(a4)
   1405c:	fed5d6e3          	bge	a1,a3,14048 <__trunctfdf2+0x18c>
   14060:	00400713          	li	a4,4
   14064:	40f707b3          	sub	a5,a4,a5
   14068:	0580006f          	j	140c0 <__trunctfdf2+0x204>
   1406c:	ffc00e13          	li	t3,-4
   14070:	03c78e33          	mul	t3,a5,t3
   14074:	02010713          	addi	a4,sp,32
   14078:	00c70733          	add	a4,a4,a2
   1407c:	ff072703          	lw	a4,-16(a4)
   14080:	02000813          	li	a6,32
   14084:	40d80833          	sub	a6,a6,a3
   14088:	01071733          	sll	a4,a4,a6
   1408c:	00e4e4b3          	or	s1,s1,a4
   14090:	00c50733          	add	a4,a0,a2
   14094:	00300613          	li	a2,3
   14098:	00000313          	li	t1,0
   1409c:	40f60633          	sub	a2,a2,a5
   140a0:	04c34663          	blt	t1,a2,140ec <__trunctfdf2+0x230>
   140a4:	00400713          	li	a4,4
   140a8:	40f707b3          	sub	a5,a4,a5
   140ac:	00261613          	slli	a2,a2,0x2
   140b0:	02010713          	addi	a4,sp,32
   140b4:	00c70633          	add	a2,a4,a2
   140b8:	00d8d6b3          	srl	a3,a7,a3
   140bc:	fed62823          	sw	a3,-16(a2)
   140c0:	00400613          	li	a2,4
   140c4:	40f60633          	sub	a2,a2,a5
   140c8:	00279793          	slli	a5,a5,0x2
   140cc:	00f50533          	add	a0,a0,a5
   140d0:	00261613          	slli	a2,a2,0x2
   140d4:	00000593          	li	a1,0
   140d8:	bfcec0ef          	jal	ra,4d4 <memset>
   140dc:	01012703          	lw	a4,16(sp)
   140e0:	009037b3          	snez	a5,s1
   140e4:	00f767b3          	or	a5,a4,a5
   140e8:	f05ff06f          	j	13fec <__trunctfdf2+0x130>
   140ec:	00072583          	lw	a1,0(a4)
   140f0:	00472e83          	lw	t4,4(a4)
   140f4:	01c70f33          	add	t5,a4,t3
   140f8:	00d5d5b3          	srl	a1,a1,a3
   140fc:	010e9eb3          	sll	t4,t4,a6
   14100:	01d5e5b3          	or	a1,a1,t4
   14104:	00bf2023          	sw	a1,0(t5)
   14108:	00130313          	addi	t1,t1,1
   1410c:	00470713          	addi	a4,a4,4
   14110:	f91ff06f          	j	140a0 <__trunctfdf2+0x1e4>
   14114:	01412583          	lw	a1,20(sp)
   14118:	01812703          	lw	a4,24(sp)
   1411c:	01c12503          	lw	a0,28(sp)
   14120:	00e5e633          	or	a2,a1,a4
   14124:	00a66633          	or	a2,a2,a0
   14128:	01066633          	or	a2,a2,a6
   1412c:	00069863          	bnez	a3,1413c <__trunctfdf2+0x280>
   14130:	00c03633          	snez	a2,a2
   14134:	00000793          	li	a5,0
   14138:	e7dff06f          	j	13fb4 <__trunctfdf2+0xf8>
   1413c:	0c060463          	beqz	a2,14204 <__trunctfdf2+0x348>
   14140:	01c5d613          	srli	a2,a1,0x1c
   14144:	01c75793          	srli	a5,a4,0x1c
   14148:	00471593          	slli	a1,a4,0x4
   1414c:	00451513          	slli	a0,a0,0x4
   14150:	00b66633          	or	a2,a2,a1
   14154:	00a7e7b3          	or	a5,a5,a0
   14158:	00400737          	lui	a4,0x400
   1415c:	ff867613          	andi	a2,a2,-8
   14160:	00e7e7b3          	or	a5,a5,a4
   14164:	7ff00693          	li	a3,2047
   14168:	e4dff06f          	j	13fb4 <__trunctfdf2+0xf8>
   1416c:	00000793          	li	a5,0
   14170:	00000613          	li	a2,0
   14174:	7ff00693          	li	a3,2047
  FP_PACK_SEMIRAW_D (r, R);
   14178:	00879713          	slli	a4,a5,0x8
   1417c:	00075e63          	bgez	a4,14198 <__trunctfdf2+0x2dc>
   14180:	00168693          	addi	a3,a3,1
   14184:	7ff00713          	li	a4,2047
   14188:	08e68263          	beq	a3,a4,1420c <__trunctfdf2+0x350>
   1418c:	ff800737          	lui	a4,0xff800
   14190:	fff70713          	addi	a4,a4,-1 # ff7fffff <//.+0xff7ea087>
   14194:	00e7f7b3          	and	a5,a5,a4
   14198:	01d79713          	slli	a4,a5,0x1d
   1419c:	00365613          	srli	a2,a2,0x3
   141a0:	00c76633          	or	a2,a4,a2
   141a4:	7ff00713          	li	a4,2047
   141a8:	0037d793          	srli	a5,a5,0x3
   141ac:	00e69e63          	bne	a3,a4,141c8 <__trunctfdf2+0x30c>
   141b0:	00f66633          	or	a2,a2,a5
   141b4:	00000793          	li	a5,0
   141b8:	00060863          	beqz	a2,141c8 <__trunctfdf2+0x30c>
   141bc:	000807b7          	lui	a5,0x80
   141c0:	00000613          	li	a2,0
   141c4:	00000413          	li	s0,0
   141c8:	7ff00737          	lui	a4,0x7ff00
   141cc:	01469693          	slli	a3,a3,0x14
   141d0:	00c79793          	slli	a5,a5,0xc
   141d4:	00e6f6b3          	and	a3,a3,a4
   141d8:	00c7d793          	srli	a5,a5,0xc
   141dc:	01f41413          	slli	s0,s0,0x1f
   141e0:	00f6e7b3          	or	a5,a3,a5
  FP_HANDLE_EXCEPTIONS;

  return r;
}
   141e4:	02c12083          	lw	ra,44(sp)
  FP_PACK_SEMIRAW_D (r, R);
   141e8:	0087e733          	or	a4,a5,s0
}
   141ec:	02812403          	lw	s0,40(sp)
   141f0:	02412483          	lw	s1,36(sp)
   141f4:	00060513          	mv	a0,a2
   141f8:	00070593          	mv	a1,a4
   141fc:	03010113          	addi	sp,sp,48
   14200:	00008067          	ret
   14204:	00000793          	li	a5,0
   14208:	f6dff06f          	j	14174 <__trunctfdf2+0x2b8>
   1420c:	00000793          	li	a5,0
   14210:	00000613          	li	a2,0
   14214:	f85ff06f          	j	14198 <__trunctfdf2+0x2dc>

00014218 <__clzsi2>:
  count_leading_zeros (ret, x);
   14218:	000107b7          	lui	a5,0x10
   1421c:	02f57a63          	bgeu	a0,a5,14250 <__clzsi2+0x38>
   14220:	0ff00793          	li	a5,255
   14224:	00a7b7b3          	sltu	a5,a5,a0
   14228:	00379793          	slli	a5,a5,0x3
   1422c:	00015737          	lui	a4,0x15
   14230:	02000693          	li	a3,32
   14234:	40f686b3          	sub	a3,a3,a5
   14238:	00f55533          	srl	a0,a0,a5
   1423c:	f6c70793          	addi	a5,a4,-148 # 14f6c <__clz_tab>
   14240:	00a78533          	add	a0,a5,a0
   14244:	00054503          	lbu	a0,0(a0)
}
   14248:	40a68533          	sub	a0,a3,a0
   1424c:	00008067          	ret
  count_leading_zeros (ret, x);
   14250:	01000737          	lui	a4,0x1000
   14254:	01000793          	li	a5,16
   14258:	fce56ae3          	bltu	a0,a4,1422c <__clzsi2+0x14>
   1425c:	01800793          	li	a5,24
   14260:	fcdff06f          	j	1422c <__clzsi2+0x14>
