
test_DFT:     file format elf32-littleriscv


Disassembly of section .text:

00000054 <main>:
void DFT(int point, int k);



int main()
{
      54:	1101                	addi	sp,sp,-32
      56:	ce06                	sw	ra,28(sp)
      58:	cc22                	sw	s0,24(sp)
      5a:	ca26                	sw	s1,20(sp)
      5c:	c84a                	sw	s2,16(sp)
      5e:	c64e                	sw	s3,12(sp)
      60:	c452                	sw	s4,8(sp)
      62:	c256                	sw	s5,4(sp)
      64:	23c18793          	addi	a5,gp,572 # 15af4 <x>
	for (int j = 0; j < 64; j++)
      68:	4701                	li	a4,0
	{
		x[0][j] = j;
		x[1][j] = 63 - j;
      6a:	03f00513          	li	a0,63
	for (int j = 0; j < 64; j++)
      6e:	04000593          	li	a1,64
		x[0][j] = j;
      72:	0ff77693          	andi	a3,a4,255
		x[1][j] = 63 - j;
      76:	40d50633          	sub	a2,a0,a3
		x[0][j] = j;
      7a:	00d78023          	sb	a3,0(a5)
		x[1][j] = 63 - j;
      7e:	04c78023          	sb	a2,64(a5)
	for (int j = 0; j < 64; j++)
      82:	0705                	addi	a4,a4,1
      84:	0785                	addi	a5,a5,1
      86:	feb716e3          	bne	a4,a1,72 <main+0x1e>
      8a:	4bc18913          	addi	s2,gp,1212 # 15d74 <DFT_data_real>
      8e:	2bc18493          	addi	s1,gp,700 # 15b74 <DFT_data_imag>
	}
	for (int k = 0; k < 64; k++)
      92:	4401                	li	s0,0
      94:	6ad1                	lui	s5,0x14
      96:	6a51                	lui	s4,0x14
      98:	04000993          	li	s3,64
{
	int p, Butterflycos, Butterflysin, tmp, tmp2, tmp3, tmp4;
	int Butterflycos2, Butterflysin2;
	int Butterflycos3, Butterflysin3;
	int Butterflycos4, Butterflysin4;
	if (point == 64)
      9c:	8522                	mv	a0,s0
      9e:	22e9                	jal	268 <DFT.part.0>
		printf("first: X1[%d] = %d + %d j		;", k, DFT_data_real[0][k], DFT_data_imag[0][k]);
      a0:	4094                	lw	a3,0(s1)
      a2:	00092603          	lw	a2,0(s2)
      a6:	85a2                	mv	a1,s0
      a8:	268a8513          	addi	a0,s5,616 # 14268 <__clzsi2+0x50>
      ac:	2391                	jal	5f0 <printf>
		printf("second: X2[%d] = %d + %d j\n", k, DFT_data_real[1][k], DFT_data_imag[1][k]);
      ae:	1004a683          	lw	a3,256(s1)
      b2:	10092603          	lw	a2,256(s2)
      b6:	85a2                	mv	a1,s0
      b8:	288a0513          	addi	a0,s4,648 # 14288 <__clzsi2+0x70>
	for (int k = 0; k < 64; k++)
      bc:	0405                	addi	s0,s0,1
		printf("second: X2[%d] = %d + %d j\n", k, DFT_data_real[1][k], DFT_data_imag[1][k]);
      be:	2b0d                	jal	5f0 <printf>
	for (int k = 0; k < 64; k++)
      c0:	0911                	addi	s2,s2,4
      c2:	0491                	addi	s1,s1,4
      c4:	fd341ce3          	bne	s0,s3,9c <main+0x48>
}
      c8:	40f2                	lw	ra,28(sp)
      ca:	4462                	lw	s0,24(sp)
      cc:	44d2                	lw	s1,20(sp)
      ce:	4942                	lw	s2,16(sp)
      d0:	49b2                	lw	s3,12(sp)
      d2:	4a22                	lw	s4,8(sp)
      d4:	4a92                	lw	s5,4(sp)
      d6:	4501                	li	a0,0
      d8:	6105                	addi	sp,sp,32
      da:	8082                	ret

000000dc <register_fini>:
      dc:	000007b7          	lui	a5,0x0
      e0:	00078793          	mv	a5,a5
      e4:	00078863          	beqz	a5,f4 <register_fini+0x18>
      e8:	00004537          	lui	a0,0x4
      ec:	9a050513          	addi	a0,a0,-1632 # 39a0 <__libc_fini_array>
      f0:	3f50c06f          	j	cce4 <atexit>
      f4:	00008067          	ret

000000f8 <_start>:
      f8:	00015197          	auipc	gp,0x15
      fc:	7c018193          	addi	gp,gp,1984 # 158b8 <__global_pointer$>
     100:	1e418513          	addi	a0,gp,484 # 15a9c <_edata>
     104:	6c018613          	addi	a2,gp,1728 # 15f78 <//.>
     108:	40a60633          	sub	a2,a2,a0
     10c:	00000593          	li	a1,0
     110:	3c4000ef          	jal	ra,4d4 <memset>
     114:	0000d517          	auipc	a0,0xd
     118:	bd050513          	addi	a0,a0,-1072 # cce4 <atexit>
     11c:	00050863          	beqz	a0,12c <_start+0x34>
     120:	00004517          	auipc	a0,0x4
     124:	88050513          	addi	a0,a0,-1920 # 39a0 <__libc_fini_array>
     128:	3bd0c0ef          	jal	ra,cce4 <atexit>
     12c:	30c000ef          	jal	ra,438 <__libc_init_array>
     130:	00012503          	lw	a0,0(sp)
     134:	00410593          	addi	a1,sp,4
     138:	00000613          	li	a2,0
     13c:	f19ff0ef          	jal	ra,54 <main>
     140:	2c80006f          	j	408 <exit>

00000144 <__do_global_dtors_aux>:
     144:	1f81c703          	lbu	a4,504(gp) # 15ab0 <completed.5518>
     148:	04071463          	bnez	a4,190 <__do_global_dtors_aux+0x4c>
     14c:	ff010113          	addi	sp,sp,-16
     150:	00812423          	sw	s0,8(sp)
     154:	00078413          	mv	s0,a5
     158:	000007b7          	lui	a5,0x0
     15c:	00112623          	sw	ra,12(sp)
     160:	00078793          	mv	a5,a5
     164:	00078a63          	beqz	a5,178 <__do_global_dtors_aux+0x34>
     168:	00015537          	lui	a0,0x15
     16c:	06c50513          	addi	a0,a0,108 # 1506c <__EH_FRAME_BEGIN__>
     170:	00000097          	auipc	ra,0x0
     174:	000000e7          	jalr	zero # 0 <main-0x54>
     178:	00100793          	li	a5,1
     17c:	00c12083          	lw	ra,12(sp)
     180:	1ef18c23          	sb	a5,504(gp) # 15ab0 <completed.5518>
     184:	00812403          	lw	s0,8(sp)
     188:	01010113          	addi	sp,sp,16
     18c:	00008067          	ret
     190:	00008067          	ret

00000194 <frame_dummy>:
     194:	000007b7          	lui	a5,0x0
     198:	00078793          	mv	a5,a5
     19c:	00078c63          	beqz	a5,1b4 <frame_dummy+0x20>
     1a0:	00015537          	lui	a0,0x15
     1a4:	1fc18593          	addi	a1,gp,508 # 15ab4 <object.5523>
     1a8:	06c50513          	addi	a0,a0,108 # 1506c <__EH_FRAME_BEGIN__>
     1ac:	00000317          	auipc	t1,0x0
     1b0:	00000067          	jr	zero # 0 <main-0x54>
     1b4:	00008067          	ret

000001b8 <ButterflyCos>:
	if (tmp < 16)
     1b8:	47bd                	li	a5,15
     1ba:	02a7dc63          	bge	a5,a0,1f2 <ButterflyCos+0x3a>
	else if (tmp < 32)
     1be:	47fd                	li	a5,31
     1c0:	00a7df63          	bge	a5,a0,1de <ButterflyCos+0x26>
	else if (tmp < 48)
     1c4:	02f00793          	li	a5,47
     1c8:	02a7cc63          	blt	a5,a0,200 <ButterflyCos+0x48>
		return -FFT64BUTTERFLY[tmp - 32];
     1cc:	67d5                	lui	a5,0x15
     1ce:	0b878793          	addi	a5,a5,184 # 150b8 <__fini_array_end>
     1d2:	953e                	add	a0,a0,a5
     1d4:	fe054503          	lbu	a0,-32(a0)
     1d8:	40a00533          	neg	a0,a0
     1dc:	8082                	ret
		return -FFT64BUTTERFLY[32 - tmp];
     1de:	67d5                	lui	a5,0x15
     1e0:	0b878793          	addi	a5,a5,184 # 150b8 <__fini_array_end>
     1e4:	40a78533          	sub	a0,a5,a0
     1e8:	02054503          	lbu	a0,32(a0)
     1ec:	40a00533          	neg	a0,a0
     1f0:	8082                	ret
		return FFT64BUTTERFLY[tmp];
     1f2:	67d5                	lui	a5,0x15
     1f4:	0b878793          	addi	a5,a5,184 # 150b8 <__fini_array_end>
     1f8:	953e                	add	a0,a0,a5
     1fa:	00054503          	lbu	a0,0(a0)
     1fe:	8082                	ret
		return FFT64BUTTERFLY[64 - tmp];
     200:	67d5                	lui	a5,0x15
     202:	0b878793          	addi	a5,a5,184 # 150b8 <__fini_array_end>
     206:	40a78533          	sub	a0,a5,a0
     20a:	04054503          	lbu	a0,64(a0)
}
     20e:	8082                	ret

00000210 <ButterflySin>:
	if (tmp < 16)
     210:	47bd                	li	a5,15
     212:	02a7da63          	bge	a5,a0,246 <ButterflySin+0x36>
	else if (tmp < 32)
     216:	47fd                	li	a5,31
     218:	02a7d063          	bge	a5,a0,238 <ButterflySin+0x28>
	else if (tmp < 48)
     21c:	02f00793          	li	a5,47
     220:	02a7cb63          	blt	a5,a0,256 <ButterflySin+0x46>
		return -FFT64BUTTERFLY[48 - tmp];
     224:	67d5                	lui	a5,0x15
     226:	0b878793          	addi	a5,a5,184 # 150b8 <__fini_array_end>
     22a:	40a78533          	sub	a0,a5,a0
     22e:	03054503          	lbu	a0,48(a0)
     232:	40a00533          	neg	a0,a0
     236:	8082                	ret
		return FFT64BUTTERFLY[tmp - 16];
     238:	67d5                	lui	a5,0x15
     23a:	0b878793          	addi	a5,a5,184 # 150b8 <__fini_array_end>
     23e:	953e                	add	a0,a0,a5
     240:	ff054503          	lbu	a0,-16(a0)
     244:	8082                	ret
		return FFT64BUTTERFLY[16 - tmp];
     246:	67d5                	lui	a5,0x15
     248:	0b878793          	addi	a5,a5,184 # 150b8 <__fini_array_end>
     24c:	40a78533          	sub	a0,a5,a0
     250:	01054503          	lbu	a0,16(a0)
     254:	8082                	ret
		return -FFT64BUTTERFLY[tmp - 48];
     256:	67d5                	lui	a5,0x15
     258:	0b878793          	addi	a5,a5,184 # 150b8 <__fini_array_end>
     25c:	953e                	add	a0,a0,a5
     25e:	fd054503          	lbu	a0,-48(a0)
     262:	40a00533          	neg	a0,a0
}
     266:	8082                	ret

00000268 <DFT.part.0>:
	{
		for (p = 0; p < 16; p++)
     268:	00251693          	slli	a3,a0,0x2
     26c:	4bc18793          	addi	a5,gp,1212 # 15d74 <DFT_data_real>
void DFT(int point, int k)                                       //point = 64,k表示DFT频谱的第k个离散点，不可以超过point-1
     270:	711d                	addi	sp,sp,-96
     272:	97b6                	add	a5,a5,a3
     274:	00151713          	slli	a4,a0,0x1
		for (p = 0; p < 16; p++)
     278:	972a                	add	a4,a4,a0
     27a:	cc3e                	sw	a5,24(sp)
     27c:	0712                	slli	a4,a4,0x4
     27e:	2bc18793          	addi	a5,gp,700 # 15b74 <DFT_data_imag>
     282:	97b6                	add	a5,a5,a3
void DFT(int point, int k)                                       //point = 64,k表示DFT频谱的第k个离散点，不可以超过point-1
     284:	c8ca                	sw	s2,80(sp)
		for (p = 0; p < 16; p++)
     286:	8f09                	sub	a4,a4,a0
void DFT(int point, int k)                                       //point = 64,k表示DFT频谱的第k个离散点，不可以超过point-1
     288:	caa6                	sw	s1,84(sp)
     28a:	d86a                	sw	s10,48(sp)
     28c:	d66e                	sw	s11,44(sp)
     28e:	ca3e                	sw	a5,20(sp)
     290:	ce86                	sw	ra,92(sp)
     292:	cca2                	sw	s0,88(sp)
     294:	c6ce                	sw	s3,76(sp)
     296:	c4d2                	sw	s4,72(sp)
     298:	c2d6                	sw	s5,68(sp)
     29a:	c0da                	sw	s6,64(sp)
     29c:	de5e                	sw	s7,60(sp)
     29e:	dc62                	sw	s8,56(sp)
     2a0:	da66                	sw	s9,52(sp)
     2a2:	2bc18913          	addi	s2,gp,700 # 15b74 <DFT_data_imag>
     2a6:	00451293          	slli	t0,a0,0x4
     2aa:	02000d93          	li	s11,32
     2ae:	4d41                	li	s10,16
     2b0:	4781                	li	a5,0
		for (p = 0; p < 16; p++)
     2b2:	4481                	li	s1,0
     2b4:	ce3a                	sw	a4,28(sp)
		{
			tmp = (p * k) % 64;
     2b6:	00f286b3          	add	a3,t0,a5
     2ba:	00568733          	add	a4,a3,t0
     2be:	41f7da93          	srai	s5,a5,0x1f
     2c2:	00570fb3          	add	t6,a4,t0
     2c6:	01aad513          	srli	a0,s5,0x1a
			tmp2 = ((p + 16) * k) % 64;
     2ca:	41f6da13          	srai	s4,a3,0x1f
			tmp3 = ((p + 32) * k) % 64;
     2ce:	41f75993          	srai	s3,a4,0x1f
			tmp = (p * k) % 64;
     2d2:	00a78ab3          	add	s5,a5,a0
			tmp4 = ((p + 48) * k) % 64;
     2d6:	41ffd793          	srai	a5,t6,0x1f
     2da:	01a7d613          	srli	a2,a5,0x1a
			tmp2 = ((p + 16) * k) % 64;
     2de:	01aa5813          	srli	a6,s4,0x1a
			tmp3 = ((p + 32) * k) % 64;
     2e2:	01a9d593          	srli	a1,s3,0x1a
			tmp = (p * k) % 64;
     2e6:	03fafa93          	andi	s5,s5,63
			tmp4 = ((p + 48) * k) % 64;
     2ea:	00cf87b3          	add	a5,t6,a2
			tmp2 = ((p + 16) * k) % 64;
     2ee:	01068a33          	add	s4,a3,a6
			tmp3 = ((p + 32) * k) % 64;
     2f2:	00b709b3          	add	s3,a4,a1
			tmp = (p * k) % 64;
     2f6:	40aa8ab3          	sub	s5,s5,a0
			tmp4 = ((p + 48) * k) % 64;
     2fa:	03f7f793          	andi	a5,a5,63
			Butterflycos = ButterflyCos(tmp);
     2fe:	8556                	mv	a0,s5
			tmp2 = ((p + 16) * k) % 64;
     300:	03fa7a13          	andi	s4,s4,63
			tmp3 = ((p + 32) * k) % 64;
     304:	03f9f993          	andi	s3,s3,63
			tmp2 = ((p + 16) * k) % 64;
     308:	410a0a33          	sub	s4,s4,a6
			tmp3 = ((p + 32) * k) % 64;
     30c:	40b989b3          	sub	s3,s3,a1
			tmp4 = ((p + 48) * k) % 64;
     310:	40c78433          	sub	s0,a5,a2
			Butterflycos = ButterflyCos(tmp);
     314:	c816                	sw	t0,16(sp)
			tmp4 = ((p + 48) * k) % 64;
     316:	c67e                	sw	t6,12(sp)
			Butterflycos = ButterflyCos(tmp);
     318:	3545                	jal	1b8 <ButterflyCos>
     31a:	8caa                	mv	s9,a0
			Butterflysin = ButterflySin(tmp);
     31c:	8556                	mv	a0,s5
     31e:	3dcd                	jal	210 <ButterflySin>
     320:	8c2a                	mv	s8,a0
			Butterflycos2 = ButterflyCos(tmp2);
     322:	8552                	mv	a0,s4
     324:	3d51                	jal	1b8 <ButterflyCos>
     326:	8baa                	mv	s7,a0
			Butterflysin2 = ButterflySin(tmp2);
     328:	8552                	mv	a0,s4
     32a:	35dd                	jal	210 <ButterflySin>
     32c:	8b2a                	mv	s6,a0
			Butterflycos3 = ButterflyCos(tmp3);
     32e:	854e                	mv	a0,s3
     330:	3561                	jal	1b8 <ButterflyCos>
     332:	8aaa                	mv	s5,a0
			Butterflysin3 = ButterflySin(tmp3);
     334:	854e                	mv	a0,s3
     336:	3de9                	jal	210 <ButterflySin>
     338:	8a2a                	mv	s4,a0
			Butterflycos4 = ButterflyCos(tmp4);
     33a:	8522                	mv	a0,s0
     33c:	3db5                	jal	1b8 <ButterflyCos>
     33e:	89aa                	mv	s3,a0
			Butterflysin4 = ButterflySin(tmp4);
     340:	8522                	mv	a0,s0
     342:	35f9                	jal	210 <ButterflySin>
     344:	4352                	lw	t1,20(sp)
     346:	48e2                	lw	a7,24(sp)
     348:	4fb2                	lw	t6,12(sp)
     34a:	42c2                	lw	t0,16(sp)
     34c:	8f2a                	mv	t5,a0


			for (int i = 0; i < total_X; i++)
     34e:	f8090613          	addi	a2,s2,-128
     352:	03048513          	addi	a0,s1,48
			{
				DFT_data_real[i][k] += x[i][p] * Butterflycos + x[i][p+16]* Butterflycos2 + x[i][p + 32] * Butterflycos3 + x[i][p + 48] * Butterflycos4;
     356:	40960733          	sub	a4,a2,s1
     35a:	01a707b3          	add	a5,a4,s10
     35e:	00064e83          	lbu	t4,0(a2)
     362:	0007c403          	lbu	s0,0(a5)
     366:	01b707b3          	add	a5,a4,s11
     36a:	972a                	add	a4,a4,a0
     36c:	03dc8833          	mul	a6,s9,t4
     370:	00074683          	lbu	a3,0(a4)
     374:	0007c583          	lbu	a1,0(a5)
     378:	0008a383          	lw	t2,0(a7)
				DFT_data_imag[i][k] += x[i][p] * Butterflysin + x[i][p + 16] * Butterflysin2 + x[i][p + 32] * Butterflysin3 + x[i][p + 48] * Butterflysin4;
     37c:	00032e03          	lw	t3,0(t1) # 1ac <frame_dummy+0x18>
			for (int i = 0; i < total_X; i++)
     380:	10088893          	addi	a7,a7,256
     384:	10030313          	addi	t1,t1,256
     388:	04060613          	addi	a2,a2,64
				DFT_data_real[i][k] += x[i][p] * Butterflycos + x[i][p+16]* Butterflycos2 + x[i][p + 32] * Butterflycos3 + x[i][p + 48] * Butterflycos4;
     38c:	028b8733          	mul	a4,s7,s0
				DFT_data_imag[i][k] += x[i][p] * Butterflysin + x[i][p + 16] * Butterflysin2 + x[i][p + 32] * Butterflysin3 + x[i][p + 48] * Butterflysin4;
     390:	03dc07b3          	mul	a5,s8,t4
				DFT_data_real[i][k] += x[i][p] * Butterflycos + x[i][p+16]* Butterflycos2 + x[i][p + 32] * Butterflycos3 + x[i][p + 48] * Butterflycos4;
     394:	9742                	add	a4,a4,a6
				DFT_data_imag[i][k] += x[i][p] * Butterflysin + x[i][p + 16] * Butterflysin2 + x[i][p + 32] * Butterflysin3 + x[i][p + 48] * Butterflysin4;
     396:	028b0833          	mul	a6,s6,s0
				DFT_data_real[i][k] += x[i][p] * Butterflycos + x[i][p+16]* Butterflycos2 + x[i][p + 32] * Butterflycos3 + x[i][p + 48] * Butterflycos4;
     39a:	02ba8433          	mul	s0,s5,a1
				DFT_data_imag[i][k] += x[i][p] * Butterflysin + x[i][p + 16] * Butterflysin2 + x[i][p + 32] * Butterflysin3 + x[i][p + 48] * Butterflysin4;
     39e:	983e                	add	a6,a6,a5
     3a0:	02ba05b3          	mul	a1,s4,a1
				DFT_data_real[i][k] += x[i][p] * Butterflycos + x[i][p+16]* Butterflycos2 + x[i][p + 32] * Butterflycos3 + x[i][p + 48] * Butterflycos4;
     3a4:	9722                	add	a4,a4,s0
     3a6:	02d98eb3          	mul	t4,s3,a3
				DFT_data_imag[i][k] += x[i][p] * Butterflysin + x[i][p + 16] * Butterflysin2 + x[i][p + 32] * Butterflysin3 + x[i][p + 48] * Butterflysin4;
     3aa:	00b807b3          	add	a5,a6,a1
     3ae:	02df06b3          	mul	a3,t5,a3
				DFT_data_real[i][k] += x[i][p] * Butterflycos + x[i][p+16]* Butterflycos2 + x[i][p + 32] * Butterflycos3 + x[i][p + 48] * Butterflycos4;
     3b2:	9776                	add	a4,a4,t4
     3b4:	971e                	add	a4,a4,t2
     3b6:	f0e8a023          	sw	a4,-256(a7)
				DFT_data_imag[i][k] += x[i][p] * Butterflysin + x[i][p + 16] * Butterflysin2 + x[i][p + 32] * Butterflysin3 + x[i][p + 48] * Butterflysin4;
     3ba:	97b6                	add	a5,a5,a3
     3bc:	97f2                	add	a5,a5,t3
     3be:	f0f32023          	sw	a5,-256(t1)
			for (int i = 0; i < total_X; i++)
     3c2:	f8c91ae3          	bne	s2,a2,356 <DFT.part.0+0xee>
		for (p = 0; p < 16; p++)
     3c6:	47f2                	lw	a5,28(sp)
     3c8:	0485                	addi	s1,s1,1
     3ca:	4741                	li	a4,16
     3cc:	40ff87b3          	sub	a5,t6,a5
     3d0:	0d05                	addi	s10,s10,1
     3d2:	0d85                	addi	s11,s11,1
     3d4:	0905                	addi	s2,s2,1
     3d6:	eee490e3          	bne	s1,a4,2b6 <DFT.part.0+0x4e>
			}

		}
	}
}
     3da:	40f6                	lw	ra,92(sp)
     3dc:	4466                	lw	s0,88(sp)
     3de:	44d6                	lw	s1,84(sp)
     3e0:	4946                	lw	s2,80(sp)
     3e2:	49b6                	lw	s3,76(sp)
     3e4:	4a26                	lw	s4,72(sp)
     3e6:	4a96                	lw	s5,68(sp)
     3e8:	4b06                	lw	s6,64(sp)
     3ea:	5bf2                	lw	s7,60(sp)
     3ec:	5c62                	lw	s8,56(sp)
     3ee:	5cd2                	lw	s9,52(sp)
     3f0:	5d42                	lw	s10,48(sp)
     3f2:	5db2                	lw	s11,44(sp)
     3f4:	6125                	addi	sp,sp,96
     3f6:	8082                	ret

000003f8 <DFT>:
	if (point == 64)
     3f8:	04000793          	li	a5,64
     3fc:	00f50363          	beq	a0,a5,402 <DFT+0xa>
}
     400:	8082                	ret
     402:	852e                	mv	a0,a1
     404:	b595                	j	268 <DFT.part.0>
	...

00000408 <exit>:
     408:	ff010113          	addi	sp,sp,-16
     40c:	00000593          	li	a1,0
     410:	00812423          	sw	s0,8(sp)
     414:	00112623          	sw	ra,12(sp)
     418:	00050413          	mv	s0,a0
     41c:	62d020ef          	jal	ra,3248 <__call_exitprocs>
     420:	1d01a503          	lw	a0,464(gp) # 15a88 <_global_impure_ptr>
     424:	03c52783          	lw	a5,60(a0)
     428:	00078463          	beqz	a5,430 <exit+0x28>
     42c:	000780e7          	jalr	a5
     430:	00040513          	mv	a0,s0
     434:	5ac0f0ef          	jal	ra,f9e0 <_exit>

00000438 <__libc_init_array>:
     438:	ff010113          	addi	sp,sp,-16
     43c:	00812423          	sw	s0,8(sp)
     440:	01212023          	sw	s2,0(sp)
     444:	00015437          	lui	s0,0x15
     448:	00015937          	lui	s2,0x15
     44c:	0ac40793          	addi	a5,s0,172 # 150ac <__init_array_start>
     450:	0ac90913          	addi	s2,s2,172 # 150ac <__init_array_start>
     454:	40f90933          	sub	s2,s2,a5
     458:	00112623          	sw	ra,12(sp)
     45c:	00912223          	sw	s1,4(sp)
     460:	40295913          	srai	s2,s2,0x2
     464:	02090063          	beqz	s2,484 <__libc_init_array+0x4c>
     468:	0ac40413          	addi	s0,s0,172
     46c:	00000493          	li	s1,0
     470:	00042783          	lw	a5,0(s0)
     474:	00148493          	addi	s1,s1,1
     478:	00440413          	addi	s0,s0,4
     47c:	000780e7          	jalr	a5
     480:	fe9918e3          	bne	s2,s1,470 <__libc_init_array+0x38>
     484:	00015437          	lui	s0,0x15
     488:	00015937          	lui	s2,0x15
     48c:	0ac40793          	addi	a5,s0,172 # 150ac <__init_array_start>
     490:	0b490913          	addi	s2,s2,180 # 150b4 <__init_array_end>
     494:	40f90933          	sub	s2,s2,a5
     498:	40295913          	srai	s2,s2,0x2
     49c:	02090063          	beqz	s2,4bc <__libc_init_array+0x84>
     4a0:	0ac40413          	addi	s0,s0,172
     4a4:	00000493          	li	s1,0
     4a8:	00042783          	lw	a5,0(s0)
     4ac:	00148493          	addi	s1,s1,1
     4b0:	00440413          	addi	s0,s0,4
     4b4:	000780e7          	jalr	a5
     4b8:	fe9918e3          	bne	s2,s1,4a8 <__libc_init_array+0x70>
     4bc:	00c12083          	lw	ra,12(sp)
     4c0:	00812403          	lw	s0,8(sp)
     4c4:	00412483          	lw	s1,4(sp)
     4c8:	00012903          	lw	s2,0(sp)
     4cc:	01010113          	addi	sp,sp,16
     4d0:	00008067          	ret

000004d4 <memset>:
     4d4:	00f00313          	li	t1,15
     4d8:	00050713          	mv	a4,a0
     4dc:	02c37e63          	bgeu	t1,a2,518 <memset+0x44>
     4e0:	00f77793          	andi	a5,a4,15
     4e4:	0a079063          	bnez	a5,584 <memset+0xb0>
     4e8:	08059263          	bnez	a1,56c <memset+0x98>
     4ec:	ff067693          	andi	a3,a2,-16
     4f0:	00f67613          	andi	a2,a2,15
     4f4:	00e686b3          	add	a3,a3,a4
     4f8:	00b72023          	sw	a1,0(a4)
     4fc:	00b72223          	sw	a1,4(a4)
     500:	00b72423          	sw	a1,8(a4)
     504:	00b72623          	sw	a1,12(a4)
     508:	01070713          	addi	a4,a4,16
     50c:	fed766e3          	bltu	a4,a3,4f8 <memset+0x24>
     510:	00061463          	bnez	a2,518 <memset+0x44>
     514:	00008067          	ret
     518:	40c306b3          	sub	a3,t1,a2
     51c:	00269693          	slli	a3,a3,0x2
     520:	00000297          	auipc	t0,0x0
     524:	005686b3          	add	a3,a3,t0
     528:	00c68067          	jr	12(a3)
     52c:	00b70723          	sb	a1,14(a4)
     530:	00b706a3          	sb	a1,13(a4)
     534:	00b70623          	sb	a1,12(a4)
     538:	00b705a3          	sb	a1,11(a4)
     53c:	00b70523          	sb	a1,10(a4)
     540:	00b704a3          	sb	a1,9(a4)
     544:	00b70423          	sb	a1,8(a4)
     548:	00b703a3          	sb	a1,7(a4)
     54c:	00b70323          	sb	a1,6(a4)
     550:	00b702a3          	sb	a1,5(a4)
     554:	00b70223          	sb	a1,4(a4)
     558:	00b701a3          	sb	a1,3(a4)
     55c:	00b70123          	sb	a1,2(a4)
     560:	00b700a3          	sb	a1,1(a4)
     564:	00b70023          	sb	a1,0(a4)
     568:	00008067          	ret
     56c:	0ff5f593          	andi	a1,a1,255
     570:	00859693          	slli	a3,a1,0x8
     574:	00d5e5b3          	or	a1,a1,a3
     578:	01059693          	slli	a3,a1,0x10
     57c:	00d5e5b3          	or	a1,a1,a3
     580:	f6dff06f          	j	4ec <memset+0x18>
     584:	00279693          	slli	a3,a5,0x2
     588:	00000297          	auipc	t0,0x0
     58c:	005686b3          	add	a3,a3,t0
     590:	00008293          	mv	t0,ra
     594:	fa0680e7          	jalr	-96(a3)
     598:	00028093          	mv	ra,t0
     59c:	ff078793          	addi	a5,a5,-16
     5a0:	40f70733          	sub	a4,a4,a5
     5a4:	00f60633          	add	a2,a2,a5
     5a8:	f6c378e3          	bgeu	t1,a2,518 <memset+0x44>
     5ac:	f3dff06f          	j	4e8 <memset+0x14>

000005b0 <_printf_r>:
     5b0:	fc010113          	addi	sp,sp,-64
     5b4:	02c12423          	sw	a2,40(sp)
     5b8:	02d12623          	sw	a3,44(sp)
     5bc:	02e12823          	sw	a4,48(sp)
     5c0:	02f12a23          	sw	a5,52(sp)
     5c4:	03012c23          	sw	a6,56(sp)
     5c8:	03112e23          	sw	a7,60(sp)
     5cc:	00058613          	mv	a2,a1
     5d0:	00852583          	lw	a1,8(a0)
     5d4:	02810693          	addi	a3,sp,40
     5d8:	00112e23          	sw	ra,28(sp)
     5dc:	00d12623          	sw	a3,12(sp)
     5e0:	05c000ef          	jal	ra,63c <_vfprintf_r>
     5e4:	01c12083          	lw	ra,28(sp)
     5e8:	04010113          	addi	sp,sp,64
     5ec:	00008067          	ret

000005f0 <printf>:
     5f0:	1d81a303          	lw	t1,472(gp) # 15a90 <_impure_ptr>
     5f4:	fc010113          	addi	sp,sp,-64
     5f8:	02c12423          	sw	a2,40(sp)
     5fc:	02d12623          	sw	a3,44(sp)
     600:	02b12223          	sw	a1,36(sp)
     604:	02e12823          	sw	a4,48(sp)
     608:	02f12a23          	sw	a5,52(sp)
     60c:	03012c23          	sw	a6,56(sp)
     610:	03112e23          	sw	a7,60(sp)
     614:	00832583          	lw	a1,8(t1)
     618:	02410693          	addi	a3,sp,36
     61c:	00050613          	mv	a2,a0
     620:	00030513          	mv	a0,t1
     624:	00112e23          	sw	ra,28(sp)
     628:	00d12623          	sw	a3,12(sp)
     62c:	010000ef          	jal	ra,63c <_vfprintf_r>
     630:	01c12083          	lw	ra,28(sp)
     634:	04010113          	addi	sp,sp,64
     638:	00008067          	ret

0000063c <_vfprintf_r>:
     63c:	e1010113          	addi	sp,sp,-496
     640:	1e112623          	sw	ra,492(sp)
     644:	1f212023          	sw	s2,480(sp)
     648:	1d812423          	sw	s8,456(sp)
     64c:	1da12023          	sw	s10,448(sp)
     650:	00058c13          	mv	s8,a1
     654:	00060913          	mv	s2,a2
     658:	00d12a23          	sw	a3,20(sp)
     65c:	1e812423          	sw	s0,488(sp)
     660:	1e912223          	sw	s1,484(sp)
     664:	1d312e23          	sw	s3,476(sp)
     668:	1d412c23          	sw	s4,472(sp)
     66c:	1d512a23          	sw	s5,468(sp)
     670:	1d612823          	sw	s6,464(sp)
     674:	1d712623          	sw	s7,460(sp)
     678:	1d912223          	sw	s9,452(sp)
     67c:	1bb12e23          	sw	s11,444(sp)
     680:	00050d13          	mv	s10,a0
     684:	408060ef          	jal	ra,6a8c <_localeconv_r>
     688:	00052783          	lw	a5,0(a0)
     68c:	00078513          	mv	a0,a5
     690:	02f12823          	sw	a5,48(sp)
     694:	65c080ef          	jal	ra,8cf0 <strlen>
     698:	02a12623          	sw	a0,44(sp)
     69c:	0e012823          	sw	zero,240(sp)
     6a0:	0e012a23          	sw	zero,244(sp)
     6a4:	0e012c23          	sw	zero,248(sp)
     6a8:	0e012e23          	sw	zero,252(sp)
     6ac:	000d0663          	beqz	s10,6b8 <_vfprintf_r+0x7c>
     6b0:	038d2783          	lw	a5,56(s10)
     6b4:	0e0788e3          	beqz	a5,fa4 <_vfprintf_r+0x968>
     6b8:	00cc1683          	lh	a3,12(s8)
     6bc:	01069793          	slli	a5,a3,0x10
     6c0:	01269713          	slli	a4,a3,0x12
     6c4:	0107d793          	srli	a5,a5,0x10
     6c8:	02074663          	bltz	a4,6f4 <_vfprintf_r+0xb8>
     6cc:	064c2603          	lw	a2,100(s8)
     6d0:	000027b7          	lui	a5,0x2
     6d4:	00f6e7b3          	or	a5,a3,a5
     6d8:	ffffe6b7          	lui	a3,0xffffe
     6dc:	fff68693          	addi	a3,a3,-1 # ffffdfff <//.+0xfffe8087>
     6e0:	00d676b3          	and	a3,a2,a3
     6e4:	00fc1623          	sh	a5,12(s8)
     6e8:	01079793          	slli	a5,a5,0x10
     6ec:	06dc2223          	sw	a3,100(s8)
     6f0:	0107d793          	srli	a5,a5,0x10
     6f4:	0087f693          	andi	a3,a5,8
     6f8:	2e068663          	beqz	a3,9e4 <_vfprintf_r+0x3a8>
     6fc:	010c2683          	lw	a3,16(s8)
     700:	2e068263          	beqz	a3,9e4 <_vfprintf_r+0x3a8>
     704:	01a7f793          	andi	a5,a5,26
     708:	00a00693          	li	a3,10
     70c:	2ed78e63          	beq	a5,a3,a08 <_vfprintf_r+0x3cc>
     710:	10c10793          	addi	a5,sp,268
     714:	0ef12223          	sw	a5,228(sp)
     718:	00078893          	mv	a7,a5
     71c:	000147b7          	lui	a5,0x14
     720:	2e878793          	addi	a5,a5,744 # 142e8 <__clzsi2+0xd0>
     724:	00f12c23          	sw	a5,24(sp)
     728:	000147b7          	lui	a5,0x14
     72c:	46478793          	addi	a5,a5,1124 # 14464 <zeroes.4486>
     730:	00090b13          	mv	s6,s2
     734:	00f12423          	sw	a5,8(sp)
     738:	000b4783          	lbu	a5,0(s6)
     73c:	0e012623          	sw	zero,236(sp)
     740:	0e012423          	sw	zero,232(sp)
     744:	02012023          	sw	zero,32(sp)
     748:	02012a23          	sw	zero,52(sp)
     74c:	02012c23          	sw	zero,56(sp)
     750:	02012e23          	sw	zero,60(sp)
     754:	04012423          	sw	zero,72(sp)
     758:	04012623          	sw	zero,76(sp)
     75c:	00012623          	sw	zero,12(sp)
     760:	22078463          	beqz	a5,988 <_vfprintf_r+0x34c>
     764:	000b0413          	mv	s0,s6
     768:	02500713          	li	a4,37
     76c:	30e78863          	beq	a5,a4,a7c <_vfprintf_r+0x440>
     770:	00144783          	lbu	a5,1(s0)
     774:	00140413          	addi	s0,s0,1
     778:	fe079ae3          	bnez	a5,76c <_vfprintf_r+0x130>
     77c:	416404b3          	sub	s1,s0,s6
     780:	21640463          	beq	s0,s6,988 <_vfprintf_r+0x34c>
     784:	0ec12703          	lw	a4,236(sp)
     788:	0e812783          	lw	a5,232(sp)
     78c:	0168a023          	sw	s6,0(a7)
     790:	00970733          	add	a4,a4,s1
     794:	00178793          	addi	a5,a5,1
     798:	0098a223          	sw	s1,4(a7)
     79c:	0ee12623          	sw	a4,236(sp)
     7a0:	0ef12423          	sw	a5,232(sp)
     7a4:	00700713          	li	a4,7
     7a8:	00888893          	addi	a7,a7,8
     7ac:	2ef74063          	blt	a4,a5,a8c <_vfprintf_r+0x450>
     7b0:	00c12703          	lw	a4,12(sp)
     7b4:	00044783          	lbu	a5,0(s0)
     7b8:	00970733          	add	a4,a4,s1
     7bc:	00e12623          	sw	a4,12(sp)
     7c0:	1c078463          	beqz	a5,988 <_vfprintf_r+0x34c>
     7c4:	00144483          	lbu	s1,1(s0)
     7c8:	0c0103a3          	sb	zero,199(sp)
     7cc:	00140413          	addi	s0,s0,1
     7d0:	fff00d93          	li	s11,-1
     7d4:	00000993          	li	s3,0
     7d8:	00000a13          	li	s4,0
     7dc:	05a00913          	li	s2,90
     7e0:	00900a93          	li	s5,9
     7e4:	02a00b93          	li	s7,42
     7e8:	00088c93          	mv	s9,a7
     7ec:	00140413          	addi	s0,s0,1
     7f0:	fe048793          	addi	a5,s1,-32
     7f4:	04f96463          	bltu	s2,a5,83c <_vfprintf_r+0x200>
     7f8:	01812703          	lw	a4,24(sp)
     7fc:	00279793          	slli	a5,a5,0x2
     800:	00e787b3          	add	a5,a5,a4
     804:	0007a783          	lw	a5,0(a5)
     808:	00078067          	jr	a5
     80c:	00000993          	li	s3,0
     810:	fd048693          	addi	a3,s1,-48
     814:	00044483          	lbu	s1,0(s0)
     818:	00299793          	slli	a5,s3,0x2
     81c:	013787b3          	add	a5,a5,s3
     820:	00179793          	slli	a5,a5,0x1
     824:	00f689b3          	add	s3,a3,a5
     828:	fd048693          	addi	a3,s1,-48
     82c:	00140413          	addi	s0,s0,1
     830:	fedaf2e3          	bgeu	s5,a3,814 <_vfprintf_r+0x1d8>
     834:	fe048793          	addi	a5,s1,-32
     838:	fcf970e3          	bgeu	s2,a5,7f8 <_vfprintf_r+0x1bc>
     83c:	000c8893          	mv	a7,s9
     840:	14048463          	beqz	s1,988 <_vfprintf_r+0x34c>
     844:	14910623          	sb	s1,332(sp)
     848:	0c0103a3          	sb	zero,199(sp)
     84c:	00100a93          	li	s5,1
     850:	00100c93          	li	s9,1
     854:	14c10b13          	addi	s6,sp,332
     858:	00012823          	sw	zero,16(sp)
     85c:	00000d93          	li	s11,0
     860:	02012423          	sw	zero,40(sp)
     864:	02012223          	sw	zero,36(sp)
     868:	00012e23          	sw	zero,28(sp)
     86c:	002a7b93          	andi	s7,s4,2
     870:	000b8463          	beqz	s7,878 <_vfprintf_r+0x23c>
     874:	002a8a93          	addi	s5,s5,2
     878:	084a7913          	andi	s2,s4,132
     87c:	0ec12783          	lw	a5,236(sp)
     880:	00091663          	bnez	s2,88c <_vfprintf_r+0x250>
     884:	415986b3          	sub	a3,s3,s5
     888:	62d04ce3          	bgtz	a3,16c0 <_vfprintf_r+0x1084>
     88c:	0c714703          	lbu	a4,199(sp)
     890:	02070a63          	beqz	a4,8c4 <_vfprintf_r+0x288>
     894:	0e812703          	lw	a4,232(sp)
     898:	0c710693          	addi	a3,sp,199
     89c:	00d8a023          	sw	a3,0(a7)
     8a0:	00178793          	addi	a5,a5,1
     8a4:	00100693          	li	a3,1
     8a8:	00170713          	addi	a4,a4,1
     8ac:	00d8a223          	sw	a3,4(a7)
     8b0:	0ef12623          	sw	a5,236(sp)
     8b4:	0ee12423          	sw	a4,232(sp)
     8b8:	00700693          	li	a3,7
     8bc:	00888893          	addi	a7,a7,8
     8c0:	4ce6cc63          	blt	a3,a4,d98 <_vfprintf_r+0x75c>
     8c4:	020b8a63          	beqz	s7,8f8 <_vfprintf_r+0x2bc>
     8c8:	0e812703          	lw	a4,232(sp)
     8cc:	0c810693          	addi	a3,sp,200
     8d0:	00d8a023          	sw	a3,0(a7)
     8d4:	00278793          	addi	a5,a5,2
     8d8:	00200693          	li	a3,2
     8dc:	00170713          	addi	a4,a4,1
     8e0:	00d8a223          	sw	a3,4(a7)
     8e4:	0ef12623          	sw	a5,236(sp)
     8e8:	0ee12423          	sw	a4,232(sp)
     8ec:	00700693          	li	a3,7
     8f0:	00888893          	addi	a7,a7,8
     8f4:	6ae6cee3          	blt	a3,a4,17b0 <_vfprintf_r+0x1174>
     8f8:	08000713          	li	a4,128
     8fc:	42e902e3          	beq	s2,a4,1520 <_vfprintf_r+0xee4>
     900:	419d8db3          	sub	s11,s11,s9
     904:	4db04ee3          	bgtz	s11,15e0 <_vfprintf_r+0xfa4>
     908:	100a7713          	andi	a4,s4,256
     90c:	2c071ce3          	bnez	a4,13e4 <_vfprintf_r+0xda8>
     910:	0e812703          	lw	a4,232(sp)
     914:	019787b3          	add	a5,a5,s9
     918:	0168a023          	sw	s6,0(a7)
     91c:	00170713          	addi	a4,a4,1
     920:	0198a223          	sw	s9,4(a7)
     924:	0ef12623          	sw	a5,236(sp)
     928:	0ee12423          	sw	a4,232(sp)
     92c:	00700693          	li	a3,7
     930:	58e6ce63          	blt	a3,a4,ecc <_vfprintf_r+0x890>
     934:	00888893          	addi	a7,a7,8
     938:	004a7a13          	andi	s4,s4,4
     93c:	000a0663          	beqz	s4,948 <_vfprintf_r+0x30c>
     940:	415984b3          	sub	s1,s3,s5
     944:	5a904463          	bgtz	s1,eec <_vfprintf_r+0x8b0>
     948:	0159d463          	bge	s3,s5,950 <_vfprintf_r+0x314>
     94c:	000a8993          	mv	s3,s5
     950:	00c12703          	lw	a4,12(sp)
     954:	01370733          	add	a4,a4,s3
     958:	00e12623          	sw	a4,12(sp)
     95c:	52079ce3          	bnez	a5,1694 <_vfprintf_r+0x1058>
     960:	01012783          	lw	a5,16(sp)
     964:	0e012423          	sw	zero,232(sp)
     968:	00078863          	beqz	a5,978 <_vfprintf_r+0x33c>
     96c:	01012583          	lw	a1,16(sp)
     970:	000d0513          	mv	a0,s10
     974:	1b8030ef          	jal	ra,3b2c <_free_r>
     978:	10c10893          	addi	a7,sp,268
     97c:	00040b13          	mv	s6,s0
     980:	000b4783          	lbu	a5,0(s6)
     984:	de0790e3          	bnez	a5,764 <_vfprintf_r+0x128>
     988:	0ec12783          	lw	a5,236(sp)
     98c:	00078463          	beqz	a5,994 <_vfprintf_r+0x358>
     990:	2ad0106f          	j	243c <_vfprintf_r+0x1e00>
     994:	00cc5783          	lhu	a5,12(s8)
     998:	0407f793          	andi	a5,a5,64
     99c:	00078463          	beqz	a5,9a4 <_vfprintf_r+0x368>
     9a0:	2140206f          	j	2bb4 <_vfprintf_r+0x2578>
     9a4:	1ec12083          	lw	ra,492(sp)
     9a8:	1e812403          	lw	s0,488(sp)
     9ac:	00c12503          	lw	a0,12(sp)
     9b0:	1e412483          	lw	s1,484(sp)
     9b4:	1e012903          	lw	s2,480(sp)
     9b8:	1dc12983          	lw	s3,476(sp)
     9bc:	1d812a03          	lw	s4,472(sp)
     9c0:	1d412a83          	lw	s5,468(sp)
     9c4:	1d012b03          	lw	s6,464(sp)
     9c8:	1cc12b83          	lw	s7,460(sp)
     9cc:	1c812c03          	lw	s8,456(sp)
     9d0:	1c412c83          	lw	s9,452(sp)
     9d4:	1c012d03          	lw	s10,448(sp)
     9d8:	1bc12d83          	lw	s11,444(sp)
     9dc:	1f010113          	addi	sp,sp,496
     9e0:	00008067          	ret
     9e4:	000c0593          	mv	a1,s8
     9e8:	000d0513          	mv	a0,s10
     9ec:	700020ef          	jal	ra,30ec <__swsetup_r>
     9f0:	00050463          	beqz	a0,9f8 <_vfprintf_r+0x3bc>
     9f4:	1c00206f          	j	2bb4 <_vfprintf_r+0x2578>
     9f8:	00cc5783          	lhu	a5,12(s8)
     9fc:	00a00693          	li	a3,10
     a00:	01a7f793          	andi	a5,a5,26
     a04:	d0d796e3          	bne	a5,a3,710 <_vfprintf_r+0xd4>
     a08:	00ec1783          	lh	a5,14(s8)
     a0c:	d007c2e3          	bltz	a5,710 <_vfprintf_r+0xd4>
     a10:	01412683          	lw	a3,20(sp)
     a14:	00090613          	mv	a2,s2
     a18:	000c0593          	mv	a1,s8
     a1c:	000d0513          	mv	a0,s10
     a20:	60c020ef          	jal	ra,302c <__sbprintf>
     a24:	00a12623          	sw	a0,12(sp)
     a28:	f7dff06f          	j	9a4 <_vfprintf_r+0x368>
     a2c:	000d0513          	mv	a0,s10
     a30:	05c060ef          	jal	ra,6a8c <_localeconv_r>
     a34:	00452783          	lw	a5,4(a0)
     a38:	00078513          	mv	a0,a5
     a3c:	04f12623          	sw	a5,76(sp)
     a40:	2b0080ef          	jal	ra,8cf0 <strlen>
     a44:	00050793          	mv	a5,a0
     a48:	000d0513          	mv	a0,s10
     a4c:	00078493          	mv	s1,a5
     a50:	04f12423          	sw	a5,72(sp)
     a54:	038060ef          	jal	ra,6a8c <_localeconv_r>
     a58:	00852783          	lw	a5,8(a0)
     a5c:	02f12e23          	sw	a5,60(sp)
     a60:	00048463          	beqz	s1,a68 <_vfprintf_r+0x42c>
     a64:	0780106f          	j	1adc <_vfprintf_r+0x14a0>
     a68:	00044483          	lbu	s1,0(s0)
     a6c:	d81ff06f          	j	7ec <_vfprintf_r+0x1b0>
     a70:	00044483          	lbu	s1,0(s0)
     a74:	020a6a13          	ori	s4,s4,32
     a78:	d75ff06f          	j	7ec <_vfprintf_r+0x1b0>
     a7c:	416404b3          	sub	s1,s0,s6
     a80:	d16412e3          	bne	s0,s6,784 <_vfprintf_r+0x148>
     a84:	00044783          	lbu	a5,0(s0)
     a88:	d39ff06f          	j	7c0 <_vfprintf_r+0x184>
     a8c:	0e410613          	addi	a2,sp,228
     a90:	000c0593          	mv	a1,s8
     a94:	000d0513          	mv	a0,s10
     a98:	5f90a0ef          	jal	ra,b890 <__sprint_r>
     a9c:	ee051ce3          	bnez	a0,994 <_vfprintf_r+0x358>
     aa0:	10c10893          	addi	a7,sp,268
     aa4:	d0dff06f          	j	7b0 <_vfprintf_r+0x174>
     aa8:	008a7793          	andi	a5,s4,8
     aac:	000c8893          	mv	a7,s9
     ab0:	00078463          	beqz	a5,ab8 <_vfprintf_r+0x47c>
     ab4:	0600106f          	j	1b14 <_vfprintf_r+0x14d8>
     ab8:	01412783          	lw	a5,20(sp)
     abc:	0b010513          	addi	a0,sp,176
     ac0:	01912823          	sw	s9,16(sp)
     ac4:	00778793          	addi	a5,a5,7
     ac8:	ff87f793          	andi	a5,a5,-8
     acc:	0007a583          	lw	a1,0(a5)
     ad0:	0047a603          	lw	a2,4(a5)
     ad4:	00878793          	addi	a5,a5,8
     ad8:	00f12a23          	sw	a5,20(sp)
     adc:	1e8130ef          	jal	ra,13cc4 <__extenddftf2>
     ae0:	0b012783          	lw	a5,176(sp)
     ae4:	01012883          	lw	a7,16(sp)
     ae8:	0ef12823          	sw	a5,240(sp)
     aec:	0b412783          	lw	a5,180(sp)
     af0:	0ef12a23          	sw	a5,244(sp)
     af4:	0b812783          	lw	a5,184(sp)
     af8:	0ef12c23          	sw	a5,248(sp)
     afc:	0bc12783          	lw	a5,188(sp)
     b00:	0ef12e23          	sw	a5,252(sp)
     b04:	0f010513          	addi	a0,sp,240
     b08:	01112823          	sw	a7,16(sp)
     b0c:	715050ef          	jal	ra,6a20 <_ldcheck>
     b10:	0ca12623          	sw	a0,204(sp)
     b14:	00200793          	li	a5,2
     b18:	01012883          	lw	a7,16(sp)
     b1c:	00f51463          	bne	a0,a5,b24 <_vfprintf_r+0x4e8>
     b20:	4280106f          	j	1f48 <_vfprintf_r+0x190c>
     b24:	00100793          	li	a5,1
     b28:	00f51463          	bne	a0,a5,b30 <_vfprintf_r+0x4f4>
     b2c:	5cc0106f          	j	20f8 <_vfprintf_r+0x1abc>
     b30:	06100793          	li	a5,97
     b34:	00f49463          	bne	s1,a5,b3c <_vfprintf_r+0x500>
     b38:	1dc0206f          	j	2d14 <_vfprintf_r+0x26d8>
     b3c:	04100793          	li	a5,65
     b40:	00f49463          	bne	s1,a5,b48 <_vfprintf_r+0x50c>
     b44:	1410106f          	j	2484 <_vfprintf_r+0x1e48>
     b48:	fdf4f713          	andi	a4,s1,-33
     b4c:	fff00793          	li	a5,-1
     b50:	02e12423          	sw	a4,40(sp)
     b54:	00fd9463          	bne	s11,a5,b5c <_vfprintf_r+0x520>
     b58:	2480206f          	j	2da0 <_vfprintf_r+0x2764>
     b5c:	04700793          	li	a5,71
     b60:	00f71463          	bne	a4,a5,b68 <_vfprintf_r+0x52c>
     b64:	22c0206f          	j	2d90 <_vfprintf_r+0x2754>
     b68:	0fc12b83          	lw	s7,252(sp)
     b6c:	05412823          	sw	s4,80(sp)
     b70:	0f012e03          	lw	t3,240(sp)
     b74:	0f412e83          	lw	t4,244(sp)
     b78:	0f812f03          	lw	t5,248(sp)
     b7c:	100a6793          	ori	a5,s4,256
     b80:	000bd463          	bgez	s7,b88 <_vfprintf_r+0x54c>
     b84:	5990106f          	j	291c <_vfprintf_r+0x22e0>
     b88:	04012c23          	sw	zero,88(sp)
     b8c:	00078a13          	mv	s4,a5
     b90:	00012823          	sw	zero,16(sp)
     b94:	02812703          	lw	a4,40(sp)
     b98:	04600793          	li	a5,70
     b9c:	00f71463          	bne	a4,a5,ba4 <_vfprintf_r+0x568>
     ba0:	5c10106f          	j	2960 <_vfprintf_r+0x2324>
     ba4:	04500793          	li	a5,69
     ba8:	05112023          	sw	a7,64(sp)
     bac:	00f71463          	bne	a4,a5,bb4 <_vfprintf_r+0x578>
     bb0:	0f80206f          	j	2ca8 <_vfprintf_r+0x266c>
     bb4:	0b010a93          	addi	s5,sp,176
     bb8:	0d010793          	addi	a5,sp,208
     bbc:	0cc10713          	addi	a4,sp,204
     bc0:	0dc10813          	addi	a6,sp,220
     bc4:	000d8693          	mv	a3,s11
     bc8:	00200613          	li	a2,2
     bcc:	000a8593          	mv	a1,s5
     bd0:	000d0513          	mv	a0,s10
     bd4:	0bc12823          	sw	t3,176(sp)
     bd8:	03c12223          	sw	t3,36(sp)
     bdc:	0bd12a23          	sw	t4,180(sp)
     be0:	03d12023          	sw	t4,32(sp)
     be4:	0be12c23          	sw	t5,184(sp)
     be8:	01e12e23          	sw	t5,28(sp)
     bec:	0b712e23          	sw	s7,188(sp)
     bf0:	431040ef          	jal	ra,5820 <_ldtoa_r>
     bf4:	02812703          	lw	a4,40(sp)
     bf8:	04700793          	li	a5,71
     bfc:	01c12f03          	lw	t5,28(sp)
     c00:	02012e83          	lw	t4,32(sp)
     c04:	02412e03          	lw	t3,36(sp)
     c08:	04012883          	lw	a7,64(sp)
     c0c:	00050b13          	mv	s6,a0
     c10:	00f70463          	beq	a4,a5,c18 <_vfprintf_r+0x5dc>
     c14:	3f80206f          	j	300c <_vfprintf_r+0x29d0>
     c18:	05012783          	lw	a5,80(sp)
     c1c:	0017f793          	andi	a5,a5,1
     c20:	00078463          	beqz	a5,c28 <_vfprintf_r+0x5ec>
     c24:	1600206f          	j	2d84 <_vfprintf_r+0x2748>
     c28:	0dc12683          	lw	a3,220(sp)
     c2c:	416687b3          	sub	a5,a3,s6
     c30:	02f12023          	sw	a5,32(sp)
     c34:	0cc12703          	lw	a4,204(sp)
     c38:	04700793          	li	a5,71
     c3c:	00e12e23          	sw	a4,28(sp)
     c40:	02812703          	lw	a4,40(sp)
     c44:	00f71463          	bne	a4,a5,c4c <_vfprintf_r+0x610>
     c48:	4350106f          	j	287c <_vfprintf_r+0x2240>
     c4c:	02812703          	lw	a4,40(sp)
     c50:	04600793          	li	a5,70
     c54:	00f71463          	bne	a4,a5,c5c <_vfprintf_r+0x620>
     c58:	6b50106f          	j	2b0c <_vfprintf_r+0x24d0>
     c5c:	01c12783          	lw	a5,28(sp)
     c60:	02812583          	lw	a1,40(sp)
     c64:	04100613          	li	a2,65
     c68:	fff78793          	addi	a5,a5,-1
     c6c:	0cf12623          	sw	a5,204(sp)
     c70:	0ff4f713          	andi	a4,s1,255
     c74:	00000693          	li	a3,0
     c78:	00c59863          	bne	a1,a2,c88 <_vfprintf_r+0x64c>
     c7c:	00f70713          	addi	a4,a4,15
     c80:	0ff77713          	andi	a4,a4,255
     c84:	00100693          	li	a3,1
     c88:	0ce10a23          	sb	a4,212(sp)
     c8c:	02b00713          	li	a4,43
     c90:	0007da63          	bgez	a5,ca4 <_vfprintf_r+0x668>
     c94:	01c12703          	lw	a4,28(sp)
     c98:	00100793          	li	a5,1
     c9c:	40e787b3          	sub	a5,a5,a4
     ca0:	02d00713          	li	a4,45
     ca4:	0ce10aa3          	sb	a4,213(sp)
     ca8:	00900713          	li	a4,9
     cac:	00f74463          	blt	a4,a5,cb4 <_vfprintf_r+0x678>
     cb0:	1fc0206f          	j	2eac <_vfprintf_r+0x2870>
     cb4:	0e310513          	addi	a0,sp,227
     cb8:	00050593          	mv	a1,a0
     cbc:	00a00693          	li	a3,10
     cc0:	06300e13          	li	t3,99
     cc4:	02d7e733          	rem	a4,a5,a3
     cc8:	00058613          	mv	a2,a1
     ccc:	00078813          	mv	a6,a5
     cd0:	fff58593          	addi	a1,a1,-1
     cd4:	03070713          	addi	a4,a4,48
     cd8:	fee60fa3          	sb	a4,-1(a2)
     cdc:	02d7c7b3          	div	a5,a5,a3
     ce0:	ff0e42e3          	blt	t3,a6,cc4 <_vfprintf_r+0x688>
     ce4:	03078793          	addi	a5,a5,48
     ce8:	0ff7f693          	andi	a3,a5,255
     cec:	fed58fa3          	sb	a3,-1(a1)
     cf0:	ffe60793          	addi	a5,a2,-2
     cf4:	00a7e463          	bltu	a5,a0,cfc <_vfprintf_r+0x6c0>
     cf8:	2ec0206f          	j	2fe4 <_vfprintf_r+0x29a8>
     cfc:	0d610713          	addi	a4,sp,214
     d00:	0080006f          	j	d08 <_vfprintf_r+0x6cc>
     d04:	0007c683          	lbu	a3,0(a5)
     d08:	00d70023          	sb	a3,0(a4)
     d0c:	00178793          	addi	a5,a5,1
     d10:	00170713          	addi	a4,a4,1
     d14:	fea798e3          	bne	a5,a0,d04 <_vfprintf_r+0x6c8>
     d18:	0e510793          	addi	a5,sp,229
     d1c:	0d610713          	addi	a4,sp,214
     d20:	40c787b3          	sub	a5,a5,a2
     d24:	00f707b3          	add	a5,a4,a5
     d28:	0d410713          	addi	a4,sp,212
     d2c:	40e787b3          	sub	a5,a5,a4
     d30:	02f12c23          	sw	a5,56(sp)
     d34:	02012703          	lw	a4,32(sp)
     d38:	03812683          	lw	a3,56(sp)
     d3c:	00100793          	li	a5,1
     d40:	00d70cb3          	add	s9,a4,a3
     d44:	00e7c463          	blt	a5,a4,d4c <_vfprintf_r+0x710>
     d48:	2280206f          	j	2f70 <_vfprintf_r+0x2934>
     d4c:	02c12783          	lw	a5,44(sp)
     d50:	00fc8cb3          	add	s9,s9,a5
     d54:	05012783          	lw	a5,80(sp)
     d58:	fffcca93          	not	s5,s9
     d5c:	41fada93          	srai	s5,s5,0x1f
     d60:	bff7fa13          	andi	s4,a5,-1025
     d64:	100a6a13          	ori	s4,s4,256
     d68:	015cfab3          	and	s5,s9,s5
     d6c:	02012423          	sw	zero,40(sp)
     d70:	02012223          	sw	zero,36(sp)
     d74:	00012e23          	sw	zero,28(sp)
     d78:	05812783          	lw	a5,88(sp)
     d7c:	00079463          	bnez	a5,d84 <_vfprintf_r+0x748>
     d80:	3710106f          	j	28f0 <_vfprintf_r+0x22b4>
     d84:	02d00793          	li	a5,45
     d88:	0cf103a3          	sb	a5,199(sp)
     d8c:	00000d93          	li	s11,0
     d90:	001a8a93          	addi	s5,s5,1
     d94:	ad9ff06f          	j	86c <_vfprintf_r+0x230>
     d98:	0e410613          	addi	a2,sp,228
     d9c:	000c0593          	mv	a1,s8
     da0:	000d0513          	mv	a0,s10
     da4:	2ed0a0ef          	jal	ra,b890 <__sprint_r>
     da8:	100510e3          	bnez	a0,16a8 <_vfprintf_r+0x106c>
     dac:	0ec12783          	lw	a5,236(sp)
     db0:	10c10893          	addi	a7,sp,268
     db4:	b11ff06f          	j	8c4 <_vfprintf_r+0x288>
     db8:	0e812703          	lw	a4,232(sp)
     dbc:	00178c93          	addi	s9,a5,1
     dc0:	02012783          	lw	a5,32(sp)
     dc4:	00100693          	li	a3,1
     dc8:	0168a023          	sw	s6,0(a7)
     dcc:	00170493          	addi	s1,a4,1
     dd0:	00888913          	addi	s2,a7,8
     dd4:	36f6dee3          	bge	a3,a5,1950 <_vfprintf_r+0x1314>
     dd8:	00100793          	li	a5,1
     ddc:	00f8a223          	sw	a5,4(a7)
     de0:	0f912623          	sw	s9,236(sp)
     de4:	0e912423          	sw	s1,232(sp)
     de8:	00700793          	li	a5,7
     dec:	7497c8e3          	blt	a5,s1,1d3c <_vfprintf_r+0x1700>
     df0:	02c12783          	lw	a5,44(sp)
     df4:	03012703          	lw	a4,48(sp)
     df8:	00148493          	addi	s1,s1,1
     dfc:	00fc8cb3          	add	s9,s9,a5
     e00:	00f92223          	sw	a5,4(s2)
     e04:	00e92023          	sw	a4,0(s2)
     e08:	0f912623          	sw	s9,236(sp)
     e0c:	0e912423          	sw	s1,232(sp)
     e10:	00700793          	li	a5,7
     e14:	00890913          	addi	s2,s2,8
     e18:	7497c4e3          	blt	a5,s1,1d60 <_vfprintf_r+0x1724>
     e1c:	0f012783          	lw	a5,240(sp)
     e20:	00148693          	addi	a3,s1,1
     e24:	0a010593          	addi	a1,sp,160
     e28:	0af12823          	sw	a5,176(sp)
     e2c:	0f412783          	lw	a5,244(sp)
     e30:	0b010513          	addi	a0,sp,176
     e34:	00d12e23          	sw	a3,28(sp)
     e38:	0af12a23          	sw	a5,180(sp)
     e3c:	0f812783          	lw	a5,248(sp)
     e40:	0a012023          	sw	zero,160(sp)
     e44:	0a012223          	sw	zero,164(sp)
     e48:	0af12c23          	sw	a5,184(sp)
     e4c:	0fc12783          	lw	a5,252(sp)
     e50:	0a012423          	sw	zero,168(sp)
     e54:	0a012623          	sw	zero,172(sp)
     e58:	0af12e23          	sw	a5,188(sp)
     e5c:	3c4100ef          	jal	ra,11220 <__eqtf2>
     e60:	01c12683          	lw	a3,28(sp)
     e64:	02012783          	lw	a5,32(sp)
     e68:	00890893          	addi	a7,s2,8
     e6c:	00068713          	mv	a4,a3
     e70:	fff78d93          	addi	s11,a5,-1
     e74:	300502e3          	beqz	a0,1978 <_vfprintf_r+0x133c>
     e78:	001b0813          	addi	a6,s6,1
     e7c:	01bc8cb3          	add	s9,s9,s11
     e80:	01092023          	sw	a6,0(s2)
     e84:	01b92223          	sw	s11,4(s2)
     e88:	0f912623          	sw	s9,236(sp)
     e8c:	0ed12423          	sw	a3,232(sp)
     e90:	00700793          	li	a5,7
     e94:	50d7c6e3          	blt	a5,a3,1ba0 <_vfprintf_r+0x1564>
     e98:	01090793          	addi	a5,s2,16
     e9c:	00248713          	addi	a4,s1,2
     ea0:	00088913          	mv	s2,a7
     ea4:	00078893          	mv	a7,a5
     ea8:	03812603          	lw	a2,56(sp)
     eac:	0d410693          	addi	a3,sp,212
     eb0:	00d92023          	sw	a3,0(s2)
     eb4:	019607b3          	add	a5,a2,s9
     eb8:	00c92223          	sw	a2,4(s2)
     ebc:	0ef12623          	sw	a5,236(sp)
     ec0:	0ee12423          	sw	a4,232(sp)
     ec4:	00700693          	li	a3,7
     ec8:	a6e6d8e3          	bge	a3,a4,938 <_vfprintf_r+0x2fc>
     ecc:	0e410613          	addi	a2,sp,228
     ed0:	000c0593          	mv	a1,s8
     ed4:	000d0513          	mv	a0,s10
     ed8:	1b90a0ef          	jal	ra,b890 <__sprint_r>
     edc:	7c051663          	bnez	a0,16a8 <_vfprintf_r+0x106c>
     ee0:	0ec12783          	lw	a5,236(sp)
     ee4:	10c10893          	addi	a7,sp,268
     ee8:	a51ff06f          	j	938 <_vfprintf_r+0x2fc>
     eec:	01000693          	li	a3,16
     ef0:	0e812703          	lw	a4,232(sp)
     ef4:	0096c463          	blt	a3,s1,efc <_vfprintf_r+0x8c0>
     ef8:	5350106f          	j	2c2c <_vfprintf_r+0x25f0>
     efc:	000146b7          	lui	a3,0x14
     f00:	45468e93          	addi	t4,a3,1108 # 14454 <blanks.4485>
     f04:	01000913          	li	s2,16
     f08:	00700a13          	li	s4,7
     f0c:	000e8b13          	mv	s6,t4
     f10:	00c0006f          	j	f1c <_vfprintf_r+0x8e0>
     f14:	ff048493          	addi	s1,s1,-16
     f18:	04995663          	bge	s2,s1,f64 <_vfprintf_r+0x928>
     f1c:	01078793          	addi	a5,a5,16
     f20:	00170713          	addi	a4,a4,1
     f24:	0168a023          	sw	s6,0(a7)
     f28:	0128a223          	sw	s2,4(a7)
     f2c:	0ef12623          	sw	a5,236(sp)
     f30:	0ee12423          	sw	a4,232(sp)
     f34:	00888893          	addi	a7,a7,8
     f38:	fcea5ee3          	bge	s4,a4,f14 <_vfprintf_r+0x8d8>
     f3c:	0e410613          	addi	a2,sp,228
     f40:	000c0593          	mv	a1,s8
     f44:	000d0513          	mv	a0,s10
     f48:	1490a0ef          	jal	ra,b890 <__sprint_r>
     f4c:	74051e63          	bnez	a0,16a8 <_vfprintf_r+0x106c>
     f50:	ff048493          	addi	s1,s1,-16
     f54:	0ec12783          	lw	a5,236(sp)
     f58:	0e812703          	lw	a4,232(sp)
     f5c:	10c10893          	addi	a7,sp,268
     f60:	fa994ee3          	blt	s2,s1,f1c <_vfprintf_r+0x8e0>
     f64:	000b0e93          	mv	t4,s6
     f68:	009787b3          	add	a5,a5,s1
     f6c:	00170713          	addi	a4,a4,1
     f70:	01d8a023          	sw	t4,0(a7)
     f74:	0098a223          	sw	s1,4(a7)
     f78:	0ef12623          	sw	a5,236(sp)
     f7c:	0ee12423          	sw	a4,232(sp)
     f80:	00700693          	li	a3,7
     f84:	9ce6d2e3          	bge	a3,a4,948 <_vfprintf_r+0x30c>
     f88:	0e410613          	addi	a2,sp,228
     f8c:	000c0593          	mv	a1,s8
     f90:	000d0513          	mv	a0,s10
     f94:	0fd0a0ef          	jal	ra,b890 <__sprint_r>
     f98:	70051863          	bnez	a0,16a8 <_vfprintf_r+0x106c>
     f9c:	0ec12783          	lw	a5,236(sp)
     fa0:	9a9ff06f          	j	948 <_vfprintf_r+0x30c>
     fa4:	000d0513          	mv	a0,s10
     fa8:	1b9020ef          	jal	ra,3960 <__sinit>
     fac:	f0cff06f          	j	6b8 <_vfprintf_r+0x7c>
     fb0:	01412703          	lw	a4,20(sp)
     fb4:	000c8893          	mv	a7,s9
     fb8:	0c0103a3          	sb	zero,199(sp)
     fbc:	00072783          	lw	a5,0(a4)
     fc0:	00470713          	addi	a4,a4,4
     fc4:	00e12a23          	sw	a4,20(sp)
     fc8:	14f10623          	sb	a5,332(sp)
     fcc:	00100a93          	li	s5,1
     fd0:	00100c93          	li	s9,1
     fd4:	14c10b13          	addi	s6,sp,332
     fd8:	881ff06f          	j	858 <_vfprintf_r+0x21c>
     fdc:	01412783          	lw	a5,20(sp)
     fe0:	0c0103a3          	sb	zero,199(sp)
     fe4:	000c8893          	mv	a7,s9
     fe8:	0007ab03          	lw	s6,0(a5)
     fec:	00478913          	addi	s2,a5,4
     ff0:	4a0b02e3          	beqz	s6,1c94 <_vfprintf_r+0x1658>
     ff4:	fff00793          	li	a5,-1
     ff8:	00fd9463          	bne	s11,a5,1000 <_vfprintf_r+0x9c4>
     ffc:	7dd0006f          	j	1fd8 <_vfprintf_r+0x199c>
    1000:	000d8613          	mv	a2,s11
    1004:	00000593          	li	a1,0
    1008:	000b0513          	mv	a0,s6
    100c:	01912a23          	sw	s9,20(sp)
    1010:	51c060ef          	jal	ra,752c <memchr>
    1014:	00a12823          	sw	a0,16(sp)
    1018:	01412883          	lw	a7,20(sp)
    101c:	00051463          	bnez	a0,1024 <_vfprintf_r+0x9e8>
    1020:	2b50106f          	j	2ad4 <_vfprintf_r+0x2498>
    1024:	01012783          	lw	a5,16(sp)
    1028:	01212a23          	sw	s2,20(sp)
    102c:	00012823          	sw	zero,16(sp)
    1030:	41678cb3          	sub	s9,a5,s6
    1034:	0c714783          	lbu	a5,199(sp)
    1038:	fffcca93          	not	s5,s9
    103c:	41fada93          	srai	s5,s5,0x1f
    1040:	02012423          	sw	zero,40(sp)
    1044:	02012223          	sw	zero,36(sp)
    1048:	00012e23          	sw	zero,28(sp)
    104c:	015cfab3          	and	s5,s9,s5
    1050:	00000d93          	li	s11,0
    1054:	80078ce3          	beqz	a5,86c <_vfprintf_r+0x230>
    1058:	001a8a93          	addi	s5,s5,1
    105c:	811ff06f          	j	86c <_vfprintf_r+0x230>
    1060:	00044483          	lbu	s1,0(s0)
    1064:	004a6a13          	ori	s4,s4,4
    1068:	f84ff06f          	j	7ec <_vfprintf_r+0x1b0>
    106c:	01412683          	lw	a3,20(sp)
    1070:	020a7793          	andi	a5,s4,32
    1074:	000c8893          	mv	a7,s9
    1078:	0006a703          	lw	a4,0(a3)
    107c:	00468693          	addi	a3,a3,4
    1080:	00d12a23          	sw	a3,20(sp)
    1084:	240790e3          	bnez	a5,1ac4 <_vfprintf_r+0x1488>
    1088:	010a7793          	andi	a5,s4,16
    108c:	72079ee3          	bnez	a5,1fc8 <_vfprintf_r+0x198c>
    1090:	040a7793          	andi	a5,s4,64
    1094:	00078463          	beqz	a5,109c <_vfprintf_r+0xa60>
    1098:	33c0106f          	j	23d4 <_vfprintf_r+0x1d98>
    109c:	200a7a13          	andi	s4,s4,512
    10a0:	720a04e3          	beqz	s4,1fc8 <_vfprintf_r+0x198c>
    10a4:	00c12783          	lw	a5,12(sp)
    10a8:	00040b13          	mv	s6,s0
    10ac:	00f70023          	sb	a5,0(a4)
    10b0:	8d1ff06f          	j	980 <_vfprintf_r+0x344>
    10b4:	00044483          	lbu	s1,0(s0)
    10b8:	06c00793          	li	a5,108
    10bc:	3cf484e3          	beq	s1,a5,1c84 <_vfprintf_r+0x1648>
    10c0:	010a6a13          	ori	s4,s4,16
    10c4:	f28ff06f          	j	7ec <_vfprintf_r+0x1b0>
    10c8:	01412703          	lw	a4,20(sp)
    10cc:	03000793          	li	a5,48
    10d0:	0cf10423          	sb	a5,200(sp)
    10d4:	07800793          	li	a5,120
    10d8:	0cf104a3          	sb	a5,201(sp)
    10dc:	00470793          	addi	a5,a4,4
    10e0:	000c8893          	mv	a7,s9
    10e4:	00f12a23          	sw	a5,20(sp)
    10e8:	00072c83          	lw	s9,0(a4)
    10ec:	000147b7          	lui	a5,0x14
    10f0:	2b478793          	addi	a5,a5,692 # 142b4 <__clzsi2+0x9c>
    10f4:	02f12a23          	sw	a5,52(sp)
    10f8:	00000913          	li	s2,0
    10fc:	002a6b93          	ori	s7,s4,2
    1100:	00200793          	li	a5,2
    1104:	07800493          	li	s1,120
    1108:	0c0103a3          	sb	zero,199(sp)
    110c:	fff00693          	li	a3,-1
    1110:	20dd8663          	beq	s11,a3,131c <_vfprintf_r+0xce0>
    1114:	012ce6b3          	or	a3,s9,s2
    1118:	f7fbfa13          	andi	s4,s7,-129
    111c:	1e069e63          	bnez	a3,1318 <_vfprintf_r+0xcdc>
    1120:	260d9463          	bnez	s11,1388 <_vfprintf_r+0xd4c>
    1124:	1c079063          	bnez	a5,12e4 <_vfprintf_r+0xca8>
    1128:	001bfc93          	andi	s9,s7,1
    112c:	1b010b13          	addi	s6,sp,432
    1130:	180c92e3          	bnez	s9,1ab4 <_vfprintf_r+0x1478>
    1134:	0c714783          	lbu	a5,199(sp)
    1138:	000c8a93          	mv	s5,s9
    113c:	01bcd463          	bge	s9,s11,1144 <_vfprintf_r+0xb08>
    1140:	000d8a93          	mv	s5,s11
    1144:	00012823          	sw	zero,16(sp)
    1148:	02012423          	sw	zero,40(sp)
    114c:	02012223          	sw	zero,36(sp)
    1150:	00012e23          	sw	zero,28(sp)
    1154:	f00792e3          	bnez	a5,1058 <_vfprintf_r+0xa1c>
    1158:	f14ff06f          	j	86c <_vfprintf_r+0x230>
    115c:	00044483          	lbu	s1,0(s0)
    1160:	06800793          	li	a5,104
    1164:	30f488e3          	beq	s1,a5,1c74 <_vfprintf_r+0x1638>
    1168:	040a6a13          	ori	s4,s4,64
    116c:	e80ff06f          	j	7ec <_vfprintf_r+0x1b0>
    1170:	02b00793          	li	a5,43
    1174:	00044483          	lbu	s1,0(s0)
    1178:	0cf103a3          	sb	a5,199(sp)
    117c:	e70ff06f          	j	7ec <_vfprintf_r+0x1b0>
    1180:	00044483          	lbu	s1,0(s0)
    1184:	080a6a13          	ori	s4,s4,128
    1188:	e64ff06f          	j	7ec <_vfprintf_r+0x1b0>
    118c:	00044483          	lbu	s1,0(s0)
    1190:	00140713          	addi	a4,s0,1
    1194:	01749463          	bne	s1,s7,119c <_vfprintf_r+0xb60>
    1198:	6290106f          	j	2fc0 <_vfprintf_r+0x2984>
    119c:	fd048693          	addi	a3,s1,-48
    11a0:	00070413          	mv	s0,a4
    11a4:	00000d93          	li	s11,0
    11a8:	e4dae463          	bltu	s5,a3,7f0 <_vfprintf_r+0x1b4>
    11ac:	00044483          	lbu	s1,0(s0)
    11b0:	002d9793          	slli	a5,s11,0x2
    11b4:	01b787b3          	add	a5,a5,s11
    11b8:	00179793          	slli	a5,a5,0x1
    11bc:	00d78db3          	add	s11,a5,a3
    11c0:	fd048693          	addi	a3,s1,-48
    11c4:	00140413          	addi	s0,s0,1
    11c8:	fedaf2e3          	bgeu	s5,a3,11ac <_vfprintf_r+0xb70>
    11cc:	e24ff06f          	j	7f0 <_vfprintf_r+0x1b4>
    11d0:	01412783          	lw	a5,20(sp)
    11d4:	00044483          	lbu	s1,0(s0)
    11d8:	0007a983          	lw	s3,0(a5)
    11dc:	00478793          	addi	a5,a5,4
    11e0:	00f12a23          	sw	a5,20(sp)
    11e4:	e009d463          	bgez	s3,7ec <_vfprintf_r+0x1b0>
    11e8:	413009b3          	neg	s3,s3
    11ec:	004a6a13          	ori	s4,s4,4
    11f0:	dfcff06f          	j	7ec <_vfprintf_r+0x1b0>
    11f4:	00044483          	lbu	s1,0(s0)
    11f8:	001a6a13          	ori	s4,s4,1
    11fc:	df0ff06f          	j	7ec <_vfprintf_r+0x1b0>
    1200:	0c714783          	lbu	a5,199(sp)
    1204:	00044483          	lbu	s1,0(s0)
    1208:	de079263          	bnez	a5,7ec <_vfprintf_r+0x1b0>
    120c:	02000793          	li	a5,32
    1210:	0cf103a3          	sb	a5,199(sp)
    1214:	dd8ff06f          	j	7ec <_vfprintf_r+0x1b0>
    1218:	000c8893          	mv	a7,s9
    121c:	010a6a13          	ori	s4,s4,16
    1220:	020a7793          	andi	a5,s4,32
    1224:	7c078463          	beqz	a5,19ec <_vfprintf_r+0x13b0>
    1228:	01412783          	lw	a5,20(sp)
    122c:	00778b13          	addi	s6,a5,7
    1230:	ff8b7b13          	andi	s6,s6,-8
    1234:	000b2c83          	lw	s9,0(s6)
    1238:	004b2903          	lw	s2,4(s6)
    123c:	008b0793          	addi	a5,s6,8
    1240:	00f12a23          	sw	a5,20(sp)
    1244:	bffa7b93          	andi	s7,s4,-1025
    1248:	00000793          	li	a5,0
    124c:	ebdff06f          	j	1108 <_vfprintf_r+0xacc>
    1250:	000c8893          	mv	a7,s9
    1254:	010a6b93          	ori	s7,s4,16
    1258:	020bf793          	andi	a5,s7,32
    125c:	7a078e63          	beqz	a5,1a18 <_vfprintf_r+0x13dc>
    1260:	01412783          	lw	a5,20(sp)
    1264:	00778b13          	addi	s6,a5,7
    1268:	ff8b7b13          	andi	s6,s6,-8
    126c:	008b0793          	addi	a5,s6,8
    1270:	00f12a23          	sw	a5,20(sp)
    1274:	000b2c83          	lw	s9,0(s6)
    1278:	004b2903          	lw	s2,4(s6)
    127c:	00100793          	li	a5,1
    1280:	e89ff06f          	j	1108 <_vfprintf_r+0xacc>
    1284:	00044483          	lbu	s1,0(s0)
    1288:	008a6a13          	ori	s4,s4,8
    128c:	d60ff06f          	j	7ec <_vfprintf_r+0x1b0>
    1290:	000c8893          	mv	a7,s9
    1294:	010a6a13          	ori	s4,s4,16
    1298:	020a7793          	andi	a5,s4,32
    129c:	7a078663          	beqz	a5,1a48 <_vfprintf_r+0x140c>
    12a0:	01412783          	lw	a5,20(sp)
    12a4:	00778b13          	addi	s6,a5,7
    12a8:	ff8b7b13          	andi	s6,s6,-8
    12ac:	004b2783          	lw	a5,4(s6)
    12b0:	000b2c83          	lw	s9,0(s6)
    12b4:	008b0713          	addi	a4,s6,8
    12b8:	00e12a23          	sw	a4,20(sp)
    12bc:	00078913          	mv	s2,a5
    12c0:	7a07cc63          	bltz	a5,1a78 <_vfprintf_r+0x143c>
    12c4:	fff00793          	li	a5,-1
    12c8:	000a0b93          	mv	s7,s4
    12cc:	02fd8463          	beq	s11,a5,12f4 <_vfprintf_r+0xcb8>
    12d0:	012ce7b3          	or	a5,s9,s2
    12d4:	f7fa7b93          	andi	s7,s4,-129
    12d8:	00079e63          	bnez	a5,12f4 <_vfprintf_r+0xcb8>
    12dc:	020d9263          	bnez	s11,1300 <_vfprintf_r+0xcc4>
    12e0:	000b8a13          	mv	s4,s7
    12e4:	00000d93          	li	s11,0
    12e8:	00000c93          	li	s9,0
    12ec:	1b010b13          	addi	s6,sp,432
    12f0:	e45ff06f          	j	1134 <_vfprintf_r+0xaf8>
    12f4:	280918e3          	bnez	s2,1d84 <_vfprintf_r+0x1748>
    12f8:	00900793          	li	a5,9
    12fc:	2997e4e3          	bltu	a5,s9,1d84 <_vfprintf_r+0x1748>
    1300:	030c8c93          	addi	s9,s9,48
    1304:	1b9107a3          	sb	s9,431(sp)
    1308:	000b8a13          	mv	s4,s7
    130c:	00100c93          	li	s9,1
    1310:	1af10b13          	addi	s6,sp,431
    1314:	e21ff06f          	j	1134 <_vfprintf_r+0xaf8>
    1318:	000a0b93          	mv	s7,s4
    131c:	00100693          	li	a3,1
    1320:	fcd78ae3          	beq	a5,a3,12f4 <_vfprintf_r+0xcb8>
    1324:	00200693          	li	a3,2
    1328:	06d78c63          	beq	a5,a3,13a0 <_vfprintf_r+0xd64>
    132c:	1b010b13          	addi	s6,sp,432
    1330:	01d91713          	slli	a4,s2,0x1d
    1334:	007cf793          	andi	a5,s9,7
    1338:	003cdc93          	srli	s9,s9,0x3
    133c:	03078793          	addi	a5,a5,48
    1340:	01976cb3          	or	s9,a4,s9
    1344:	00395913          	srli	s2,s2,0x3
    1348:	fefb0fa3          	sb	a5,-1(s6)
    134c:	012ce733          	or	a4,s9,s2
    1350:	000b0613          	mv	a2,s6
    1354:	fffb0b13          	addi	s6,s6,-1
    1358:	fc071ce3          	bnez	a4,1330 <_vfprintf_r+0xcf4>
    135c:	001bf693          	andi	a3,s7,1
    1360:	06068a63          	beqz	a3,13d4 <_vfprintf_r+0xd98>
    1364:	03000693          	li	a3,48
    1368:	06d78663          	beq	a5,a3,13d4 <_vfprintf_r+0xd98>
    136c:	ffe60613          	addi	a2,a2,-2
    1370:	1b010793          	addi	a5,sp,432
    1374:	fedb0fa3          	sb	a3,-1(s6)
    1378:	40c78cb3          	sub	s9,a5,a2
    137c:	000b8a13          	mv	s4,s7
    1380:	00060b13          	mv	s6,a2
    1384:	db1ff06f          	j	1134 <_vfprintf_r+0xaf8>
    1388:	00100713          	li	a4,1
    138c:	00e79463          	bne	a5,a4,1394 <_vfprintf_r+0xd58>
    1390:	17d0106f          	j	2d0c <_vfprintf_r+0x26d0>
    1394:	00200713          	li	a4,2
    1398:	000a0b93          	mv	s7,s4
    139c:	f8e798e3          	bne	a5,a4,132c <_vfprintf_r+0xcf0>
    13a0:	03412683          	lw	a3,52(sp)
    13a4:	1b010b13          	addi	s6,sp,432
    13a8:	00fcf793          	andi	a5,s9,15
    13ac:	00f687b3          	add	a5,a3,a5
    13b0:	0007c703          	lbu	a4,0(a5)
    13b4:	004cdc93          	srli	s9,s9,0x4
    13b8:	01c91793          	slli	a5,s2,0x1c
    13bc:	0197ecb3          	or	s9,a5,s9
    13c0:	00495913          	srli	s2,s2,0x4
    13c4:	feeb0fa3          	sb	a4,-1(s6)
    13c8:	012ce7b3          	or	a5,s9,s2
    13cc:	fffb0b13          	addi	s6,s6,-1
    13d0:	fc079ce3          	bnez	a5,13a8 <_vfprintf_r+0xd6c>
    13d4:	1b010793          	addi	a5,sp,432
    13d8:	41678cb3          	sub	s9,a5,s6
    13dc:	000b8a13          	mv	s4,s7
    13e0:	d55ff06f          	j	1134 <_vfprintf_r+0xaf8>
    13e4:	06500713          	li	a4,101
    13e8:	9c9758e3          	bge	a4,s1,db8 <_vfprintf_r+0x77c>
    13ec:	0f012703          	lw	a4,240(sp)
    13f0:	0a010593          	addi	a1,sp,160
    13f4:	0b010513          	addi	a0,sp,176
    13f8:	0ae12823          	sw	a4,176(sp)
    13fc:	0f412703          	lw	a4,244(sp)
    1400:	05112223          	sw	a7,68(sp)
    1404:	04f12023          	sw	a5,64(sp)
    1408:	0ae12a23          	sw	a4,180(sp)
    140c:	0f812703          	lw	a4,248(sp)
    1410:	0a012023          	sw	zero,160(sp)
    1414:	0a012223          	sw	zero,164(sp)
    1418:	0ae12c23          	sw	a4,184(sp)
    141c:	0fc12703          	lw	a4,252(sp)
    1420:	0a012423          	sw	zero,168(sp)
    1424:	0a012623          	sw	zero,172(sp)
    1428:	0ae12e23          	sw	a4,188(sp)
    142c:	5f50f0ef          	jal	ra,11220 <__eqtf2>
    1430:	04012783          	lw	a5,64(sp)
    1434:	04412883          	lw	a7,68(sp)
    1438:	38051c63          	bnez	a0,17d0 <_vfprintf_r+0x1194>
    143c:	0e812703          	lw	a4,232(sp)
    1440:	000146b7          	lui	a3,0x14
    1444:	2e468693          	addi	a3,a3,740 # 142e4 <__clzsi2+0xcc>
    1448:	00d8a023          	sw	a3,0(a7)
    144c:	00178793          	addi	a5,a5,1
    1450:	00100693          	li	a3,1
    1454:	00170713          	addi	a4,a4,1
    1458:	00d8a223          	sw	a3,4(a7)
    145c:	0ef12623          	sw	a5,236(sp)
    1460:	0ee12423          	sw	a4,232(sp)
    1464:	00700693          	li	a3,7
    1468:	00888893          	addi	a7,a7,8
    146c:	28e6c8e3          	blt	a3,a4,1efc <_vfprintf_r+0x18c0>
    1470:	0cc12703          	lw	a4,204(sp)
    1474:	02012683          	lw	a3,32(sp)
    1478:	62d75263          	bge	a4,a3,1a9c <_vfprintf_r+0x1460>
    147c:	03012703          	lw	a4,48(sp)
    1480:	02c12683          	lw	a3,44(sp)
    1484:	00888893          	addi	a7,a7,8
    1488:	fee8ac23          	sw	a4,-8(a7)
    148c:	0e812703          	lw	a4,232(sp)
    1490:	00d787b3          	add	a5,a5,a3
    1494:	fed8ae23          	sw	a3,-4(a7)
    1498:	00170713          	addi	a4,a4,1
    149c:	0ef12623          	sw	a5,236(sp)
    14a0:	0ee12423          	sw	a4,232(sp)
    14a4:	00700693          	li	a3,7
    14a8:	7ae6c663          	blt	a3,a4,1c54 <_vfprintf_r+0x1618>
    14ac:	02012703          	lw	a4,32(sp)
    14b0:	fff70493          	addi	s1,a4,-1
    14b4:	c8905263          	blez	s1,938 <_vfprintf_r+0x2fc>
    14b8:	01000693          	li	a3,16
    14bc:	0e812703          	lw	a4,232(sp)
    14c0:	2496dee3          	bge	a3,s1,1f1c <_vfprintf_r+0x18e0>
    14c4:	01000913          	li	s2,16
    14c8:	00700c93          	li	s9,7
    14cc:	00c0006f          	j	14d8 <_vfprintf_r+0xe9c>
    14d0:	ff048493          	addi	s1,s1,-16
    14d4:	249954e3          	bge	s2,s1,1f1c <_vfprintf_r+0x18e0>
    14d8:	00812683          	lw	a3,8(sp)
    14dc:	01078793          	addi	a5,a5,16
    14e0:	00170713          	addi	a4,a4,1
    14e4:	00d8a023          	sw	a3,0(a7)
    14e8:	0128a223          	sw	s2,4(a7)
    14ec:	0ef12623          	sw	a5,236(sp)
    14f0:	0ee12423          	sw	a4,232(sp)
    14f4:	00888893          	addi	a7,a7,8
    14f8:	fcecdce3          	bge	s9,a4,14d0 <_vfprintf_r+0xe94>
    14fc:	0e410613          	addi	a2,sp,228
    1500:	000c0593          	mv	a1,s8
    1504:	000d0513          	mv	a0,s10
    1508:	3880a0ef          	jal	ra,b890 <__sprint_r>
    150c:	18051e63          	bnez	a0,16a8 <_vfprintf_r+0x106c>
    1510:	0ec12783          	lw	a5,236(sp)
    1514:	0e812703          	lw	a4,232(sp)
    1518:	10c10893          	addi	a7,sp,268
    151c:	fb5ff06f          	j	14d0 <_vfprintf_r+0xe94>
    1520:	41598933          	sub	s2,s3,s5
    1524:	bd205e63          	blez	s2,900 <_vfprintf_r+0x2c4>
    1528:	01000613          	li	a2,16
    152c:	0e812703          	lw	a4,232(sp)
    1530:	07265463          	bge	a2,s2,1598 <_vfprintf_r+0xf5c>
    1534:	01000e13          	li	t3,16
    1538:	00700b93          	li	s7,7
    153c:	00c0006f          	j	1548 <_vfprintf_r+0xf0c>
    1540:	ff090913          	addi	s2,s2,-16
    1544:	052e5a63          	bge	t3,s2,1598 <_vfprintf_r+0xf5c>
    1548:	00812683          	lw	a3,8(sp)
    154c:	01078793          	addi	a5,a5,16
    1550:	00170713          	addi	a4,a4,1
    1554:	00d8a023          	sw	a3,0(a7)
    1558:	01c8a223          	sw	t3,4(a7)
    155c:	0ef12623          	sw	a5,236(sp)
    1560:	0ee12423          	sw	a4,232(sp)
    1564:	00888893          	addi	a7,a7,8
    1568:	fcebdce3          	bge	s7,a4,1540 <_vfprintf_r+0xf04>
    156c:	0e410613          	addi	a2,sp,228
    1570:	000c0593          	mv	a1,s8
    1574:	000d0513          	mv	a0,s10
    1578:	3180a0ef          	jal	ra,b890 <__sprint_r>
    157c:	12051663          	bnez	a0,16a8 <_vfprintf_r+0x106c>
    1580:	01000e13          	li	t3,16
    1584:	ff090913          	addi	s2,s2,-16
    1588:	0ec12783          	lw	a5,236(sp)
    158c:	0e812703          	lw	a4,232(sp)
    1590:	10c10893          	addi	a7,sp,268
    1594:	fb2e4ae3          	blt	t3,s2,1548 <_vfprintf_r+0xf0c>
    1598:	00812683          	lw	a3,8(sp)
    159c:	012787b3          	add	a5,a5,s2
    15a0:	00170713          	addi	a4,a4,1
    15a4:	00d8a023          	sw	a3,0(a7)
    15a8:	0128a223          	sw	s2,4(a7)
    15ac:	0ef12623          	sw	a5,236(sp)
    15b0:	0ee12423          	sw	a4,232(sp)
    15b4:	00700693          	li	a3,7
    15b8:	00888893          	addi	a7,a7,8
    15bc:	b4e6d263          	bge	a3,a4,900 <_vfprintf_r+0x2c4>
    15c0:	0e410613          	addi	a2,sp,228
    15c4:	000c0593          	mv	a1,s8
    15c8:	000d0513          	mv	a0,s10
    15cc:	2c40a0ef          	jal	ra,b890 <__sprint_r>
    15d0:	0c051c63          	bnez	a0,16a8 <_vfprintf_r+0x106c>
    15d4:	0ec12783          	lw	a5,236(sp)
    15d8:	10c10893          	addi	a7,sp,268
    15dc:	b24ff06f          	j	900 <_vfprintf_r+0x2c4>
    15e0:	01000613          	li	a2,16
    15e4:	0e812703          	lw	a4,232(sp)
    15e8:	07b65263          	bge	a2,s11,164c <_vfprintf_r+0x1010>
    15ec:	01000b93          	li	s7,16
    15f0:	00700913          	li	s2,7
    15f4:	00c0006f          	j	1600 <_vfprintf_r+0xfc4>
    15f8:	ff0d8d93          	addi	s11,s11,-16
    15fc:	05bbd863          	bge	s7,s11,164c <_vfprintf_r+0x1010>
    1600:	00812683          	lw	a3,8(sp)
    1604:	01078793          	addi	a5,a5,16
    1608:	00170713          	addi	a4,a4,1
    160c:	00d8a023          	sw	a3,0(a7)
    1610:	0178a223          	sw	s7,4(a7)
    1614:	0ef12623          	sw	a5,236(sp)
    1618:	0ee12423          	sw	a4,232(sp)
    161c:	00888893          	addi	a7,a7,8
    1620:	fce95ce3          	bge	s2,a4,15f8 <_vfprintf_r+0xfbc>
    1624:	0e410613          	addi	a2,sp,228
    1628:	000c0593          	mv	a1,s8
    162c:	000d0513          	mv	a0,s10
    1630:	2600a0ef          	jal	ra,b890 <__sprint_r>
    1634:	06051a63          	bnez	a0,16a8 <_vfprintf_r+0x106c>
    1638:	ff0d8d93          	addi	s11,s11,-16
    163c:	0ec12783          	lw	a5,236(sp)
    1640:	0e812703          	lw	a4,232(sp)
    1644:	10c10893          	addi	a7,sp,268
    1648:	fbbbcce3          	blt	s7,s11,1600 <_vfprintf_r+0xfc4>
    164c:	00812683          	lw	a3,8(sp)
    1650:	01b787b3          	add	a5,a5,s11
    1654:	00170713          	addi	a4,a4,1
    1658:	00d8a023          	sw	a3,0(a7)
    165c:	01b8a223          	sw	s11,4(a7)
    1660:	0ef12623          	sw	a5,236(sp)
    1664:	0ee12423          	sw	a4,232(sp)
    1668:	00700693          	li	a3,7
    166c:	00888893          	addi	a7,a7,8
    1670:	a8e6dc63          	bge	a3,a4,908 <_vfprintf_r+0x2cc>
    1674:	0e410613          	addi	a2,sp,228
    1678:	000c0593          	mv	a1,s8
    167c:	000d0513          	mv	a0,s10
    1680:	2100a0ef          	jal	ra,b890 <__sprint_r>
    1684:	02051263          	bnez	a0,16a8 <_vfprintf_r+0x106c>
    1688:	0ec12783          	lw	a5,236(sp)
    168c:	10c10893          	addi	a7,sp,268
    1690:	a78ff06f          	j	908 <_vfprintf_r+0x2cc>
    1694:	0e410613          	addi	a2,sp,228
    1698:	000c0593          	mv	a1,s8
    169c:	000d0513          	mv	a0,s10
    16a0:	1f00a0ef          	jal	ra,b890 <__sprint_r>
    16a4:	aa050e63          	beqz	a0,960 <_vfprintf_r+0x324>
    16a8:	01012b83          	lw	s7,16(sp)
    16ac:	ae0b8463          	beqz	s7,994 <_vfprintf_r+0x358>
    16b0:	000b8593          	mv	a1,s7
    16b4:	000d0513          	mv	a0,s10
    16b8:	474020ef          	jal	ra,3b2c <_free_r>
    16bc:	ad8ff06f          	j	994 <_vfprintf_r+0x358>
    16c0:	01000613          	li	a2,16
    16c4:	0e812703          	lw	a4,232(sp)
    16c8:	00d64463          	blt	a2,a3,16d0 <_vfprintf_r+0x1094>
    16cc:	4340106f          	j	2b00 <_vfprintf_r+0x24c4>
    16d0:	00014637          	lui	a2,0x14
    16d4:	45460e93          	addi	t4,a2,1108 # 14454 <blanks.4485>
    16d8:	04812023          	sw	s0,64(sp)
    16dc:	04912223          	sw	s1,68(sp)
    16e0:	000d0413          	mv	s0,s10
    16e4:	000c0493          	mv	s1,s8
    16e8:	01000e13          	li	t3,16
    16ec:	00700293          	li	t0,7
    16f0:	00068c13          	mv	s8,a3
    16f4:	000e8d13          	mv	s10,t4
    16f8:	00c0006f          	j	1704 <_vfprintf_r+0x10c8>
    16fc:	ff0c0c13          	addi	s8,s8,-16
    1700:	058e5a63          	bge	t3,s8,1754 <_vfprintf_r+0x1118>
    1704:	01078793          	addi	a5,a5,16
    1708:	00170713          	addi	a4,a4,1
    170c:	01a8a023          	sw	s10,0(a7)
    1710:	01c8a223          	sw	t3,4(a7)
    1714:	0ef12623          	sw	a5,236(sp)
    1718:	0ee12423          	sw	a4,232(sp)
    171c:	00888893          	addi	a7,a7,8
    1720:	fce2dee3          	bge	t0,a4,16fc <_vfprintf_r+0x10c0>
    1724:	0e410613          	addi	a2,sp,228
    1728:	00048593          	mv	a1,s1
    172c:	00040513          	mv	a0,s0
    1730:	1600a0ef          	jal	ra,b890 <__sprint_r>
    1734:	78051e63          	bnez	a0,1ed0 <_vfprintf_r+0x1894>
    1738:	01000e13          	li	t3,16
    173c:	ff0c0c13          	addi	s8,s8,-16
    1740:	0ec12783          	lw	a5,236(sp)
    1744:	0e812703          	lw	a4,232(sp)
    1748:	10c10893          	addi	a7,sp,268
    174c:	00700293          	li	t0,7
    1750:	fb8e4ae3          	blt	t3,s8,1704 <_vfprintf_r+0x10c8>
    1754:	000c0693          	mv	a3,s8
    1758:	000d0e93          	mv	t4,s10
    175c:	00048c13          	mv	s8,s1
    1760:	00040d13          	mv	s10,s0
    1764:	04412483          	lw	s1,68(sp)
    1768:	04012403          	lw	s0,64(sp)
    176c:	00d787b3          	add	a5,a5,a3
    1770:	00170713          	addi	a4,a4,1
    1774:	00d8a223          	sw	a3,4(a7)
    1778:	01d8a023          	sw	t4,0(a7)
    177c:	0ef12623          	sw	a5,236(sp)
    1780:	0ee12423          	sw	a4,232(sp)
    1784:	00700693          	li	a3,7
    1788:	00888893          	addi	a7,a7,8
    178c:	90e6d063          	bge	a3,a4,88c <_vfprintf_r+0x250>
    1790:	0e410613          	addi	a2,sp,228
    1794:	000c0593          	mv	a1,s8
    1798:	000d0513          	mv	a0,s10
    179c:	0f40a0ef          	jal	ra,b890 <__sprint_r>
    17a0:	f00514e3          	bnez	a0,16a8 <_vfprintf_r+0x106c>
    17a4:	0ec12783          	lw	a5,236(sp)
    17a8:	10c10893          	addi	a7,sp,268
    17ac:	8e0ff06f          	j	88c <_vfprintf_r+0x250>
    17b0:	0e410613          	addi	a2,sp,228
    17b4:	000c0593          	mv	a1,s8
    17b8:	000d0513          	mv	a0,s10
    17bc:	0d40a0ef          	jal	ra,b890 <__sprint_r>
    17c0:	ee0514e3          	bnez	a0,16a8 <_vfprintf_r+0x106c>
    17c4:	0ec12783          	lw	a5,236(sp)
    17c8:	10c10893          	addi	a7,sp,268
    17cc:	92cff06f          	j	8f8 <_vfprintf_r+0x2bc>
    17d0:	0cc12603          	lw	a2,204(sp)
    17d4:	66c05e63          	blez	a2,1e50 <_vfprintf_r+0x1814>
    17d8:	01c12703          	lw	a4,28(sp)
    17dc:	02012683          	lw	a3,32(sp)
    17e0:	00070493          	mv	s1,a4
    17e4:	38e6c463          	blt	a3,a4,1b6c <_vfprintf_r+0x1530>
    17e8:	02905663          	blez	s1,1814 <_vfprintf_r+0x11d8>
    17ec:	0e812703          	lw	a4,232(sp)
    17f0:	009787b3          	add	a5,a5,s1
    17f4:	0168a023          	sw	s6,0(a7)
    17f8:	00170713          	addi	a4,a4,1
    17fc:	0098a223          	sw	s1,4(a7)
    1800:	0ef12623          	sw	a5,236(sp)
    1804:	0ee12423          	sw	a4,232(sp)
    1808:	00700693          	li	a3,7
    180c:	00888893          	addi	a7,a7,8
    1810:	36e6cee3          	blt	a3,a4,238c <_vfprintf_r+0x1d50>
    1814:	fff4c713          	not	a4,s1
    1818:	41f75713          	srai	a4,a4,0x1f
    181c:	00e4f4b3          	and	s1,s1,a4
    1820:	01c12703          	lw	a4,28(sp)
    1824:	409704b3          	sub	s1,a4,s1
    1828:	48904663          	bgtz	s1,1cb4 <_vfprintf_r+0x1678>
    182c:	01c12683          	lw	a3,28(sp)
    1830:	400a7713          	andi	a4,s4,1024
    1834:	00db0db3          	add	s11,s6,a3
    1838:	120714e3          	bnez	a4,2160 <_vfprintf_r+0x1b24>
    183c:	0cc12483          	lw	s1,204(sp)
    1840:	02012703          	lw	a4,32(sp)
    1844:	00e4c663          	blt	s1,a4,1850 <_vfprintf_r+0x1214>
    1848:	001a7713          	andi	a4,s4,1
    184c:	360704e3          	beqz	a4,23b4 <_vfprintf_r+0x1d78>
    1850:	03012703          	lw	a4,48(sp)
    1854:	02c12683          	lw	a3,44(sp)
    1858:	00700613          	li	a2,7
    185c:	00e8a023          	sw	a4,0(a7)
    1860:	0e812703          	lw	a4,232(sp)
    1864:	00d787b3          	add	a5,a5,a3
    1868:	00d8a223          	sw	a3,4(a7)
    186c:	00170713          	addi	a4,a4,1
    1870:	0ef12623          	sw	a5,236(sp)
    1874:	0ee12423          	sw	a4,232(sp)
    1878:	00888893          	addi	a7,a7,8
    187c:	00e65463          	bge	a2,a4,1884 <_vfprintf_r+0x1248>
    1880:	22c0106f          	j	2aac <_vfprintf_r+0x2470>
    1884:	02012683          	lw	a3,32(sp)
    1888:	00db0733          	add	a4,s6,a3
    188c:	409684b3          	sub	s1,a3,s1
    1890:	41b70733          	sub	a4,a4,s11
    1894:	00048913          	mv	s2,s1
    1898:	00975463          	bge	a4,s1,18a0 <_vfprintf_r+0x1264>
    189c:	00070913          	mv	s2,a4
    18a0:	03205863          	blez	s2,18d0 <_vfprintf_r+0x1294>
    18a4:	0e812703          	lw	a4,232(sp)
    18a8:	012787b3          	add	a5,a5,s2
    18ac:	01b8a023          	sw	s11,0(a7)
    18b0:	00170713          	addi	a4,a4,1
    18b4:	0128a223          	sw	s2,4(a7)
    18b8:	0ef12623          	sw	a5,236(sp)
    18bc:	0ee12423          	sw	a4,232(sp)
    18c0:	00700693          	li	a3,7
    18c4:	00888893          	addi	a7,a7,8
    18c8:	00e6d463          	bge	a3,a4,18d0 <_vfprintf_r+0x1294>
    18cc:	2b80106f          	j	2b84 <_vfprintf_r+0x2548>
    18d0:	fff94713          	not	a4,s2
    18d4:	41f75713          	srai	a4,a4,0x1f
    18d8:	00e97733          	and	a4,s2,a4
    18dc:	40e484b3          	sub	s1,s1,a4
    18e0:	00904463          	bgtz	s1,18e8 <_vfprintf_r+0x12ac>
    18e4:	854ff06f          	j	938 <_vfprintf_r+0x2fc>
    18e8:	01000693          	li	a3,16
    18ec:	0e812703          	lw	a4,232(sp)
    18f0:	6296d663          	bge	a3,s1,1f1c <_vfprintf_r+0x18e0>
    18f4:	01000913          	li	s2,16
    18f8:	00700c93          	li	s9,7
    18fc:	00c0006f          	j	1908 <_vfprintf_r+0x12cc>
    1900:	ff048493          	addi	s1,s1,-16
    1904:	60995c63          	bge	s2,s1,1f1c <_vfprintf_r+0x18e0>
    1908:	00812683          	lw	a3,8(sp)
    190c:	01078793          	addi	a5,a5,16
    1910:	00170713          	addi	a4,a4,1
    1914:	00d8a023          	sw	a3,0(a7)
    1918:	0128a223          	sw	s2,4(a7)
    191c:	0ef12623          	sw	a5,236(sp)
    1920:	0ee12423          	sw	a4,232(sp)
    1924:	00888893          	addi	a7,a7,8
    1928:	fcecdce3          	bge	s9,a4,1900 <_vfprintf_r+0x12c4>
    192c:	0e410613          	addi	a2,sp,228
    1930:	000c0593          	mv	a1,s8
    1934:	000d0513          	mv	a0,s10
    1938:	759090ef          	jal	ra,b890 <__sprint_r>
    193c:	d60516e3          	bnez	a0,16a8 <_vfprintf_r+0x106c>
    1940:	0ec12783          	lw	a5,236(sp)
    1944:	0e812703          	lw	a4,232(sp)
    1948:	10c10893          	addi	a7,sp,268
    194c:	fb5ff06f          	j	1900 <_vfprintf_r+0x12c4>
    1950:	001a7793          	andi	a5,s4,1
    1954:	c8079263          	bnez	a5,dd8 <_vfprintf_r+0x79c>
    1958:	00d8a223          	sw	a3,4(a7)
    195c:	0f912623          	sw	s9,236(sp)
    1960:	0e912423          	sw	s1,232(sp)
    1964:	00700793          	li	a5,7
    1968:	2297cc63          	blt	a5,s1,1ba0 <_vfprintf_r+0x1564>
    196c:	00270713          	addi	a4,a4,2
    1970:	01088893          	addi	a7,a7,16
    1974:	d34ff06f          	j	ea8 <_vfprintf_r+0x86c>
    1978:	d3b05863          	blez	s11,ea8 <_vfprintf_r+0x86c>
    197c:	01000613          	li	a2,16
    1980:	01b64463          	blt	a2,s11,1988 <_vfprintf_r+0x134c>
    1984:	6340106f          	j	2fb8 <_vfprintf_r+0x297c>
    1988:	01000713          	li	a4,16
    198c:	00700b13          	li	s6,7
    1990:	00068493          	mv	s1,a3
    1994:	0100006f          	j	19a4 <_vfprintf_r+0x1368>
    1998:	ff0d8d93          	addi	s11,s11,-16
    199c:	1db75e63          	bge	a4,s11,1b78 <_vfprintf_r+0x153c>
    19a0:	00148493          	addi	s1,s1,1
    19a4:	00812783          	lw	a5,8(sp)
    19a8:	010c8c93          	addi	s9,s9,16
    19ac:	00e92223          	sw	a4,4(s2)
    19b0:	00f92023          	sw	a5,0(s2)
    19b4:	0f912623          	sw	s9,236(sp)
    19b8:	0e912423          	sw	s1,232(sp)
    19bc:	00890913          	addi	s2,s2,8
    19c0:	fc9b5ce3          	bge	s6,s1,1998 <_vfprintf_r+0x135c>
    19c4:	0e410613          	addi	a2,sp,228
    19c8:	000c0593          	mv	a1,s8
    19cc:	000d0513          	mv	a0,s10
    19d0:	6c1090ef          	jal	ra,b890 <__sprint_r>
    19d4:	cc051ae3          	bnez	a0,16a8 <_vfprintf_r+0x106c>
    19d8:	0ec12c83          	lw	s9,236(sp)
    19dc:	0e812483          	lw	s1,232(sp)
    19e0:	10c10913          	addi	s2,sp,268
    19e4:	01000713          	li	a4,16
    19e8:	fb1ff06f          	j	1998 <_vfprintf_r+0x135c>
    19ec:	01412683          	lw	a3,20(sp)
    19f0:	010a7793          	andi	a5,s4,16
    19f4:	00468713          	addi	a4,a3,4
    19f8:	14079863          	bnez	a5,1b48 <_vfprintf_r+0x150c>
    19fc:	040a7793          	andi	a5,s4,64
    1a00:	68078063          	beqz	a5,2080 <_vfprintf_r+0x1a44>
    1a04:	01412783          	lw	a5,20(sp)
    1a08:	00000913          	li	s2,0
    1a0c:	00e12a23          	sw	a4,20(sp)
    1a10:	0007dc83          	lhu	s9,0(a5)
    1a14:	831ff06f          	j	1244 <_vfprintf_r+0xc08>
    1a18:	01412703          	lw	a4,20(sp)
    1a1c:	010bf793          	andi	a5,s7,16
    1a20:	00470693          	addi	a3,a4,4
    1a24:	0c079e63          	bnez	a5,1b00 <_vfprintf_r+0x14c4>
    1a28:	040bf793          	andi	a5,s7,64
    1a2c:	6a078663          	beqz	a5,20d8 <_vfprintf_r+0x1a9c>
    1a30:	01412783          	lw	a5,20(sp)
    1a34:	00000913          	li	s2,0
    1a38:	00d12a23          	sw	a3,20(sp)
    1a3c:	0007dc83          	lhu	s9,0(a5)
    1a40:	00100793          	li	a5,1
    1a44:	ec4ff06f          	j	1108 <_vfprintf_r+0xacc>
    1a48:	01412683          	lw	a3,20(sp)
    1a4c:	010a7793          	andi	a5,s4,16
    1a50:	00468713          	addi	a4,a3,4
    1a54:	10079263          	bnez	a5,1b58 <_vfprintf_r+0x151c>
    1a58:	040a7793          	andi	a5,s4,64
    1a5c:	64078e63          	beqz	a5,20b8 <_vfprintf_r+0x1a7c>
    1a60:	01412783          	lw	a5,20(sp)
    1a64:	00e12a23          	sw	a4,20(sp)
    1a68:	00079c83          	lh	s9,0(a5)
    1a6c:	41fcd913          	srai	s2,s9,0x1f
    1a70:	00090793          	mv	a5,s2
    1a74:	8407d8e3          	bgez	a5,12c4 <_vfprintf_r+0xc88>
    1a78:	019037b3          	snez	a5,s9
    1a7c:	41200933          	neg	s2,s2
    1a80:	40f90933          	sub	s2,s2,a5
    1a84:	02d00793          	li	a5,45
    1a88:	0cf103a3          	sb	a5,199(sp)
    1a8c:	41900cb3          	neg	s9,s9
    1a90:	000a0b93          	mv	s7,s4
    1a94:	00100793          	li	a5,1
    1a98:	e74ff06f          	j	110c <_vfprintf_r+0xad0>
    1a9c:	001a7713          	andi	a4,s4,1
    1aa0:	00071463          	bnez	a4,1aa8 <_vfprintf_r+0x146c>
    1aa4:	e95fe06f          	j	938 <_vfprintf_r+0x2fc>
    1aa8:	9d5ff06f          	j	147c <_vfprintf_r+0xe40>
    1aac:	000c8893          	mv	a7,s9
    1ab0:	fe8ff06f          	j	1298 <_vfprintf_r+0xc5c>
    1ab4:	03000793          	li	a5,48
    1ab8:	1af107a3          	sb	a5,431(sp)
    1abc:	1af10b13          	addi	s6,sp,431
    1ac0:	e74ff06f          	j	1134 <_vfprintf_r+0xaf8>
    1ac4:	00c12683          	lw	a3,12(sp)
    1ac8:	00040b13          	mv	s6,s0
    1acc:	41f6d793          	srai	a5,a3,0x1f
    1ad0:	00d72023          	sw	a3,0(a4)
    1ad4:	00f72223          	sw	a5,4(a4)
    1ad8:	ea9fe06f          	j	980 <_vfprintf_r+0x344>
    1adc:	03c12783          	lw	a5,60(sp)
    1ae0:	00044483          	lbu	s1,0(s0)
    1ae4:	00079463          	bnez	a5,1aec <_vfprintf_r+0x14b0>
    1ae8:	d05fe06f          	j	7ec <_vfprintf_r+0x1b0>
    1aec:	0007c783          	lbu	a5,0(a5)
    1af0:	00079463          	bnez	a5,1af8 <_vfprintf_r+0x14bc>
    1af4:	cf9fe06f          	j	7ec <_vfprintf_r+0x1b0>
    1af8:	400a6a13          	ori	s4,s4,1024
    1afc:	cf1fe06f          	j	7ec <_vfprintf_r+0x1b0>
    1b00:	00072c83          	lw	s9,0(a4)
    1b04:	00000913          	li	s2,0
    1b08:	00d12a23          	sw	a3,20(sp)
    1b0c:	00100793          	li	a5,1
    1b10:	df8ff06f          	j	1108 <_vfprintf_r+0xacc>
    1b14:	01412703          	lw	a4,20(sp)
    1b18:	00072783          	lw	a5,0(a4)
    1b1c:	00470713          	addi	a4,a4,4
    1b20:	00e12a23          	sw	a4,20(sp)
    1b24:	0007a603          	lw	a2,0(a5)
    1b28:	0047a683          	lw	a3,4(a5)
    1b2c:	0087a703          	lw	a4,8(a5)
    1b30:	00c7a783          	lw	a5,12(a5)
    1b34:	0ec12823          	sw	a2,240(sp)
    1b38:	0ed12a23          	sw	a3,244(sp)
    1b3c:	0ee12c23          	sw	a4,248(sp)
    1b40:	0ef12e23          	sw	a5,252(sp)
    1b44:	fc1fe06f          	j	b04 <_vfprintf_r+0x4c8>
    1b48:	0006ac83          	lw	s9,0(a3)
    1b4c:	00000913          	li	s2,0
    1b50:	00e12a23          	sw	a4,20(sp)
    1b54:	ef0ff06f          	j	1244 <_vfprintf_r+0xc08>
    1b58:	0006ac83          	lw	s9,0(a3)
    1b5c:	00e12a23          	sw	a4,20(sp)
    1b60:	41fcd913          	srai	s2,s9,0x1f
    1b64:	00090793          	mv	a5,s2
    1b68:	f58ff06f          	j	12c0 <_vfprintf_r+0xc84>
    1b6c:	00068493          	mv	s1,a3
    1b70:	c6904ee3          	bgtz	s1,17ec <_vfprintf_r+0x11b0>
    1b74:	ca1ff06f          	j	1814 <_vfprintf_r+0x11d8>
    1b78:	00148713          	addi	a4,s1,1
    1b7c:	00890693          	addi	a3,s2,8
    1b80:	00812783          	lw	a5,8(sp)
    1b84:	01bc8cb3          	add	s9,s9,s11
    1b88:	01b92223          	sw	s11,4(s2)
    1b8c:	00f92023          	sw	a5,0(s2)
    1b90:	0f912623          	sw	s9,236(sp)
    1b94:	0ee12423          	sw	a4,232(sp)
    1b98:	00700793          	li	a5,7
    1b9c:	7ae7d863          	bge	a5,a4,234c <_vfprintf_r+0x1d10>
    1ba0:	0e410613          	addi	a2,sp,228
    1ba4:	000c0593          	mv	a1,s8
    1ba8:	000d0513          	mv	a0,s10
    1bac:	4e5090ef          	jal	ra,b890 <__sprint_r>
    1bb0:	ae051ce3          	bnez	a0,16a8 <_vfprintf_r+0x106c>
    1bb4:	0e812703          	lw	a4,232(sp)
    1bb8:	0ec12c83          	lw	s9,236(sp)
    1bbc:	11410893          	addi	a7,sp,276
    1bc0:	00170713          	addi	a4,a4,1
    1bc4:	10c10913          	addi	s2,sp,268
    1bc8:	ae0ff06f          	j	ea8 <_vfprintf_r+0x86c>
    1bcc:	000c8893          	mv	a7,s9
    1bd0:	000a0b93          	mv	s7,s4
    1bd4:	e84ff06f          	j	1258 <_vfprintf_r+0xc1c>
    1bd8:	000147b7          	lui	a5,0x14
    1bdc:	2b478793          	addi	a5,a5,692 # 142b4 <__clzsi2+0x9c>
    1be0:	000c8893          	mv	a7,s9
    1be4:	02f12a23          	sw	a5,52(sp)
    1be8:	020a7793          	andi	a5,s4,32
    1bec:	12078863          	beqz	a5,1d1c <_vfprintf_r+0x16e0>
    1bf0:	01412783          	lw	a5,20(sp)
    1bf4:	00778b13          	addi	s6,a5,7
    1bf8:	ff8b7b13          	andi	s6,s6,-8
    1bfc:	000b2c83          	lw	s9,0(s6)
    1c00:	004b2903          	lw	s2,4(s6)
    1c04:	008b0793          	addi	a5,s6,8
    1c08:	00f12a23          	sw	a5,20(sp)
    1c0c:	001a7793          	andi	a5,s4,1
    1c10:	00078e63          	beqz	a5,1c2c <_vfprintf_r+0x15f0>
    1c14:	012ce7b3          	or	a5,s9,s2
    1c18:	00078a63          	beqz	a5,1c2c <_vfprintf_r+0x15f0>
    1c1c:	03000793          	li	a5,48
    1c20:	0cf10423          	sb	a5,200(sp)
    1c24:	0c9104a3          	sb	s1,201(sp)
    1c28:	002a6a13          	ori	s4,s4,2
    1c2c:	bffa7b93          	andi	s7,s4,-1025
    1c30:	00200793          	li	a5,2
    1c34:	cd4ff06f          	j	1108 <_vfprintf_r+0xacc>
    1c38:	000c8893          	mv	a7,s9
    1c3c:	de4ff06f          	j	1220 <_vfprintf_r+0xbe4>
    1c40:	000147b7          	lui	a5,0x14
    1c44:	2c878793          	addi	a5,a5,712 # 142c8 <__clzsi2+0xb0>
    1c48:	000c8893          	mv	a7,s9
    1c4c:	02f12a23          	sw	a5,52(sp)
    1c50:	f99ff06f          	j	1be8 <_vfprintf_r+0x15ac>
    1c54:	0e410613          	addi	a2,sp,228
    1c58:	000c0593          	mv	a1,s8
    1c5c:	000d0513          	mv	a0,s10
    1c60:	431090ef          	jal	ra,b890 <__sprint_r>
    1c64:	a40512e3          	bnez	a0,16a8 <_vfprintf_r+0x106c>
    1c68:	0ec12783          	lw	a5,236(sp)
    1c6c:	10c10893          	addi	a7,sp,268
    1c70:	83dff06f          	j	14ac <_vfprintf_r+0xe70>
    1c74:	00144483          	lbu	s1,1(s0)
    1c78:	200a6a13          	ori	s4,s4,512
    1c7c:	00140413          	addi	s0,s0,1
    1c80:	b6dfe06f          	j	7ec <_vfprintf_r+0x1b0>
    1c84:	00144483          	lbu	s1,1(s0)
    1c88:	020a6a13          	ori	s4,s4,32
    1c8c:	00140413          	addi	s0,s0,1
    1c90:	b5dfe06f          	j	7ec <_vfprintf_r+0x1b0>
    1c94:	00600793          	li	a5,6
    1c98:	000d8c93          	mv	s9,s11
    1c9c:	71b7e863          	bltu	a5,s11,23ac <_vfprintf_r+0x1d70>
    1ca0:	00014837          	lui	a6,0x14
    1ca4:	000c8a93          	mv	s5,s9
    1ca8:	01212a23          	sw	s2,20(sp)
    1cac:	2dc80b13          	addi	s6,a6,732 # 142dc <__clzsi2+0xc4>
    1cb0:	ba9fe06f          	j	858 <_vfprintf_r+0x21c>
    1cb4:	01000693          	li	a3,16
    1cb8:	0e812703          	lw	a4,232(sp)
    1cbc:	4496de63          	bge	a3,s1,2118 <_vfprintf_r+0x1adc>
    1cc0:	01000c93          	li	s9,16
    1cc4:	00700d93          	li	s11,7
    1cc8:	00c0006f          	j	1cd4 <_vfprintf_r+0x1698>
    1ccc:	ff048493          	addi	s1,s1,-16
    1cd0:	449cd463          	bge	s9,s1,2118 <_vfprintf_r+0x1adc>
    1cd4:	00812683          	lw	a3,8(sp)
    1cd8:	01078793          	addi	a5,a5,16
    1cdc:	00170713          	addi	a4,a4,1
    1ce0:	00d8a023          	sw	a3,0(a7)
    1ce4:	0198a223          	sw	s9,4(a7)
    1ce8:	0ef12623          	sw	a5,236(sp)
    1cec:	0ee12423          	sw	a4,232(sp)
    1cf0:	00888893          	addi	a7,a7,8
    1cf4:	fceddce3          	bge	s11,a4,1ccc <_vfprintf_r+0x1690>
    1cf8:	0e410613          	addi	a2,sp,228
    1cfc:	000c0593          	mv	a1,s8
    1d00:	000d0513          	mv	a0,s10
    1d04:	38d090ef          	jal	ra,b890 <__sprint_r>
    1d08:	9a0510e3          	bnez	a0,16a8 <_vfprintf_r+0x106c>
    1d0c:	0ec12783          	lw	a5,236(sp)
    1d10:	0e812703          	lw	a4,232(sp)
    1d14:	10c10893          	addi	a7,sp,268
    1d18:	fb5ff06f          	j	1ccc <_vfprintf_r+0x1690>
    1d1c:	01412683          	lw	a3,20(sp)
    1d20:	010a7793          	andi	a5,s4,16
    1d24:	00468713          	addi	a4,a3,4
    1d28:	1a078c63          	beqz	a5,1ee0 <_vfprintf_r+0x18a4>
    1d2c:	0006ac83          	lw	s9,0(a3)
    1d30:	00000913          	li	s2,0
    1d34:	00e12a23          	sw	a4,20(sp)
    1d38:	ed5ff06f          	j	1c0c <_vfprintf_r+0x15d0>
    1d3c:	0e410613          	addi	a2,sp,228
    1d40:	000c0593          	mv	a1,s8
    1d44:	000d0513          	mv	a0,s10
    1d48:	349090ef          	jal	ra,b890 <__sprint_r>
    1d4c:	94051ee3          	bnez	a0,16a8 <_vfprintf_r+0x106c>
    1d50:	0ec12c83          	lw	s9,236(sp)
    1d54:	0e812483          	lw	s1,232(sp)
    1d58:	10c10913          	addi	s2,sp,268
    1d5c:	894ff06f          	j	df0 <_vfprintf_r+0x7b4>
    1d60:	0e410613          	addi	a2,sp,228
    1d64:	000c0593          	mv	a1,s8
    1d68:	000d0513          	mv	a0,s10
    1d6c:	325090ef          	jal	ra,b890 <__sprint_r>
    1d70:	92051ce3          	bnez	a0,16a8 <_vfprintf_r+0x106c>
    1d74:	0ec12c83          	lw	s9,236(sp)
    1d78:	0e812483          	lw	s1,232(sp)
    1d7c:	10c10913          	addi	s2,sp,268
    1d80:	89cff06f          	j	e1c <_vfprintf_r+0x7e0>
    1d84:	1b010b13          	addi	s6,sp,432
    1d88:	00000793          	li	a5,0
    1d8c:	00812823          	sw	s0,16(sp)
    1d90:	00912e23          	sw	s1,28(sp)
    1d94:	000b0413          	mv	s0,s6
    1d98:	03312223          	sw	s3,36(sp)
    1d9c:	000c0b13          	mv	s6,s8
    1da0:	000c8493          	mv	s1,s9
    1da4:	00090993          	mv	s3,s2
    1da8:	03c12c83          	lw	s9,60(sp)
    1dac:	400bfa13          	andi	s4,s7,1024
    1db0:	0ff00a93          	li	s5,255
    1db4:	00088c13          	mv	s8,a7
    1db8:	00078913          	mv	s2,a5
    1dbc:	0240006f          	j	1de0 <_vfprintf_r+0x17a4>
    1dc0:	00a00613          	li	a2,10
    1dc4:	00000693          	li	a3,0
    1dc8:	00048513          	mv	a0,s1
    1dcc:	00098593          	mv	a1,s3
    1dd0:	7690d0ef          	jal	ra,fd38 <__udivdi3>
    1dd4:	32098ee3          	beqz	s3,2910 <_vfprintf_r+0x22d4>
    1dd8:	00050493          	mv	s1,a0
    1ddc:	00058993          	mv	s3,a1
    1de0:	00a00613          	li	a2,10
    1de4:	00000693          	li	a3,0
    1de8:	00048513          	mv	a0,s1
    1dec:	00098593          	mv	a1,s3
    1df0:	37c0e0ef          	jal	ra,1016c <__umoddi3>
    1df4:	03050513          	addi	a0,a0,48
    1df8:	fea40fa3          	sb	a0,-1(s0)
    1dfc:	00190913          	addi	s2,s2,1
    1e00:	fff40413          	addi	s0,s0,-1
    1e04:	fa0a0ee3          	beqz	s4,1dc0 <_vfprintf_r+0x1784>
    1e08:	000cc683          	lbu	a3,0(s9)
    1e0c:	fad91ae3          	bne	s2,a3,1dc0 <_vfprintf_r+0x1784>
    1e10:	fb5908e3          	beq	s2,s5,1dc0 <_vfprintf_r+0x1784>
    1e14:	4e099c63          	bnez	s3,230c <_vfprintf_r+0x1cd0>
    1e18:	00900793          	li	a5,9
    1e1c:	4e97e863          	bltu	a5,s1,230c <_vfprintf_r+0x1cd0>
    1e20:	000c0893          	mv	a7,s8
    1e24:	1b010793          	addi	a5,sp,432
    1e28:	000b0c13          	mv	s8,s6
    1e2c:	00040b13          	mv	s6,s0
    1e30:	03912e23          	sw	s9,60(sp)
    1e34:	01c12483          	lw	s1,28(sp)
    1e38:	02412983          	lw	s3,36(sp)
    1e3c:	01012403          	lw	s0,16(sp)
    1e40:	03212023          	sw	s2,32(sp)
    1e44:	41678cb3          	sub	s9,a5,s6
    1e48:	000b8a13          	mv	s4,s7
    1e4c:	ae8ff06f          	j	1134 <_vfprintf_r+0xaf8>
    1e50:	0e812703          	lw	a4,232(sp)
    1e54:	000146b7          	lui	a3,0x14
    1e58:	2e468693          	addi	a3,a3,740 # 142e4 <__clzsi2+0xcc>
    1e5c:	00d8a023          	sw	a3,0(a7)
    1e60:	00178793          	addi	a5,a5,1
    1e64:	00100693          	li	a3,1
    1e68:	00170713          	addi	a4,a4,1
    1e6c:	00d8a223          	sw	a3,4(a7)
    1e70:	0ef12623          	sw	a5,236(sp)
    1e74:	0ee12423          	sw	a4,232(sp)
    1e78:	00700693          	li	a3,7
    1e7c:	00888893          	addi	a7,a7,8
    1e80:	4ce6ce63          	blt	a3,a4,235c <_vfprintf_r+0x1d20>
    1e84:	18061e63          	bnez	a2,2020 <_vfprintf_r+0x19e4>
    1e88:	02012683          	lw	a3,32(sp)
    1e8c:	001a7713          	andi	a4,s4,1
    1e90:	00d76733          	or	a4,a4,a3
    1e94:	00071463          	bnez	a4,1e9c <_vfprintf_r+0x1860>
    1e98:	aa1fe06f          	j	938 <_vfprintf_r+0x2fc>
    1e9c:	03012703          	lw	a4,48(sp)
    1ea0:	02c12683          	lw	a3,44(sp)
    1ea4:	00e8a023          	sw	a4,0(a7)
    1ea8:	0e812703          	lw	a4,232(sp)
    1eac:	00f687b3          	add	a5,a3,a5
    1eb0:	00d8a223          	sw	a3,4(a7)
    1eb4:	00170713          	addi	a4,a4,1
    1eb8:	0ef12623          	sw	a5,236(sp)
    1ebc:	0ee12423          	sw	a4,232(sp)
    1ec0:	00700693          	li	a3,7
    1ec4:	58e6cc63          	blt	a3,a4,245c <_vfprintf_r+0x1e20>
    1ec8:	00888893          	addi	a7,a7,8
    1ecc:	1880006f          	j	2054 <_vfprintf_r+0x1a18>
    1ed0:	01012b83          	lw	s7,16(sp)
    1ed4:	00040d13          	mv	s10,s0
    1ed8:	00048c13          	mv	s8,s1
    1edc:	fd0ff06f          	j	16ac <_vfprintf_r+0x1070>
    1ee0:	040a7793          	andi	a5,s4,64
    1ee4:	1a078c63          	beqz	a5,209c <_vfprintf_r+0x1a60>
    1ee8:	01412783          	lw	a5,20(sp)
    1eec:	00000913          	li	s2,0
    1ef0:	00e12a23          	sw	a4,20(sp)
    1ef4:	0007dc83          	lhu	s9,0(a5)
    1ef8:	d15ff06f          	j	1c0c <_vfprintf_r+0x15d0>
    1efc:	0e410613          	addi	a2,sp,228
    1f00:	000c0593          	mv	a1,s8
    1f04:	000d0513          	mv	a0,s10
    1f08:	189090ef          	jal	ra,b890 <__sprint_r>
    1f0c:	f8051e63          	bnez	a0,16a8 <_vfprintf_r+0x106c>
    1f10:	0ec12783          	lw	a5,236(sp)
    1f14:	10c10893          	addi	a7,sp,268
    1f18:	d58ff06f          	j	1470 <_vfprintf_r+0xe34>
    1f1c:	00812683          	lw	a3,8(sp)
    1f20:	009787b3          	add	a5,a5,s1
    1f24:	0098a223          	sw	s1,4(a7)
    1f28:	00d8a023          	sw	a3,0(a7)
    1f2c:	00170713          	addi	a4,a4,1
    1f30:	0ef12623          	sw	a5,236(sp)
    1f34:	0ee12423          	sw	a4,232(sp)
    1f38:	00700693          	li	a3,7
    1f3c:	00e6c463          	blt	a3,a4,1f44 <_vfprintf_r+0x1908>
    1f40:	9f5fe06f          	j	934 <_vfprintf_r+0x2f8>
    1f44:	f89fe06f          	j	ecc <_vfprintf_r+0x890>
    1f48:	0f012783          	lw	a5,240(sp)
    1f4c:	0a010593          	addi	a1,sp,160
    1f50:	0b010513          	addi	a0,sp,176
    1f54:	0af12823          	sw	a5,176(sp)
    1f58:	0f412783          	lw	a5,244(sp)
    1f5c:	0a012023          	sw	zero,160(sp)
    1f60:	0a012223          	sw	zero,164(sp)
    1f64:	0af12a23          	sw	a5,180(sp)
    1f68:	0f812783          	lw	a5,248(sp)
    1f6c:	0a012423          	sw	zero,168(sp)
    1f70:	0a012623          	sw	zero,172(sp)
    1f74:	0af12c23          	sw	a5,184(sp)
    1f78:	0fc12783          	lw	a5,252(sp)
    1f7c:	0af12e23          	sw	a5,188(sp)
    1f80:	4b00f0ef          	jal	ra,11430 <__letf2>
    1f84:	01012883          	lw	a7,16(sp)
    1f88:	30054ce3          	bltz	a0,2aa0 <_vfprintf_r+0x2464>
    1f8c:	0c714783          	lbu	a5,199(sp)
    1f90:	04700713          	li	a4,71
    1f94:	3e975663          	bge	a4,s1,2380 <_vfprintf_r+0x1d44>
    1f98:	00014837          	lui	a6,0x14
    1f9c:	2a880b13          	addi	s6,a6,680 # 142a8 <__clzsi2+0x90>
    1fa0:	00012823          	sw	zero,16(sp)
    1fa4:	02012423          	sw	zero,40(sp)
    1fa8:	02012223          	sw	zero,36(sp)
    1fac:	00012e23          	sw	zero,28(sp)
    1fb0:	f7fa7a13          	andi	s4,s4,-129
    1fb4:	00300a93          	li	s5,3
    1fb8:	00300c93          	li	s9,3
    1fbc:	00000d93          	li	s11,0
    1fc0:	88079c63          	bnez	a5,1058 <_vfprintf_r+0xa1c>
    1fc4:	8a9fe06f          	j	86c <_vfprintf_r+0x230>
    1fc8:	00c12783          	lw	a5,12(sp)
    1fcc:	00040b13          	mv	s6,s0
    1fd0:	00f72023          	sw	a5,0(a4)
    1fd4:	9adfe06f          	j	980 <_vfprintf_r+0x344>
    1fd8:	000b0513          	mv	a0,s6
    1fdc:	05912023          	sw	s9,64(sp)
    1fe0:	511060ef          	jal	ra,8cf0 <strlen>
    1fe4:	0c714783          	lbu	a5,199(sp)
    1fe8:	fff54a93          	not	s5,a0
    1fec:	41fada93          	srai	s5,s5,0x1f
    1ff0:	01212a23          	sw	s2,20(sp)
    1ff4:	00012823          	sw	zero,16(sp)
    1ff8:	02012423          	sw	zero,40(sp)
    1ffc:	02012223          	sw	zero,36(sp)
    2000:	00012e23          	sw	zero,28(sp)
    2004:	04012883          	lw	a7,64(sp)
    2008:	00050c93          	mv	s9,a0
    200c:	01557ab3          	and	s5,a0,s5
    2010:	00000d93          	li	s11,0
    2014:	00078463          	beqz	a5,201c <_vfprintf_r+0x19e0>
    2018:	840ff06f          	j	1058 <_vfprintf_r+0xa1c>
    201c:	851fe06f          	j	86c <_vfprintf_r+0x230>
    2020:	03012703          	lw	a4,48(sp)
    2024:	02c12683          	lw	a3,44(sp)
    2028:	00888893          	addi	a7,a7,8
    202c:	fee8ac23          	sw	a4,-8(a7)
    2030:	0e812703          	lw	a4,232(sp)
    2034:	00f687b3          	add	a5,a3,a5
    2038:	fed8ae23          	sw	a3,-4(a7)
    203c:	00170713          	addi	a4,a4,1
    2040:	0ef12623          	sw	a5,236(sp)
    2044:	0ee12423          	sw	a4,232(sp)
    2048:	00700693          	li	a3,7
    204c:	40e6c863          	blt	a3,a4,245c <_vfprintf_r+0x1e20>
    2050:	360648e3          	bltz	a2,2bc0 <_vfprintf_r+0x2584>
    2054:	02012683          	lw	a3,32(sp)
    2058:	00170713          	addi	a4,a4,1
    205c:	0168a023          	sw	s6,0(a7)
    2060:	00f687b3          	add	a5,a3,a5
    2064:	00d8a223          	sw	a3,4(a7)
    2068:	0ef12623          	sw	a5,236(sp)
    206c:	0ee12423          	sw	a4,232(sp)
    2070:	00700693          	li	a3,7
    2074:	00e6c463          	blt	a3,a4,207c <_vfprintf_r+0x1a40>
    2078:	8bdfe06f          	j	934 <_vfprintf_r+0x2f8>
    207c:	e51fe06f          	j	ecc <_vfprintf_r+0x890>
    2080:	200a7793          	andi	a5,s4,512
    2084:	3a078263          	beqz	a5,2428 <_vfprintf_r+0x1dec>
    2088:	01412783          	lw	a5,20(sp)
    208c:	00000913          	li	s2,0
    2090:	00e12a23          	sw	a4,20(sp)
    2094:	0007cc83          	lbu	s9,0(a5)
    2098:	9acff06f          	j	1244 <_vfprintf_r+0xc08>
    209c:	200a7793          	andi	a5,s4,512
    20a0:	36078a63          	beqz	a5,2414 <_vfprintf_r+0x1dd8>
    20a4:	01412783          	lw	a5,20(sp)
    20a8:	00000913          	li	s2,0
    20ac:	00e12a23          	sw	a4,20(sp)
    20b0:	0007cc83          	lbu	s9,0(a5)
    20b4:	b59ff06f          	j	1c0c <_vfprintf_r+0x15d0>
    20b8:	200a7793          	andi	a5,s4,512
    20bc:	34078063          	beqz	a5,23fc <_vfprintf_r+0x1dc0>
    20c0:	01412783          	lw	a5,20(sp)
    20c4:	00e12a23          	sw	a4,20(sp)
    20c8:	00078c83          	lb	s9,0(a5)
    20cc:	41fcd913          	srai	s2,s9,0x1f
    20d0:	00090793          	mv	a5,s2
    20d4:	9ecff06f          	j	12c0 <_vfprintf_r+0xc84>
    20d8:	200bf793          	andi	a5,s7,512
    20dc:	30078463          	beqz	a5,23e4 <_vfprintf_r+0x1da8>
    20e0:	01412783          	lw	a5,20(sp)
    20e4:	00000913          	li	s2,0
    20e8:	00d12a23          	sw	a3,20(sp)
    20ec:	0007cc83          	lbu	s9,0(a5)
    20f0:	00100793          	li	a5,1
    20f4:	814ff06f          	j	1108 <_vfprintf_r+0xacc>
    20f8:	0fc12783          	lw	a5,252(sp)
    20fc:	3407ca63          	bltz	a5,2450 <_vfprintf_r+0x1e14>
    2100:	0c714783          	lbu	a5,199(sp)
    2104:	04700713          	li	a4,71
    2108:	269758e3          	bge	a4,s1,2b78 <_vfprintf_r+0x253c>
    210c:	00014837          	lui	a6,0x14
    2110:	2b080b13          	addi	s6,a6,688 # 142b0 <__clzsi2+0x98>
    2114:	e8dff06f          	j	1fa0 <_vfprintf_r+0x1964>
    2118:	00812683          	lw	a3,8(sp)
    211c:	009787b3          	add	a5,a5,s1
    2120:	00170713          	addi	a4,a4,1
    2124:	00d8a023          	sw	a3,0(a7)
    2128:	0098a223          	sw	s1,4(a7)
    212c:	0ef12623          	sw	a5,236(sp)
    2130:	0ee12423          	sw	a4,232(sp)
    2134:	00700693          	li	a3,7
    2138:	00888893          	addi	a7,a7,8
    213c:	eee6d863          	bge	a3,a4,182c <_vfprintf_r+0x11f0>
    2140:	0e410613          	addi	a2,sp,228
    2144:	000c0593          	mv	a1,s8
    2148:	000d0513          	mv	a0,s10
    214c:	744090ef          	jal	ra,b890 <__sprint_r>
    2150:	d4051c63          	bnez	a0,16a8 <_vfprintf_r+0x106c>
    2154:	0ec12783          	lw	a5,236(sp)
    2158:	10c10893          	addi	a7,sp,268
    215c:	ed0ff06f          	j	182c <_vfprintf_r+0x11f0>
    2160:	02012703          	lw	a4,32(sp)
    2164:	02412c83          	lw	s9,36(sp)
    2168:	01412e23          	sw	s4,28(sp)
    216c:	04812023          	sw	s0,64(sp)
    2170:	05312223          	sw	s3,68(sp)
    2174:	03512223          	sw	s5,36(sp)
    2178:	02812983          	lw	s3,40(sp)
    217c:	03612423          	sw	s6,40(sp)
    2180:	00eb0bb3          	add	s7,s6,a4
    2184:	03c12403          	lw	s0,60(sp)
    2188:	04812a03          	lw	s4,72(sp)
    218c:	04c12a83          	lw	s5,76(sp)
    2190:	00700493          	li	s1,7
    2194:	01000913          	li	s2,16
    2198:	000c0b13          	mv	s6,s8
    219c:	080c8863          	beqz	s9,222c <_vfprintf_r+0x1bf0>
    21a0:	08099863          	bnez	s3,2230 <_vfprintf_r+0x1bf4>
    21a4:	fff40413          	addi	s0,s0,-1
    21a8:	fffc8c93          	addi	s9,s9,-1
    21ac:	0e812703          	lw	a4,232(sp)
    21b0:	014787b3          	add	a5,a5,s4
    21b4:	0158a023          	sw	s5,0(a7)
    21b8:	00170713          	addi	a4,a4,1
    21bc:	0148a223          	sw	s4,4(a7)
    21c0:	0ef12623          	sw	a5,236(sp)
    21c4:	0ee12423          	sw	a4,232(sp)
    21c8:	00888893          	addi	a7,a7,8
    21cc:	0ee4ce63          	blt	s1,a4,22c8 <_vfprintf_r+0x1c8c>
    21d0:	00044683          	lbu	a3,0(s0)
    21d4:	41bb8633          	sub	a2,s7,s11
    21d8:	00068c13          	mv	s8,a3
    21dc:	00d65463          	bge	a2,a3,21e4 <_vfprintf_r+0x1ba8>
    21e0:	00060c13          	mv	s8,a2
    21e4:	03805663          	blez	s8,2210 <_vfprintf_r+0x1bd4>
    21e8:	0e812683          	lw	a3,232(sp)
    21ec:	018787b3          	add	a5,a5,s8
    21f0:	01b8a023          	sw	s11,0(a7)
    21f4:	00168693          	addi	a3,a3,1
    21f8:	0188a223          	sw	s8,4(a7)
    21fc:	0ef12623          	sw	a5,236(sp)
    2200:	0ed12423          	sw	a3,232(sp)
    2204:	0ed4c263          	blt	s1,a3,22e8 <_vfprintf_r+0x1cac>
    2208:	00044683          	lbu	a3,0(s0)
    220c:	00888893          	addi	a7,a7,8
    2210:	fffc4613          	not	a2,s8
    2214:	41f65613          	srai	a2,a2,0x1f
    2218:	00cc7733          	and	a4,s8,a2
    221c:	40e68c33          	sub	s8,a3,a4
    2220:	01804c63          	bgtz	s8,2238 <_vfprintf_r+0x1bfc>
    2224:	00dd8db3          	add	s11,s11,a3
    2228:	f60c9ce3          	bnez	s9,21a0 <_vfprintf_r+0x1b64>
    222c:	60098e63          	beqz	s3,2848 <_vfprintf_r+0x220c>
    2230:	fff98993          	addi	s3,s3,-1
    2234:	f79ff06f          	j	21ac <_vfprintf_r+0x1b70>
    2238:	0e812683          	lw	a3,232(sp)
    223c:	01894863          	blt	s2,s8,224c <_vfprintf_r+0x1c10>
    2240:	0580006f          	j	2298 <_vfprintf_r+0x1c5c>
    2244:	ff0c0c13          	addi	s8,s8,-16
    2248:	05895863          	bge	s2,s8,2298 <_vfprintf_r+0x1c5c>
    224c:	00812703          	lw	a4,8(sp)
    2250:	01078793          	addi	a5,a5,16
    2254:	00168693          	addi	a3,a3,1
    2258:	00e8a023          	sw	a4,0(a7)
    225c:	0128a223          	sw	s2,4(a7)
    2260:	0ef12623          	sw	a5,236(sp)
    2264:	0ed12423          	sw	a3,232(sp)
    2268:	00888893          	addi	a7,a7,8
    226c:	fcd4dce3          	bge	s1,a3,2244 <_vfprintf_r+0x1c08>
    2270:	0e410613          	addi	a2,sp,228
    2274:	000b0593          	mv	a1,s6
    2278:	000d0513          	mv	a0,s10
    227c:	614090ef          	jal	ra,b890 <__sprint_r>
    2280:	68051263          	bnez	a0,2904 <_vfprintf_r+0x22c8>
    2284:	ff0c0c13          	addi	s8,s8,-16
    2288:	0ec12783          	lw	a5,236(sp)
    228c:	0e812683          	lw	a3,232(sp)
    2290:	10c10893          	addi	a7,sp,268
    2294:	fb894ce3          	blt	s2,s8,224c <_vfprintf_r+0x1c10>
    2298:	00812703          	lw	a4,8(sp)
    229c:	018787b3          	add	a5,a5,s8
    22a0:	00168693          	addi	a3,a3,1
    22a4:	00e8a023          	sw	a4,0(a7)
    22a8:	0188a223          	sw	s8,4(a7)
    22ac:	0ef12623          	sw	a5,236(sp)
    22b0:	0ed12423          	sw	a3,232(sp)
    22b4:	68d4c263          	blt	s1,a3,2938 <_vfprintf_r+0x22fc>
    22b8:	00044683          	lbu	a3,0(s0)
    22bc:	00888893          	addi	a7,a7,8
    22c0:	00dd8db3          	add	s11,s11,a3
    22c4:	f65ff06f          	j	2228 <_vfprintf_r+0x1bec>
    22c8:	0e410613          	addi	a2,sp,228
    22cc:	000b0593          	mv	a1,s6
    22d0:	000d0513          	mv	a0,s10
    22d4:	5bc090ef          	jal	ra,b890 <__sprint_r>
    22d8:	62051663          	bnez	a0,2904 <_vfprintf_r+0x22c8>
    22dc:	0ec12783          	lw	a5,236(sp)
    22e0:	10c10893          	addi	a7,sp,268
    22e4:	eedff06f          	j	21d0 <_vfprintf_r+0x1b94>
    22e8:	0e410613          	addi	a2,sp,228
    22ec:	000b0593          	mv	a1,s6
    22f0:	000d0513          	mv	a0,s10
    22f4:	59c090ef          	jal	ra,b890 <__sprint_r>
    22f8:	60051663          	bnez	a0,2904 <_vfprintf_r+0x22c8>
    22fc:	00044683          	lbu	a3,0(s0)
    2300:	0ec12783          	lw	a5,236(sp)
    2304:	10c10893          	addi	a7,sp,268
    2308:	f09ff06f          	j	2210 <_vfprintf_r+0x1bd4>
    230c:	04812783          	lw	a5,72(sp)
    2310:	04c12583          	lw	a1,76(sp)
    2314:	00000913          	li	s2,0
    2318:	40f40433          	sub	s0,s0,a5
    231c:	00078613          	mv	a2,a5
    2320:	00040513          	mv	a0,s0
    2324:	259060ef          	jal	ra,8d7c <strncpy>
    2328:	001cc583          	lbu	a1,1(s9)
    232c:	00a00613          	li	a2,10
    2330:	00000693          	li	a3,0
    2334:	00b03833          	snez	a6,a1
    2338:	00048513          	mv	a0,s1
    233c:	00098593          	mv	a1,s3
    2340:	010c8cb3          	add	s9,s9,a6
    2344:	1f50d0ef          	jal	ra,fd38 <__udivdi3>
    2348:	a91ff06f          	j	1dd8 <_vfprintf_r+0x179c>
    234c:	00170713          	addi	a4,a4,1
    2350:	00868893          	addi	a7,a3,8
    2354:	00068913          	mv	s2,a3
    2358:	b51fe06f          	j	ea8 <_vfprintf_r+0x86c>
    235c:	0e410613          	addi	a2,sp,228
    2360:	000c0593          	mv	a1,s8
    2364:	000d0513          	mv	a0,s10
    2368:	528090ef          	jal	ra,b890 <__sprint_r>
    236c:	b2051e63          	bnez	a0,16a8 <_vfprintf_r+0x106c>
    2370:	0cc12603          	lw	a2,204(sp)
    2374:	0ec12783          	lw	a5,236(sp)
    2378:	10c10893          	addi	a7,sp,268
    237c:	b09ff06f          	j	1e84 <_vfprintf_r+0x1848>
    2380:	00014837          	lui	a6,0x14
    2384:	2a480b13          	addi	s6,a6,676 # 142a4 <__clzsi2+0x8c>
    2388:	c19ff06f          	j	1fa0 <_vfprintf_r+0x1964>
    238c:	0e410613          	addi	a2,sp,228
    2390:	000c0593          	mv	a1,s8
    2394:	000d0513          	mv	a0,s10
    2398:	4f8090ef          	jal	ra,b890 <__sprint_r>
    239c:	b0051663          	bnez	a0,16a8 <_vfprintf_r+0x106c>
    23a0:	0ec12783          	lw	a5,236(sp)
    23a4:	10c10893          	addi	a7,sp,268
    23a8:	c6cff06f          	j	1814 <_vfprintf_r+0x11d8>
    23ac:	00600c93          	li	s9,6
    23b0:	8f1ff06f          	j	1ca0 <_vfprintf_r+0x1664>
    23b4:	02012703          	lw	a4,32(sp)
    23b8:	00eb0833          	add	a6,s6,a4
    23bc:	409704b3          	sub	s1,a4,s1
    23c0:	41b806b3          	sub	a3,a6,s11
    23c4:	00048913          	mv	s2,s1
    23c8:	d096d463          	bge	a3,s1,18d0 <_vfprintf_r+0x1294>
    23cc:	00068913          	mv	s2,a3
    23d0:	d00ff06f          	j	18d0 <_vfprintf_r+0x1294>
    23d4:	00c12783          	lw	a5,12(sp)
    23d8:	00040b13          	mv	s6,s0
    23dc:	00f71023          	sh	a5,0(a4)
    23e0:	da0fe06f          	j	980 <_vfprintf_r+0x344>
    23e4:	01412783          	lw	a5,20(sp)
    23e8:	00000913          	li	s2,0
    23ec:	00d12a23          	sw	a3,20(sp)
    23f0:	0007ac83          	lw	s9,0(a5)
    23f4:	00100793          	li	a5,1
    23f8:	d11fe06f          	j	1108 <_vfprintf_r+0xacc>
    23fc:	01412783          	lw	a5,20(sp)
    2400:	00e12a23          	sw	a4,20(sp)
    2404:	0007ac83          	lw	s9,0(a5)
    2408:	41fcd913          	srai	s2,s9,0x1f
    240c:	00090793          	mv	a5,s2
    2410:	eb1fe06f          	j	12c0 <_vfprintf_r+0xc84>
    2414:	01412783          	lw	a5,20(sp)
    2418:	00000913          	li	s2,0
    241c:	00e12a23          	sw	a4,20(sp)
    2420:	0007ac83          	lw	s9,0(a5)
    2424:	fe8ff06f          	j	1c0c <_vfprintf_r+0x15d0>
    2428:	01412783          	lw	a5,20(sp)
    242c:	00000913          	li	s2,0
    2430:	00e12a23          	sw	a4,20(sp)
    2434:	0007ac83          	lw	s9,0(a5)
    2438:	e0dfe06f          	j	1244 <_vfprintf_r+0xc08>
    243c:	0e410613          	addi	a2,sp,228
    2440:	000c0593          	mv	a1,s8
    2444:	000d0513          	mv	a0,s10
    2448:	448090ef          	jal	ra,b890 <__sprint_r>
    244c:	d48fe06f          	j	994 <_vfprintf_r+0x358>
    2450:	02d00793          	li	a5,45
    2454:	0cf103a3          	sb	a5,199(sp)
    2458:	cadff06f          	j	2104 <_vfprintf_r+0x1ac8>
    245c:	0e410613          	addi	a2,sp,228
    2460:	000c0593          	mv	a1,s8
    2464:	000d0513          	mv	a0,s10
    2468:	428090ef          	jal	ra,b890 <__sprint_r>
    246c:	a2051e63          	bnez	a0,16a8 <_vfprintf_r+0x106c>
    2470:	0cc12603          	lw	a2,204(sp)
    2474:	0ec12783          	lw	a5,236(sp)
    2478:	0e812703          	lw	a4,232(sp)
    247c:	10c10893          	addi	a7,sp,268
    2480:	bd1ff06f          	j	2050 <_vfprintf_r+0x1a14>
    2484:	03000793          	li	a5,48
    2488:	0cf10423          	sb	a5,200(sp)
    248c:	05800793          	li	a5,88
    2490:	002a6713          	ori	a4,s4,2
    2494:	0cf104a3          	sb	a5,201(sp)
    2498:	04e12823          	sw	a4,80(sp)
    249c:	06300793          	li	a5,99
    24a0:	00012823          	sw	zero,16(sp)
    24a4:	14c10b13          	addi	s6,sp,332
    24a8:	7db7ce63          	blt	a5,s11,2c84 <_vfprintf_r+0x2648>
    24ac:	0fc12b83          	lw	s7,252(sp)
    24b0:	fdf4f793          	andi	a5,s1,-33
    24b4:	02f12423          	sw	a5,40(sp)
    24b8:	04012c23          	sw	zero,88(sp)
    24bc:	0f012e03          	lw	t3,240(sp)
    24c0:	0f412e83          	lw	t4,244(sp)
    24c4:	0f812f03          	lw	t5,248(sp)
    24c8:	102a6a13          	ori	s4,s4,258
    24cc:	440bcc63          	bltz	s7,2924 <_vfprintf_r+0x22e8>
    24d0:	06100793          	li	a5,97
    24d4:	0cf48ae3          	beq	s1,a5,2da8 <_vfprintf_r+0x276c>
    24d8:	04100793          	li	a5,65
    24dc:	00f48463          	beq	s1,a5,24e4 <_vfprintf_r+0x1ea8>
    24e0:	eb4fe06f          	j	b94 <_vfprintf_r+0x558>
    24e4:	0b010a93          	addi	s5,sp,176
    24e8:	000a8513          	mv	a0,s5
    24ec:	05112a23          	sw	a7,84(sp)
    24f0:	0bc12823          	sw	t3,176(sp)
    24f4:	0bd12a23          	sw	t4,180(sp)
    24f8:	0be12c23          	sw	t5,184(sp)
    24fc:	0b712e23          	sw	s7,188(sp)
    2500:	1bd110ef          	jal	ra,13ebc <__trunctfdf2>
    2504:	0cc10613          	addi	a2,sp,204
    2508:	2d4060ef          	jal	ra,87dc <frexp>
    250c:	00058613          	mv	a2,a1
    2510:	00050593          	mv	a1,a0
    2514:	000a8513          	mv	a0,s5
    2518:	7ac110ef          	jal	ra,13cc4 <__extenddftf2>
    251c:	0b012783          	lw	a5,176(sp)
    2520:	0a010c93          	addi	s9,sp,160
    2524:	09010913          	addi	s2,sp,144
    2528:	08f12823          	sw	a5,144(sp)
    252c:	0b412783          	lw	a5,180(sp)
    2530:	08010613          	addi	a2,sp,128
    2534:	00090593          	mv	a1,s2
    2538:	08f12a23          	sw	a5,148(sp)
    253c:	0b812783          	lw	a5,184(sp)
    2540:	000c8513          	mv	a0,s9
    2544:	04c12023          	sw	a2,64(sp)
    2548:	08f12c23          	sw	a5,152(sp)
    254c:	0bc12783          	lw	a5,188(sp)
    2550:	08012023          	sw	zero,128(sp)
    2554:	08012223          	sw	zero,132(sp)
    2558:	08f12e23          	sw	a5,156(sp)
    255c:	3ffc07b7          	lui	a5,0x3ffc0
    2560:	08f12623          	sw	a5,140(sp)
    2564:	08012423          	sw	zero,136(sp)
    2568:	00c0f0ef          	jal	ra,11574 <__multf3>
    256c:	0a012683          	lw	a3,160(sp)
    2570:	0a412e03          	lw	t3,164(sp)
    2574:	0a812e83          	lw	t4,168(sp)
    2578:	0ac12f03          	lw	t5,172(sp)
    257c:	000c8593          	mv	a1,s9
    2580:	000a8513          	mv	a0,s5
    2584:	0ad12823          	sw	a3,176(sp)
    2588:	04d12223          	sw	a3,68(sp)
    258c:	0bc12a23          	sw	t3,180(sp)
    2590:	03c12223          	sw	t3,36(sp)
    2594:	0bd12c23          	sw	t4,184(sp)
    2598:	03d12023          	sw	t4,32(sp)
    259c:	0be12e23          	sw	t5,188(sp)
    25a0:	01e12e23          	sw	t5,28(sp)
    25a4:	0a012023          	sw	zero,160(sp)
    25a8:	0a012223          	sw	zero,164(sp)
    25ac:	0a012423          	sw	zero,168(sp)
    25b0:	0a012623          	sw	zero,172(sp)
    25b4:	46d0e0ef          	jal	ra,11220 <__eqtf2>
    25b8:	01c12f03          	lw	t5,28(sp)
    25bc:	02012e83          	lw	t4,32(sp)
    25c0:	02412e03          	lw	t3,36(sp)
    25c4:	04412683          	lw	a3,68(sp)
    25c8:	05412883          	lw	a7,84(sp)
    25cc:	00051663          	bnez	a0,25d8 <_vfprintf_r+0x1f9c>
    25d0:	00100793          	li	a5,1
    25d4:	0cf12623          	sw	a5,204(sp)
    25d8:	000147b7          	lui	a5,0x14
    25dc:	2c878793          	addi	a5,a5,712 # 142c8 <__clzsi2+0xb0>
    25e0:	02f12223          	sw	a5,36(sp)
    25e4:	fffd8713          	addi	a4,s11,-1
    25e8:	05412e23          	sw	s4,92(sp)
    25ec:	06912223          	sw	s1,100(sp)
    25f0:	07b12623          	sw	s11,108(sp)
    25f4:	07a12a23          	sw	s10,116(sp)
    25f8:	07812c23          	sw	s8,120(sp)
    25fc:	06812023          	sw	s0,96(sp)
    2600:	07312423          	sw	s3,104(sp)
    2604:	07112823          	sw	a7,112(sp)
    2608:	000b0c13          	mv	s8,s6
    260c:	00070b93          	mv	s7,a4
    2610:	07612e23          	sw	s6,124(sp)
    2614:	00068d13          	mv	s10,a3
    2618:	000e0d93          	mv	s11,t3
    261c:	000e8493          	mv	s1,t4
    2620:	000f0a13          	mv	s4,t5
    2624:	0480006f          	j	266c <_vfprintf_r+0x2030>
    2628:	000c8593          	mv	a1,s9
    262c:	000a8513          	mv	a0,s5
    2630:	02c12023          	sw	a2,32(sp)
    2634:	01f12e23          	sw	t6,28(sp)
    2638:	0bf12c23          	sw	t6,184(sp)
    263c:	0ac12e23          	sw	a2,188(sp)
    2640:	0b612823          	sw	s6,176(sp)
    2644:	0b312a23          	sw	s3,180(sp)
    2648:	0a012023          	sw	zero,160(sp)
    264c:	0a012223          	sw	zero,164(sp)
    2650:	0a012423          	sw	zero,168(sp)
    2654:	0a012623          	sw	zero,172(sp)
    2658:	3c90e0ef          	jal	ra,11220 <__eqtf2>
    265c:	01c12f83          	lw	t6,28(sp)
    2660:	02012603          	lw	a2,32(sp)
    2664:	fffb8b93          	addi	s7,s7,-1
    2668:	0e050263          	beqz	a0,274c <_vfprintf_r+0x2110>
    266c:	400307b7          	lui	a5,0x40030
    2670:	00090613          	mv	a2,s2
    2674:	000c8593          	mv	a1,s9
    2678:	000a8513          	mv	a0,s5
    267c:	08f12e23          	sw	a5,156(sp)
    2680:	0ba12023          	sw	s10,160(sp)
    2684:	0bb12223          	sw	s11,164(sp)
    2688:	0a912423          	sw	s1,168(sp)
    268c:	0b412623          	sw	s4,172(sp)
    2690:	08012823          	sw	zero,144(sp)
    2694:	08012a23          	sw	zero,148(sp)
    2698:	08012c23          	sw	zero,152(sp)
    269c:	6d90e0ef          	jal	ra,11574 <__multf3>
    26a0:	000a8513          	mv	a0,s5
    26a4:	3b8110ef          	jal	ra,13a5c <__fixtfsi>
    26a8:	00050593          	mv	a1,a0
    26ac:	00050413          	mv	s0,a0
    26b0:	000a8513          	mv	a0,s5
    26b4:	0b012983          	lw	s3,176(sp)
    26b8:	0b412483          	lw	s1,180(sp)
    26bc:	0b812b03          	lw	s6,184(sp)
    26c0:	0bc12a03          	lw	s4,188(sp)
    26c4:	4ac110ef          	jal	ra,13b70 <__floatsitf>
    26c8:	0b012683          	lw	a3,176(sp)
    26cc:	04012603          	lw	a2,64(sp)
    26d0:	00090593          	mv	a1,s2
    26d4:	08d12023          	sw	a3,128(sp)
    26d8:	0b412683          	lw	a3,180(sp)
    26dc:	000c8513          	mv	a0,s9
    26e0:	09312823          	sw	s3,144(sp)
    26e4:	08d12223          	sw	a3,132(sp)
    26e8:	0b812683          	lw	a3,184(sp)
    26ec:	08912a23          	sw	s1,148(sp)
    26f0:	09612c23          	sw	s6,152(sp)
    26f4:	08d12423          	sw	a3,136(sp)
    26f8:	0bc12683          	lw	a3,188(sp)
    26fc:	09412e23          	sw	s4,156(sp)
    2700:	08d12623          	sw	a3,140(sp)
    2704:	6510f0ef          	jal	ra,12554 <__subtf3>
    2708:	02412783          	lw	a5,36(sp)
    270c:	0a012b03          	lw	s6,160(sp)
    2710:	0a412983          	lw	s3,164(sp)
    2714:	008786b3          	add	a3,a5,s0
    2718:	0006c683          	lbu	a3,0(a3)
    271c:	0a812f83          	lw	t6,168(sp)
    2720:	0ac12603          	lw	a2,172(sp)
    2724:	05812a23          	sw	s8,84(sp)
    2728:	00dc0023          	sb	a3,0(s8)
    272c:	05712223          	sw	s7,68(sp)
    2730:	fff00793          	li	a5,-1
    2734:	001c0c13          	addi	s8,s8,1
    2738:	000b0d13          	mv	s10,s6
    273c:	00098d93          	mv	s11,s3
    2740:	000f8493          	mv	s1,t6
    2744:	00060a13          	mv	s4,a2
    2748:	eefb90e3          	bne	s7,a5,2628 <_vfprintf_r+0x1fec>
    274c:	07012883          	lw	a7,112(sp)
    2750:	000b0393          	mv	t2,s6
    2754:	00098293          	mv	t0,s3
    2758:	3ffe0937          	lui	s2,0x3ffe0
    275c:	000c8593          	mv	a1,s9
    2760:	000a8513          	mv	a0,s5
    2764:	03112023          	sw	a7,32(sp)
    2768:	00812e23          	sw	s0,28(sp)
    276c:	05c12a03          	lw	s4,92(sp)
    2770:	06412483          	lw	s1,100(sp)
    2774:	06012403          	lw	s0,96(sp)
    2778:	0a712823          	sw	t2,176(sp)
    277c:	06712223          	sw	t2,100(sp)
    2780:	0a512a23          	sw	t0,180(sp)
    2784:	06512023          	sw	t0,96(sp)
    2788:	0bf12c23          	sw	t6,184(sp)
    278c:	05f12e23          	sw	t6,92(sp)
    2790:	0ac12e23          	sw	a2,188(sp)
    2794:	04c12023          	sw	a2,64(sp)
    2798:	0a012023          	sw	zero,160(sp)
    279c:	0a012223          	sw	zero,164(sp)
    27a0:	0a012423          	sw	zero,168(sp)
    27a4:	0b212623          	sw	s2,172(sp)
    27a8:	3450e0ef          	jal	ra,112ec <__getf2>
    27ac:	000c0b93          	mv	s7,s8
    27b0:	06c12d83          	lw	s11,108(sp)
    27b4:	07412d03          	lw	s10,116(sp)
    27b8:	07812c03          	lw	s8,120(sp)
    27bc:	07c12b03          	lw	s6,124(sp)
    27c0:	06812983          	lw	s3,104(sp)
    27c4:	02012883          	lw	a7,32(sp)
    27c8:	54a04e63          	bgtz	a0,2d24 <_vfprintf_r+0x26e8>
    27cc:	06412383          	lw	t2,100(sp)
    27d0:	06012283          	lw	t0,96(sp)
    27d4:	05c12f83          	lw	t6,92(sp)
    27d8:	04012603          	lw	a2,64(sp)
    27dc:	000c8593          	mv	a1,s9
    27e0:	000a8513          	mv	a0,s5
    27e4:	0a712823          	sw	t2,176(sp)
    27e8:	0a512a23          	sw	t0,180(sp)
    27ec:	0bf12c23          	sw	t6,184(sp)
    27f0:	0ac12e23          	sw	a2,188(sp)
    27f4:	0a012023          	sw	zero,160(sp)
    27f8:	0a012223          	sw	zero,164(sp)
    27fc:	0a012423          	sw	zero,168(sp)
    2800:	0b212623          	sw	s2,172(sp)
    2804:	21d0e0ef          	jal	ra,11220 <__eqtf2>
    2808:	02012883          	lw	a7,32(sp)
    280c:	00051863          	bnez	a0,281c <_vfprintf_r+0x21e0>
    2810:	01c12783          	lw	a5,28(sp)
    2814:	0017fc93          	andi	s9,a5,1
    2818:	500c9663          	bnez	s9,2d24 <_vfprintf_r+0x26e8>
    281c:	04412783          	lw	a5,68(sp)
    2820:	03000693          	li	a3,48
    2824:	00178713          	addi	a4,a5,1 # 40030001 <//.+0x4001a089>
    2828:	00eb8733          	add	a4,s7,a4
    282c:	0007c863          	bltz	a5,283c <_vfprintf_r+0x2200>
    2830:	001b8b93          	addi	s7,s7,1
    2834:	fedb8fa3          	sb	a3,-1(s7)
    2838:	ff771ce3          	bne	a4,s7,2830 <_vfprintf_r+0x21f4>
    283c:	416b87b3          	sub	a5,s7,s6
    2840:	02f12023          	sw	a5,32(sp)
    2844:	bf0fe06f          	j	c34 <_vfprintf_r+0x5f8>
    2848:	02012703          	lw	a4,32(sp)
    284c:	000b0c13          	mv	s8,s6
    2850:	02812b03          	lw	s6,40(sp)
    2854:	02812e23          	sw	s0,60(sp)
    2858:	01c12a03          	lw	s4,28(sp)
    285c:	00eb0733          	add	a4,s6,a4
    2860:	04012403          	lw	s0,64(sp)
    2864:	04412983          	lw	s3,68(sp)
    2868:	02412a83          	lw	s5,36(sp)
    286c:	01b76463          	bltu	a4,s11,2874 <_vfprintf_r+0x2238>
    2870:	fcdfe06f          	j	183c <_vfprintf_r+0x1200>
    2874:	00070d93          	mv	s11,a4
    2878:	fc5fe06f          	j	183c <_vfprintf_r+0x1200>
    287c:	01c12703          	lw	a4,28(sp)
    2880:	ffd00793          	li	a5,-3
    2884:	00f74463          	blt	a4,a5,288c <_vfprintf_r+0x2250>
    2888:	00edda63          	bge	s11,a4,289c <_vfprintf_r+0x2260>
    288c:	ffe48493          	addi	s1,s1,-2
    2890:	fdf4f793          	andi	a5,s1,-33
    2894:	02f12423          	sw	a5,40(sp)
    2898:	bc4fe06f          	j	c5c <_vfprintf_r+0x620>
    289c:	02012783          	lw	a5,32(sp)
    28a0:	01c12703          	lw	a4,28(sp)
    28a4:	2af74263          	blt	a4,a5,2b48 <_vfprintf_r+0x250c>
    28a8:	05012783          	lw	a5,80(sp)
    28ac:	00070c93          	mv	s9,a4
    28b0:	0017f793          	andi	a5,a5,1
    28b4:	00078663          	beqz	a5,28c0 <_vfprintf_r+0x2284>
    28b8:	02c12783          	lw	a5,44(sp)
    28bc:	00f70cb3          	add	s9,a4,a5
    28c0:	05012783          	lw	a5,80(sp)
    28c4:	4007f793          	andi	a5,a5,1024
    28c8:	00078663          	beqz	a5,28d4 <_vfprintf_r+0x2298>
    28cc:	01c12783          	lw	a5,28(sp)
    28d0:	60f04663          	bgtz	a5,2edc <_vfprintf_r+0x28a0>
    28d4:	fffcca93          	not	s5,s9
    28d8:	41fada93          	srai	s5,s5,0x1f
    28dc:	015cfab3          	and	s5,s9,s5
    28e0:	06700493          	li	s1,103
    28e4:	02012423          	sw	zero,40(sp)
    28e8:	02012223          	sw	zero,36(sp)
    28ec:	c8cfe06f          	j	d78 <_vfprintf_r+0x73c>
    28f0:	0c714783          	lbu	a5,199(sp)
    28f4:	00000d93          	li	s11,0
    28f8:	00078463          	beqz	a5,2900 <_vfprintf_r+0x22c4>
    28fc:	f5cfe06f          	j	1058 <_vfprintf_r+0xa1c>
    2900:	f6dfd06f          	j	86c <_vfprintf_r+0x230>
    2904:	01012b83          	lw	s7,16(sp)
    2908:	000b0c13          	mv	s8,s6
    290c:	da1fe06f          	j	16ac <_vfprintf_r+0x1070>
    2910:	00900793          	li	a5,9
    2914:	cc97e263          	bltu	a5,s1,1dd8 <_vfprintf_r+0x179c>
    2918:	d08ff06f          	j	1e20 <_vfprintf_r+0x17e4>
    291c:	00012823          	sw	zero,16(sp)
    2920:	00078a13          	mv	s4,a5
    2924:	800007b7          	lui	a5,0x80000
    2928:	0177cbb3          	xor	s7,a5,s7
    292c:	02d00793          	li	a5,45
    2930:	04f12c23          	sw	a5,88(sp)
    2934:	b9dff06f          	j	24d0 <_vfprintf_r+0x1e94>
    2938:	0e410613          	addi	a2,sp,228
    293c:	000b0593          	mv	a1,s6
    2940:	000d0513          	mv	a0,s10
    2944:	74d080ef          	jal	ra,b890 <__sprint_r>
    2948:	fa051ee3          	bnez	a0,2904 <_vfprintf_r+0x22c8>
    294c:	00044683          	lbu	a3,0(s0)
    2950:	0ec12783          	lw	a5,236(sp)
    2954:	10c10893          	addi	a7,sp,268
    2958:	00dd8db3          	add	s11,s11,a3
    295c:	8cdff06f          	j	2228 <_vfprintf_r+0x1bec>
    2960:	0b010a93          	addi	s5,sp,176
    2964:	0d010793          	addi	a5,sp,208
    2968:	0cc10713          	addi	a4,sp,204
    296c:	0dc10813          	addi	a6,sp,220
    2970:	000d8693          	mv	a3,s11
    2974:	00300613          	li	a2,3
    2978:	000a8593          	mv	a1,s5
    297c:	000d0513          	mv	a0,s10
    2980:	05112023          	sw	a7,64(sp)
    2984:	0bc12823          	sw	t3,176(sp)
    2988:	03c12223          	sw	t3,36(sp)
    298c:	0bd12a23          	sw	t4,180(sp)
    2990:	03d12023          	sw	t4,32(sp)
    2994:	0be12c23          	sw	t5,184(sp)
    2998:	01e12e23          	sw	t5,28(sp)
    299c:	0b712e23          	sw	s7,188(sp)
    29a0:	681020ef          	jal	ra,5820 <_ldtoa_r>
    29a4:	00054703          	lbu	a4,0(a0)
    29a8:	03000793          	li	a5,48
    29ac:	01c12f03          	lw	t5,28(sp)
    29b0:	02012e83          	lw	t4,32(sp)
    29b4:	02412e03          	lw	t3,36(sp)
    29b8:	04012883          	lw	a7,64(sp)
    29bc:	00050b13          	mv	s6,a0
    29c0:	0a010c93          	addi	s9,sp,160
    29c4:	06f70c63          	beq	a4,a5,2a3c <_vfprintf_r+0x2400>
    29c8:	0cc12783          	lw	a5,204(sp)
    29cc:	01b787b3          	add	a5,a5,s11
    29d0:	00fb0933          	add	s2,s6,a5
    29d4:	000c8593          	mv	a1,s9
    29d8:	000a8513          	mv	a0,s5
    29dc:	01112e23          	sw	a7,28(sp)
    29e0:	0bc12823          	sw	t3,176(sp)
    29e4:	0bd12a23          	sw	t4,180(sp)
    29e8:	0be12c23          	sw	t5,184(sp)
    29ec:	0b712e23          	sw	s7,188(sp)
    29f0:	0a012023          	sw	zero,160(sp)
    29f4:	0a012223          	sw	zero,164(sp)
    29f8:	0a012423          	sw	zero,168(sp)
    29fc:	0a012623          	sw	zero,172(sp)
    2a00:	0210e0ef          	jal	ra,11220 <__eqtf2>
    2a04:	01c12883          	lw	a7,28(sp)
    2a08:	00090693          	mv	a3,s2
    2a0c:	00051463          	bnez	a0,2a14 <_vfprintf_r+0x23d8>
    2a10:	a1cfe06f          	j	c2c <_vfprintf_r+0x5f0>
    2a14:	0dc12683          	lw	a3,220(sp)
    2a18:	0126e463          	bltu	a3,s2,2a20 <_vfprintf_r+0x23e4>
    2a1c:	a10fe06f          	j	c2c <_vfprintf_r+0x5f0>
    2a20:	03000713          	li	a4,48
    2a24:	00168793          	addi	a5,a3,1
    2a28:	0cf12e23          	sw	a5,220(sp)
    2a2c:	00e68023          	sb	a4,0(a3)
    2a30:	0dc12683          	lw	a3,220(sp)
    2a34:	ff26e8e3          	bltu	a3,s2,2a24 <_vfprintf_r+0x23e8>
    2a38:	9f4fe06f          	j	c2c <_vfprintf_r+0x5f0>
    2a3c:	0a010c93          	addi	s9,sp,160
    2a40:	000c8593          	mv	a1,s9
    2a44:	000a8513          	mv	a0,s5
    2a48:	05112023          	sw	a7,64(sp)
    2a4c:	0bc12823          	sw	t3,176(sp)
    2a50:	03c12223          	sw	t3,36(sp)
    2a54:	0bd12a23          	sw	t4,180(sp)
    2a58:	03d12023          	sw	t4,32(sp)
    2a5c:	0be12c23          	sw	t5,184(sp)
    2a60:	01e12e23          	sw	t5,28(sp)
    2a64:	0b712e23          	sw	s7,188(sp)
    2a68:	0a012023          	sw	zero,160(sp)
    2a6c:	0a012223          	sw	zero,164(sp)
    2a70:	0a012423          	sw	zero,168(sp)
    2a74:	0a012623          	sw	zero,172(sp)
    2a78:	7a80e0ef          	jal	ra,11220 <__eqtf2>
    2a7c:	01c12f03          	lw	t5,28(sp)
    2a80:	02012e83          	lw	t4,32(sp)
    2a84:	02412e03          	lw	t3,36(sp)
    2a88:	04012883          	lw	a7,64(sp)
    2a8c:	f2050ee3          	beqz	a0,29c8 <_vfprintf_r+0x238c>
    2a90:	00100793          	li	a5,1
    2a94:	41b787b3          	sub	a5,a5,s11
    2a98:	0cf12623          	sw	a5,204(sp)
    2a9c:	f31ff06f          	j	29cc <_vfprintf_r+0x2390>
    2aa0:	02d00793          	li	a5,45
    2aa4:	0cf103a3          	sb	a5,199(sp)
    2aa8:	ce8ff06f          	j	1f90 <_vfprintf_r+0x1954>
    2aac:	0e410613          	addi	a2,sp,228
    2ab0:	000c0593          	mv	a1,s8
    2ab4:	000d0513          	mv	a0,s10
    2ab8:	5d9080ef          	jal	ra,b890 <__sprint_r>
    2abc:	00050463          	beqz	a0,2ac4 <_vfprintf_r+0x2488>
    2ac0:	be9fe06f          	j	16a8 <_vfprintf_r+0x106c>
    2ac4:	0cc12483          	lw	s1,204(sp)
    2ac8:	0ec12783          	lw	a5,236(sp)
    2acc:	10c10893          	addi	a7,sp,268
    2ad0:	db5fe06f          	j	1884 <_vfprintf_r+0x1248>
    2ad4:	0c714783          	lbu	a5,199(sp)
    2ad8:	01212a23          	sw	s2,20(sp)
    2adc:	02012423          	sw	zero,40(sp)
    2ae0:	02012223          	sw	zero,36(sp)
    2ae4:	00012e23          	sw	zero,28(sp)
    2ae8:	000d8a93          	mv	s5,s11
    2aec:	000d8c93          	mv	s9,s11
    2af0:	00000d93          	li	s11,0
    2af4:	00078463          	beqz	a5,2afc <_vfprintf_r+0x24c0>
    2af8:	d60fe06f          	j	1058 <_vfprintf_r+0xa1c>
    2afc:	d71fd06f          	j	86c <_vfprintf_r+0x230>
    2b00:	00014637          	lui	a2,0x14
    2b04:	45460e93          	addi	t4,a2,1108 # 14454 <blanks.4485>
    2b08:	c65fe06f          	j	176c <_vfprintf_r+0x1130>
    2b0c:	05012783          	lw	a5,80(sp)
    2b10:	01c12703          	lw	a4,28(sp)
    2b14:	0017f793          	andi	a5,a5,1
    2b18:	01b7e7b3          	or	a5,a5,s11
    2b1c:	46e05463          	blez	a4,2f84 <_vfprintf_r+0x2948>
    2b20:	42079e63          	bnez	a5,2f5c <_vfprintf_r+0x2920>
    2b24:	01c12c83          	lw	s9,28(sp)
    2b28:	06600493          	li	s1,102
    2b2c:	05012783          	lw	a5,80(sp)
    2b30:	4007f793          	andi	a5,a5,1024
    2b34:	3a079663          	bnez	a5,2ee0 <_vfprintf_r+0x28a4>
    2b38:	fffcca93          	not	s5,s9
    2b3c:	41fada93          	srai	s5,s5,0x1f
    2b40:	015cfab3          	and	s5,s9,s5
    2b44:	da1ff06f          	j	28e4 <_vfprintf_r+0x22a8>
    2b48:	02012783          	lw	a5,32(sp)
    2b4c:	02c12703          	lw	a4,44(sp)
    2b50:	06700493          	li	s1,103
    2b54:	00e78cb3          	add	s9,a5,a4
    2b58:	01c12783          	lw	a5,28(sp)
    2b5c:	fcf048e3          	bgtz	a5,2b2c <_vfprintf_r+0x24f0>
    2b60:	40fc8cb3          	sub	s9,s9,a5
    2b64:	001c8c93          	addi	s9,s9,1
    2b68:	fffcca93          	not	s5,s9
    2b6c:	41fada93          	srai	s5,s5,0x1f
    2b70:	015cfab3          	and	s5,s9,s5
    2b74:	d71ff06f          	j	28e4 <_vfprintf_r+0x22a8>
    2b78:	00014837          	lui	a6,0x14
    2b7c:	2ac80b13          	addi	s6,a6,684 # 142ac <__clzsi2+0x94>
    2b80:	c20ff06f          	j	1fa0 <_vfprintf_r+0x1964>
    2b84:	0e410613          	addi	a2,sp,228
    2b88:	000c0593          	mv	a1,s8
    2b8c:	000d0513          	mv	a0,s10
    2b90:	501080ef          	jal	ra,b890 <__sprint_r>
    2b94:	00050463          	beqz	a0,2b9c <_vfprintf_r+0x2560>
    2b98:	b11fe06f          	j	16a8 <_vfprintf_r+0x106c>
    2b9c:	0cc12483          	lw	s1,204(sp)
    2ba0:	02012703          	lw	a4,32(sp)
    2ba4:	0ec12783          	lw	a5,236(sp)
    2ba8:	10c10893          	addi	a7,sp,268
    2bac:	409704b3          	sub	s1,a4,s1
    2bb0:	d21fe06f          	j	18d0 <_vfprintf_r+0x1294>
    2bb4:	fff00793          	li	a5,-1
    2bb8:	00f12623          	sw	a5,12(sp)
    2bbc:	de9fd06f          	j	9a4 <_vfprintf_r+0x368>
    2bc0:	ff000693          	li	a3,-16
    2bc4:	40c004b3          	neg	s1,a2
    2bc8:	06d65863          	bge	a2,a3,2c38 <_vfprintf_r+0x25fc>
    2bcc:	01000913          	li	s2,16
    2bd0:	00700c93          	li	s9,7
    2bd4:	00c0006f          	j	2be0 <_vfprintf_r+0x25a4>
    2bd8:	ff048493          	addi	s1,s1,-16
    2bdc:	04995e63          	bge	s2,s1,2c38 <_vfprintf_r+0x25fc>
    2be0:	00812683          	lw	a3,8(sp)
    2be4:	01078793          	addi	a5,a5,16 # 80000010 <//.+0x7ffea098>
    2be8:	00170713          	addi	a4,a4,1
    2bec:	00d8a023          	sw	a3,0(a7)
    2bf0:	0128a223          	sw	s2,4(a7)
    2bf4:	0ef12623          	sw	a5,236(sp)
    2bf8:	0ee12423          	sw	a4,232(sp)
    2bfc:	00888893          	addi	a7,a7,8
    2c00:	fcecdce3          	bge	s9,a4,2bd8 <_vfprintf_r+0x259c>
    2c04:	0e410613          	addi	a2,sp,228
    2c08:	000c0593          	mv	a1,s8
    2c0c:	000d0513          	mv	a0,s10
    2c10:	481080ef          	jal	ra,b890 <__sprint_r>
    2c14:	00050463          	beqz	a0,2c1c <_vfprintf_r+0x25e0>
    2c18:	a91fe06f          	j	16a8 <_vfprintf_r+0x106c>
    2c1c:	0ec12783          	lw	a5,236(sp)
    2c20:	0e812703          	lw	a4,232(sp)
    2c24:	10c10893          	addi	a7,sp,268
    2c28:	fb1ff06f          	j	2bd8 <_vfprintf_r+0x259c>
    2c2c:	000146b7          	lui	a3,0x14
    2c30:	45468e93          	addi	t4,a3,1108 # 14454 <blanks.4485>
    2c34:	b34fe06f          	j	f68 <_vfprintf_r+0x92c>
    2c38:	00812683          	lw	a3,8(sp)
    2c3c:	009787b3          	add	a5,a5,s1
    2c40:	00170713          	addi	a4,a4,1
    2c44:	00d8a023          	sw	a3,0(a7)
    2c48:	0098a223          	sw	s1,4(a7)
    2c4c:	0ef12623          	sw	a5,236(sp)
    2c50:	0ee12423          	sw	a4,232(sp)
    2c54:	00700693          	li	a3,7
    2c58:	a6e6d863          	bge	a3,a4,1ec8 <_vfprintf_r+0x188c>
    2c5c:	0e410613          	addi	a2,sp,228
    2c60:	000c0593          	mv	a1,s8
    2c64:	000d0513          	mv	a0,s10
    2c68:	429080ef          	jal	ra,b890 <__sprint_r>
    2c6c:	00050463          	beqz	a0,2c74 <_vfprintf_r+0x2638>
    2c70:	a39fe06f          	j	16a8 <_vfprintf_r+0x106c>
    2c74:	0ec12783          	lw	a5,236(sp)
    2c78:	0e812703          	lw	a4,232(sp)
    2c7c:	10c10893          	addi	a7,sp,268
    2c80:	bd4ff06f          	j	2054 <_vfprintf_r+0x1a18>
    2c84:	001d8593          	addi	a1,s11,1
    2c88:	000d0513          	mv	a0,s10
    2c8c:	01112823          	sw	a7,16(sp)
    2c90:	094040ef          	jal	ra,6d24 <_malloc_r>
    2c94:	01012883          	lw	a7,16(sp)
    2c98:	00050b13          	mv	s6,a0
    2c9c:	36050063          	beqz	a0,2ffc <_vfprintf_r+0x29c0>
    2ca0:	00a12823          	sw	a0,16(sp)
    2ca4:	809ff06f          	j	24ac <_vfprintf_r+0x1e70>
    2ca8:	001d8913          	addi	s2,s11,1
    2cac:	0b010a93          	addi	s5,sp,176
    2cb0:	0dc10813          	addi	a6,sp,220
    2cb4:	0d010793          	addi	a5,sp,208
    2cb8:	0cc10713          	addi	a4,sp,204
    2cbc:	00090693          	mv	a3,s2
    2cc0:	00200613          	li	a2,2
    2cc4:	000a8593          	mv	a1,s5
    2cc8:	000d0513          	mv	a0,s10
    2ccc:	0bc12823          	sw	t3,176(sp)
    2cd0:	03c12223          	sw	t3,36(sp)
    2cd4:	0bd12a23          	sw	t4,180(sp)
    2cd8:	03d12023          	sw	t4,32(sp)
    2cdc:	0be12c23          	sw	t5,184(sp)
    2ce0:	01e12e23          	sw	t5,28(sp)
    2ce4:	0b712e23          	sw	s7,188(sp)
    2ce8:	339020ef          	jal	ra,5820 <_ldtoa_r>
    2cec:	01c12f03          	lw	t5,28(sp)
    2cf0:	02012e83          	lw	t4,32(sp)
    2cf4:	02412e03          	lw	t3,36(sp)
    2cf8:	04012883          	lw	a7,64(sp)
    2cfc:	00050b13          	mv	s6,a0
    2d00:	012b0933          	add	s2,s6,s2
    2d04:	0a010c93          	addi	s9,sp,160
    2d08:	ccdff06f          	j	29d4 <_vfprintf_r+0x2398>
    2d0c:	000a0b93          	mv	s7,s4
    2d10:	df0fe06f          	j	1300 <_vfprintf_r+0xcc4>
    2d14:	03000793          	li	a5,48
    2d18:	0cf10423          	sb	a5,200(sp)
    2d1c:	07800793          	li	a5,120
    2d20:	f70ff06f          	j	2490 <_vfprintf_r+0x1e54>
    2d24:	05412783          	lw	a5,84(sp)
    2d28:	000b8713          	mv	a4,s7
    2d2c:	0cf12e23          	sw	a5,220(sp)
    2d30:	02412783          	lw	a5,36(sp)
    2d34:	fffbc683          	lbu	a3,-1(s7)
    2d38:	00f7c603          	lbu	a2,15(a5)
    2d3c:	02c69063          	bne	a3,a2,2d5c <_vfprintf_r+0x2720>
    2d40:	03000593          	li	a1,48
    2d44:	feb70fa3          	sb	a1,-1(a4)
    2d48:	0dc12703          	lw	a4,220(sp)
    2d4c:	fff70793          	addi	a5,a4,-1
    2d50:	0cf12e23          	sw	a5,220(sp)
    2d54:	fff74683          	lbu	a3,-1(a4)
    2d58:	fed606e3          	beq	a2,a3,2d44 <_vfprintf_r+0x2708>
    2d5c:	00168613          	addi	a2,a3,1
    2d60:	03900593          	li	a1,57
    2d64:	0ff67613          	andi	a2,a2,255
    2d68:	00b68663          	beq	a3,a1,2d74 <_vfprintf_r+0x2738>
    2d6c:	fec70fa3          	sb	a2,-1(a4)
    2d70:	acdff06f          	j	283c <_vfprintf_r+0x2200>
    2d74:	02412783          	lw	a5,36(sp)
    2d78:	00a7c603          	lbu	a2,10(a5)
    2d7c:	fec70fa3          	sb	a2,-1(a4)
    2d80:	abdff06f          	j	283c <_vfprintf_r+0x2200>
    2d84:	01bb0933          	add	s2,s6,s11
    2d88:	0a010c93          	addi	s9,sp,160
    2d8c:	c49ff06f          	j	29d4 <_vfprintf_r+0x2398>
    2d90:	000d8463          	beqz	s11,2d98 <_vfprintf_r+0x275c>
    2d94:	dd5fd06f          	j	b68 <_vfprintf_r+0x52c>
    2d98:	00100d93          	li	s11,1
    2d9c:	dcdfd06f          	j	b68 <_vfprintf_r+0x52c>
    2da0:	00600d93          	li	s11,6
    2da4:	dc5fd06f          	j	b68 <_vfprintf_r+0x52c>
    2da8:	0b010a93          	addi	s5,sp,176
    2dac:	000a8513          	mv	a0,s5
    2db0:	05112a23          	sw	a7,84(sp)
    2db4:	0bc12823          	sw	t3,176(sp)
    2db8:	0bd12a23          	sw	t4,180(sp)
    2dbc:	0be12c23          	sw	t5,184(sp)
    2dc0:	0b712e23          	sw	s7,188(sp)
    2dc4:	0f8110ef          	jal	ra,13ebc <__trunctfdf2>
    2dc8:	0cc10613          	addi	a2,sp,204
    2dcc:	211050ef          	jal	ra,87dc <frexp>
    2dd0:	00058613          	mv	a2,a1
    2dd4:	00050593          	mv	a1,a0
    2dd8:	000a8513          	mv	a0,s5
    2ddc:	6e9100ef          	jal	ra,13cc4 <__extenddftf2>
    2de0:	0b012783          	lw	a5,176(sp)
    2de4:	0a010c93          	addi	s9,sp,160
    2de8:	09010913          	addi	s2,sp,144
    2dec:	08f12823          	sw	a5,144(sp)
    2df0:	0b412783          	lw	a5,180(sp)
    2df4:	08010613          	addi	a2,sp,128
    2df8:	00090593          	mv	a1,s2
    2dfc:	08f12a23          	sw	a5,148(sp)
    2e00:	0b812783          	lw	a5,184(sp)
    2e04:	000c8513          	mv	a0,s9
    2e08:	04c12023          	sw	a2,64(sp)
    2e0c:	08f12c23          	sw	a5,152(sp)
    2e10:	0bc12783          	lw	a5,188(sp)
    2e14:	08012023          	sw	zero,128(sp)
    2e18:	08012223          	sw	zero,132(sp)
    2e1c:	08f12e23          	sw	a5,156(sp)
    2e20:	3ffc07b7          	lui	a5,0x3ffc0
    2e24:	08f12623          	sw	a5,140(sp)
    2e28:	08012423          	sw	zero,136(sp)
    2e2c:	7480e0ef          	jal	ra,11574 <__multf3>
    2e30:	0a012683          	lw	a3,160(sp)
    2e34:	0a412e03          	lw	t3,164(sp)
    2e38:	0a812e83          	lw	t4,168(sp)
    2e3c:	0ac12f03          	lw	t5,172(sp)
    2e40:	000c8593          	mv	a1,s9
    2e44:	000a8513          	mv	a0,s5
    2e48:	0ad12823          	sw	a3,176(sp)
    2e4c:	04d12223          	sw	a3,68(sp)
    2e50:	0bc12a23          	sw	t3,180(sp)
    2e54:	03c12223          	sw	t3,36(sp)
    2e58:	0bd12c23          	sw	t4,184(sp)
    2e5c:	03d12023          	sw	t4,32(sp)
    2e60:	0be12e23          	sw	t5,188(sp)
    2e64:	01e12e23          	sw	t5,28(sp)
    2e68:	0a012023          	sw	zero,160(sp)
    2e6c:	0a012223          	sw	zero,164(sp)
    2e70:	0a012423          	sw	zero,168(sp)
    2e74:	0a012623          	sw	zero,172(sp)
    2e78:	3a80e0ef          	jal	ra,11220 <__eqtf2>
    2e7c:	01c12f03          	lw	t5,28(sp)
    2e80:	02012e83          	lw	t4,32(sp)
    2e84:	02412e03          	lw	t3,36(sp)
    2e88:	04412683          	lw	a3,68(sp)
    2e8c:	05412883          	lw	a7,84(sp)
    2e90:	00051663          	bnez	a0,2e9c <_vfprintf_r+0x2860>
    2e94:	00100793          	li	a5,1
    2e98:	0cf12623          	sw	a5,204(sp)
    2e9c:	000147b7          	lui	a5,0x14
    2ea0:	2b478793          	addi	a5,a5,692 # 142b4 <__clzsi2+0x9c>
    2ea4:	02f12223          	sw	a5,36(sp)
    2ea8:	f3cff06f          	j	25e4 <_vfprintf_r+0x1fa8>
    2eac:	0d610713          	addi	a4,sp,214
    2eb0:	00069863          	bnez	a3,2ec0 <_vfprintf_r+0x2884>
    2eb4:	03000713          	li	a4,48
    2eb8:	0ce10b23          	sb	a4,214(sp)
    2ebc:	0d710713          	addi	a4,sp,215
    2ec0:	1b010693          	addi	a3,sp,432
    2ec4:	03078793          	addi	a5,a5,48
    2ec8:	40d706b3          	sub	a3,a4,a3
    2ecc:	00f70023          	sb	a5,0(a4)
    2ed0:	0dd68793          	addi	a5,a3,221
    2ed4:	02f12c23          	sw	a5,56(sp)
    2ed8:	e5dfd06f          	j	d34 <_vfprintf_r+0x6f8>
    2edc:	06700493          	li	s1,103
    2ee0:	03c12603          	lw	a2,60(sp)
    2ee4:	0ff00713          	li	a4,255
    2ee8:	00064783          	lbu	a5,0(a2)
    2eec:	10e78263          	beq	a5,a4,2ff0 <_vfprintf_r+0x29b4>
    2ef0:	01c12683          	lw	a3,28(sp)
    2ef4:	00000513          	li	a0,0
    2ef8:	00000593          	li	a1,0
    2efc:	00d7de63          	bge	a5,a3,2f18 <_vfprintf_r+0x28dc>
    2f00:	40f686b3          	sub	a3,a3,a5
    2f04:	00164783          	lbu	a5,1(a2)
    2f08:	04078463          	beqz	a5,2f50 <_vfprintf_r+0x2914>
    2f0c:	00158593          	addi	a1,a1,1
    2f10:	00160613          	addi	a2,a2,1
    2f14:	fee794e3          	bne	a5,a4,2efc <_vfprintf_r+0x28c0>
    2f18:	02c12e23          	sw	a2,60(sp)
    2f1c:	00d12e23          	sw	a3,28(sp)
    2f20:	02b12223          	sw	a1,36(sp)
    2f24:	02a12423          	sw	a0,40(sp)
    2f28:	02812703          	lw	a4,40(sp)
    2f2c:	02412783          	lw	a5,36(sp)
    2f30:	00e787b3          	add	a5,a5,a4
    2f34:	04812703          	lw	a4,72(sp)
    2f38:	02e787b3          	mul	a5,a5,a4
    2f3c:	01978cb3          	add	s9,a5,s9
    2f40:	fffcca93          	not	s5,s9
    2f44:	41fada93          	srai	s5,s5,0x1f
    2f48:	015cfab3          	and	s5,s9,s5
    2f4c:	e2dfd06f          	j	d78 <_vfprintf_r+0x73c>
    2f50:	00064783          	lbu	a5,0(a2)
    2f54:	00150513          	addi	a0,a0,1
    2f58:	fbdff06f          	j	2f14 <_vfprintf_r+0x28d8>
    2f5c:	02c12783          	lw	a5,44(sp)
    2f60:	06600493          	li	s1,102
    2f64:	00f70cb3          	add	s9,a4,a5
    2f68:	01bc8cb3          	add	s9,s9,s11
    2f6c:	bc1ff06f          	j	2b2c <_vfprintf_r+0x24f0>
    2f70:	05012783          	lw	a5,80(sp)
    2f74:	0017f793          	andi	a5,a5,1
    2f78:	00079463          	bnez	a5,2f80 <_vfprintf_r+0x2944>
    2f7c:	dd9fd06f          	j	d54 <_vfprintf_r+0x718>
    2f80:	dcdfd06f          	j	d4c <_vfprintf_r+0x710>
    2f84:	00079a63          	bnez	a5,2f98 <_vfprintf_r+0x295c>
    2f88:	00100a93          	li	s5,1
    2f8c:	06600493          	li	s1,102
    2f90:	00100c93          	li	s9,1
    2f94:	951ff06f          	j	28e4 <_vfprintf_r+0x22a8>
    2f98:	02c12783          	lw	a5,44(sp)
    2f9c:	06600493          	li	s1,102
    2fa0:	00178c93          	addi	s9,a5,1
    2fa4:	01bc8cb3          	add	s9,s9,s11
    2fa8:	fffcca93          	not	s5,s9
    2fac:	41fada93          	srai	s5,s5,0x1f
    2fb0:	015cfab3          	and	s5,s9,s5
    2fb4:	931ff06f          	j	28e4 <_vfprintf_r+0x22a8>
    2fb8:	00088693          	mv	a3,a7
    2fbc:	bc5fe06f          	j	1b80 <_vfprintf_r+0x1544>
    2fc0:	01412783          	lw	a5,20(sp)
    2fc4:	0007ad83          	lw	s11,0(a5)
    2fc8:	00478793          	addi	a5,a5,4
    2fcc:	000dd463          	bgez	s11,2fd4 <_vfprintf_r+0x2998>
    2fd0:	fff00d93          	li	s11,-1
    2fd4:	00144483          	lbu	s1,1(s0)
    2fd8:	00f12a23          	sw	a5,20(sp)
    2fdc:	00070413          	mv	s0,a4
    2fe0:	80dfd06f          	j	7ec <_vfprintf_r+0x1b0>
    2fe4:	00200793          	li	a5,2
    2fe8:	02f12c23          	sw	a5,56(sp)
    2fec:	d49fd06f          	j	d34 <_vfprintf_r+0x6f8>
    2ff0:	02012423          	sw	zero,40(sp)
    2ff4:	02012223          	sw	zero,36(sp)
    2ff8:	f31ff06f          	j	2f28 <_vfprintf_r+0x28ec>
    2ffc:	00cc5783          	lhu	a5,12(s8)
    3000:	0407e793          	ori	a5,a5,64
    3004:	00fc1623          	sh	a5,12(s8)
    3008:	98dfd06f          	j	994 <_vfprintf_r+0x358>
    300c:	000d8913          	mv	s2,s11
    3010:	cf1ff06f          	j	2d00 <_vfprintf_r+0x26c4>

00003014 <vfprintf>:
    3014:	00050793          	mv	a5,a0
    3018:	1d81a503          	lw	a0,472(gp) # 15a90 <_impure_ptr>
    301c:	00060693          	mv	a3,a2
    3020:	00058613          	mv	a2,a1
    3024:	00078593          	mv	a1,a5
    3028:	e14fd06f          	j	63c <_vfprintf_r>

0000302c <__sbprintf>:
    302c:	00c5d783          	lhu	a5,12(a1)
    3030:	0645ae03          	lw	t3,100(a1)
    3034:	00e5d303          	lhu	t1,14(a1)
    3038:	01c5a883          	lw	a7,28(a1)
    303c:	0245a803          	lw	a6,36(a1)
    3040:	b8010113          	addi	sp,sp,-1152
    3044:	ffd7f793          	andi	a5,a5,-3
    3048:	40000713          	li	a4,1024
    304c:	46812c23          	sw	s0,1144(sp)
    3050:	00f11a23          	sh	a5,20(sp)
    3054:	00058413          	mv	s0,a1
    3058:	07010793          	addi	a5,sp,112
    305c:	00810593          	addi	a1,sp,8
    3060:	46912a23          	sw	s1,1140(sp)
    3064:	47212823          	sw	s2,1136(sp)
    3068:	46112e23          	sw	ra,1148(sp)
    306c:	00050913          	mv	s2,a0
    3070:	07c12623          	sw	t3,108(sp)
    3074:	00611b23          	sh	t1,22(sp)
    3078:	03112223          	sw	a7,36(sp)
    307c:	03012623          	sw	a6,44(sp)
    3080:	00f12423          	sw	a5,8(sp)
    3084:	00f12c23          	sw	a5,24(sp)
    3088:	00e12823          	sw	a4,16(sp)
    308c:	00e12e23          	sw	a4,28(sp)
    3090:	02012023          	sw	zero,32(sp)
    3094:	da8fd0ef          	jal	ra,63c <_vfprintf_r>
    3098:	00050493          	mv	s1,a0
    309c:	02055c63          	bgez	a0,30d4 <__sbprintf+0xa8>
    30a0:	01415783          	lhu	a5,20(sp)
    30a4:	0407f793          	andi	a5,a5,64
    30a8:	00078863          	beqz	a5,30b8 <__sbprintf+0x8c>
    30ac:	00c45783          	lhu	a5,12(s0)
    30b0:	0407e793          	ori	a5,a5,64
    30b4:	00f41623          	sh	a5,12(s0)
    30b8:	47c12083          	lw	ra,1148(sp)
    30bc:	47812403          	lw	s0,1144(sp)
    30c0:	47012903          	lw	s2,1136(sp)
    30c4:	00048513          	mv	a0,s1
    30c8:	47412483          	lw	s1,1140(sp)
    30cc:	48010113          	addi	sp,sp,1152
    30d0:	00008067          	ret
    30d4:	00810593          	addi	a1,sp,8
    30d8:	00090513          	mv	a0,s2
    30dc:	4e8000ef          	jal	ra,35c4 <_fflush_r>
    30e0:	fc0500e3          	beqz	a0,30a0 <__sbprintf+0x74>
    30e4:	fff00493          	li	s1,-1
    30e8:	fb9ff06f          	j	30a0 <__sbprintf+0x74>

000030ec <__swsetup_r>:
    30ec:	1d81a783          	lw	a5,472(gp) # 15a90 <_impure_ptr>
    30f0:	ff010113          	addi	sp,sp,-16
    30f4:	00812423          	sw	s0,8(sp)
    30f8:	00912223          	sw	s1,4(sp)
    30fc:	00112623          	sw	ra,12(sp)
    3100:	00050493          	mv	s1,a0
    3104:	00058413          	mv	s0,a1
    3108:	00078663          	beqz	a5,3114 <__swsetup_r+0x28>
    310c:	0387a703          	lw	a4,56(a5)
    3110:	0e070063          	beqz	a4,31f0 <__swsetup_r+0x104>
    3114:	00c41703          	lh	a4,12(s0)
    3118:	01071793          	slli	a5,a4,0x10
    311c:	00877693          	andi	a3,a4,8
    3120:	0107d793          	srli	a5,a5,0x10
    3124:	04068063          	beqz	a3,3164 <__swsetup_r+0x78>
    3128:	01042683          	lw	a3,16(s0)
    312c:	06068063          	beqz	a3,318c <__swsetup_r+0xa0>
    3130:	0017f613          	andi	a2,a5,1
    3134:	08060463          	beqz	a2,31bc <__swsetup_r+0xd0>
    3138:	01442603          	lw	a2,20(s0)
    313c:	00042423          	sw	zero,8(s0)
    3140:	00000513          	li	a0,0
    3144:	40c00633          	neg	a2,a2
    3148:	00c42c23          	sw	a2,24(s0)
    314c:	08068663          	beqz	a3,31d8 <__swsetup_r+0xec>
    3150:	00c12083          	lw	ra,12(sp)
    3154:	00812403          	lw	s0,8(sp)
    3158:	00412483          	lw	s1,4(sp)
    315c:	01010113          	addi	sp,sp,16
    3160:	00008067          	ret
    3164:	0107f693          	andi	a3,a5,16
    3168:	0c068463          	beqz	a3,3230 <__swsetup_r+0x144>
    316c:	0047f793          	andi	a5,a5,4
    3170:	08079663          	bnez	a5,31fc <__swsetup_r+0x110>
    3174:	01042683          	lw	a3,16(s0)
    3178:	00876713          	ori	a4,a4,8
    317c:	01071793          	slli	a5,a4,0x10
    3180:	00e41623          	sh	a4,12(s0)
    3184:	0107d793          	srli	a5,a5,0x10
    3188:	fa0694e3          	bnez	a3,3130 <__swsetup_r+0x44>
    318c:	2807f613          	andi	a2,a5,640
    3190:	20000593          	li	a1,512
    3194:	f8b60ee3          	beq	a2,a1,3130 <__swsetup_r+0x44>
    3198:	00040593          	mv	a1,s0
    319c:	00048513          	mv	a0,s1
    31a0:	265030ef          	jal	ra,6c04 <__smakebuf_r>
    31a4:	00c41703          	lh	a4,12(s0)
    31a8:	01042683          	lw	a3,16(s0)
    31ac:	01071793          	slli	a5,a4,0x10
    31b0:	0107d793          	srli	a5,a5,0x10
    31b4:	0017f613          	andi	a2,a5,1
    31b8:	f80610e3          	bnez	a2,3138 <__swsetup_r+0x4c>
    31bc:	0027f613          	andi	a2,a5,2
    31c0:	00000593          	li	a1,0
    31c4:	00061463          	bnez	a2,31cc <__swsetup_r+0xe0>
    31c8:	01442583          	lw	a1,20(s0)
    31cc:	00b42423          	sw	a1,8(s0)
    31d0:	00000513          	li	a0,0
    31d4:	f6069ee3          	bnez	a3,3150 <__swsetup_r+0x64>
    31d8:	0807f793          	andi	a5,a5,128
    31dc:	f6078ae3          	beqz	a5,3150 <__swsetup_r+0x64>
    31e0:	04076713          	ori	a4,a4,64
    31e4:	00e41623          	sh	a4,12(s0)
    31e8:	fff00513          	li	a0,-1
    31ec:	f65ff06f          	j	3150 <__swsetup_r+0x64>
    31f0:	00078513          	mv	a0,a5
    31f4:	76c000ef          	jal	ra,3960 <__sinit>
    31f8:	f1dff06f          	j	3114 <__swsetup_r+0x28>
    31fc:	03042583          	lw	a1,48(s0)
    3200:	00058e63          	beqz	a1,321c <__swsetup_r+0x130>
    3204:	04040793          	addi	a5,s0,64
    3208:	00f58863          	beq	a1,a5,3218 <__swsetup_r+0x12c>
    320c:	00048513          	mv	a0,s1
    3210:	11d000ef          	jal	ra,3b2c <_free_r>
    3214:	00c41703          	lh	a4,12(s0)
    3218:	02042823          	sw	zero,48(s0)
    321c:	01042683          	lw	a3,16(s0)
    3220:	fdb77713          	andi	a4,a4,-37
    3224:	00042223          	sw	zero,4(s0)
    3228:	00d42023          	sw	a3,0(s0)
    322c:	f4dff06f          	j	3178 <__swsetup_r+0x8c>
    3230:	00900793          	li	a5,9
    3234:	00f4a023          	sw	a5,0(s1)
    3238:	04076713          	ori	a4,a4,64
    323c:	00e41623          	sh	a4,12(s0)
    3240:	fff00513          	li	a0,-1
    3244:	f0dff06f          	j	3150 <__swsetup_r+0x64>

00003248 <__call_exitprocs>:
    3248:	fd010113          	addi	sp,sp,-48
    324c:	01412c23          	sw	s4,24(sp)
    3250:	1d01aa03          	lw	s4,464(gp) # 15a88 <_global_impure_ptr>
    3254:	03212023          	sw	s2,32(sp)
    3258:	02112623          	sw	ra,44(sp)
    325c:	148a2903          	lw	s2,328(s4)
    3260:	02812423          	sw	s0,40(sp)
    3264:	02912223          	sw	s1,36(sp)
    3268:	01312e23          	sw	s3,28(sp)
    326c:	01512a23          	sw	s5,20(sp)
    3270:	01612823          	sw	s6,16(sp)
    3274:	01712623          	sw	s7,12(sp)
    3278:	01812423          	sw	s8,8(sp)
    327c:	04090063          	beqz	s2,32bc <__call_exitprocs+0x74>
    3280:	00050b13          	mv	s6,a0
    3284:	00058b93          	mv	s7,a1
    3288:	00100a93          	li	s5,1
    328c:	fff00993          	li	s3,-1
    3290:	00492483          	lw	s1,4(s2) # 3ffe0004 <//.+0x3ffca08c>
    3294:	fff48413          	addi	s0,s1,-1
    3298:	02044263          	bltz	s0,32bc <__call_exitprocs+0x74>
    329c:	00249493          	slli	s1,s1,0x2
    32a0:	009904b3          	add	s1,s2,s1
    32a4:	040b8463          	beqz	s7,32ec <__call_exitprocs+0xa4>
    32a8:	1044a783          	lw	a5,260(s1)
    32ac:	05778063          	beq	a5,s7,32ec <__call_exitprocs+0xa4>
    32b0:	fff40413          	addi	s0,s0,-1
    32b4:	ffc48493          	addi	s1,s1,-4
    32b8:	ff3416e3          	bne	s0,s3,32a4 <__call_exitprocs+0x5c>
    32bc:	02c12083          	lw	ra,44(sp)
    32c0:	02812403          	lw	s0,40(sp)
    32c4:	02412483          	lw	s1,36(sp)
    32c8:	02012903          	lw	s2,32(sp)
    32cc:	01c12983          	lw	s3,28(sp)
    32d0:	01812a03          	lw	s4,24(sp)
    32d4:	01412a83          	lw	s5,20(sp)
    32d8:	01012b03          	lw	s6,16(sp)
    32dc:	00c12b83          	lw	s7,12(sp)
    32e0:	00812c03          	lw	s8,8(sp)
    32e4:	03010113          	addi	sp,sp,48
    32e8:	00008067          	ret
    32ec:	00492783          	lw	a5,4(s2)
    32f0:	0044a683          	lw	a3,4(s1)
    32f4:	fff78793          	addi	a5,a5,-1
    32f8:	04878e63          	beq	a5,s0,3354 <__call_exitprocs+0x10c>
    32fc:	0004a223          	sw	zero,4(s1)
    3300:	fa0688e3          	beqz	a3,32b0 <__call_exitprocs+0x68>
    3304:	18892783          	lw	a5,392(s2)
    3308:	008a9733          	sll	a4,s5,s0
    330c:	00492c03          	lw	s8,4(s2)
    3310:	00f777b3          	and	a5,a4,a5
    3314:	02079263          	bnez	a5,3338 <__call_exitprocs+0xf0>
    3318:	000680e7          	jalr	a3
    331c:	00492703          	lw	a4,4(s2)
    3320:	148a2783          	lw	a5,328(s4)
    3324:	01871463          	bne	a4,s8,332c <__call_exitprocs+0xe4>
    3328:	f92784e3          	beq	a5,s2,32b0 <__call_exitprocs+0x68>
    332c:	f80788e3          	beqz	a5,32bc <__call_exitprocs+0x74>
    3330:	00078913          	mv	s2,a5
    3334:	f5dff06f          	j	3290 <__call_exitprocs+0x48>
    3338:	18c92783          	lw	a5,396(s2)
    333c:	0844a583          	lw	a1,132(s1)
    3340:	00f77733          	and	a4,a4,a5
    3344:	00071c63          	bnez	a4,335c <__call_exitprocs+0x114>
    3348:	000b0513          	mv	a0,s6
    334c:	000680e7          	jalr	a3
    3350:	fcdff06f          	j	331c <__call_exitprocs+0xd4>
    3354:	00892223          	sw	s0,4(s2)
    3358:	fa9ff06f          	j	3300 <__call_exitprocs+0xb8>
    335c:	00058513          	mv	a0,a1
    3360:	000680e7          	jalr	a3
    3364:	fb9ff06f          	j	331c <__call_exitprocs+0xd4>

00003368 <__sflush_r>:
    3368:	00c59783          	lh	a5,12(a1)
    336c:	fe010113          	addi	sp,sp,-32
    3370:	00812c23          	sw	s0,24(sp)
    3374:	01312623          	sw	s3,12(sp)
    3378:	00112e23          	sw	ra,28(sp)
    337c:	00912a23          	sw	s1,20(sp)
    3380:	01212823          	sw	s2,16(sp)
    3384:	0087f693          	andi	a3,a5,8
    3388:	00058413          	mv	s0,a1
    338c:	00050993          	mv	s3,a0
    3390:	10069a63          	bnez	a3,34a4 <__sflush_r+0x13c>
    3394:	00001737          	lui	a4,0x1
    3398:	80070713          	addi	a4,a4,-2048 # 800 <_vfprintf_r+0x1c4>
    339c:	0045a683          	lw	a3,4(a1)
    33a0:	00e7e7b3          	or	a5,a5,a4
    33a4:	00f59623          	sh	a5,12(a1)
    33a8:	18d05463          	blez	a3,3530 <__sflush_r+0x1c8>
    33ac:	02842703          	lw	a4,40(s0)
    33b0:	0c070a63          	beqz	a4,3484 <__sflush_r+0x11c>
    33b4:	0009a483          	lw	s1,0(s3)
    33b8:	01079693          	slli	a3,a5,0x10
    33bc:	0009a023          	sw	zero,0(s3)
    33c0:	01379613          	slli	a2,a5,0x13
    33c4:	01c42583          	lw	a1,28(s0)
    33c8:	0106d693          	srli	a3,a3,0x10
    33cc:	16064863          	bltz	a2,353c <__sflush_r+0x1d4>
    33d0:	00100693          	li	a3,1
    33d4:	00000613          	li	a2,0
    33d8:	00098513          	mv	a0,s3
    33dc:	000700e7          	jalr	a4
    33e0:	fff00793          	li	a5,-1
    33e4:	18f50c63          	beq	a0,a5,357c <__sflush_r+0x214>
    33e8:	00c45683          	lhu	a3,12(s0)
    33ec:	02842703          	lw	a4,40(s0)
    33f0:	01c42583          	lw	a1,28(s0)
    33f4:	0046f693          	andi	a3,a3,4
    33f8:	00068e63          	beqz	a3,3414 <__sflush_r+0xac>
    33fc:	00442683          	lw	a3,4(s0)
    3400:	03042783          	lw	a5,48(s0)
    3404:	40d50533          	sub	a0,a0,a3
    3408:	00078663          	beqz	a5,3414 <__sflush_r+0xac>
    340c:	03c42783          	lw	a5,60(s0)
    3410:	40f50533          	sub	a0,a0,a5
    3414:	00050613          	mv	a2,a0
    3418:	00000693          	li	a3,0
    341c:	00098513          	mv	a0,s3
    3420:	000700e7          	jalr	a4
    3424:	fff00793          	li	a5,-1
    3428:	10f51e63          	bne	a0,a5,3544 <__sflush_r+0x1dc>
    342c:	0009a703          	lw	a4,0(s3)
    3430:	00c41783          	lh	a5,12(s0)
    3434:	16070863          	beqz	a4,35a4 <__sflush_r+0x23c>
    3438:	01d00693          	li	a3,29
    343c:	00d70663          	beq	a4,a3,3448 <__sflush_r+0xe0>
    3440:	01600693          	li	a3,22
    3444:	0cd71463          	bne	a4,a3,350c <__sflush_r+0x1a4>
    3448:	01042683          	lw	a3,16(s0)
    344c:	fffff737          	lui	a4,0xfffff
    3450:	7ff70713          	addi	a4,a4,2047 # fffff7ff <//.+0xfffe9887>
    3454:	00e7f7b3          	and	a5,a5,a4
    3458:	00f41623          	sh	a5,12(s0)
    345c:	00042223          	sw	zero,4(s0)
    3460:	00d42023          	sw	a3,0(s0)
    3464:	03042583          	lw	a1,48(s0)
    3468:	0099a023          	sw	s1,0(s3)
    346c:	00058c63          	beqz	a1,3484 <__sflush_r+0x11c>
    3470:	04040793          	addi	a5,s0,64
    3474:	00f58663          	beq	a1,a5,3480 <__sflush_r+0x118>
    3478:	00098513          	mv	a0,s3
    347c:	6b0000ef          	jal	ra,3b2c <_free_r>
    3480:	02042823          	sw	zero,48(s0)
    3484:	00000513          	li	a0,0
    3488:	01c12083          	lw	ra,28(sp)
    348c:	01812403          	lw	s0,24(sp)
    3490:	01412483          	lw	s1,20(sp)
    3494:	01012903          	lw	s2,16(sp)
    3498:	00c12983          	lw	s3,12(sp)
    349c:	02010113          	addi	sp,sp,32
    34a0:	00008067          	ret
    34a4:	0105a903          	lw	s2,16(a1)
    34a8:	fc090ee3          	beqz	s2,3484 <__sflush_r+0x11c>
    34ac:	0005a483          	lw	s1,0(a1)
    34b0:	01079713          	slli	a4,a5,0x10
    34b4:	01075713          	srli	a4,a4,0x10
    34b8:	00377713          	andi	a4,a4,3
    34bc:	0125a023          	sw	s2,0(a1)
    34c0:	412484b3          	sub	s1,s1,s2
    34c4:	00000793          	li	a5,0
    34c8:	00071463          	bnez	a4,34d0 <__sflush_r+0x168>
    34cc:	0145a783          	lw	a5,20(a1)
    34d0:	00f42423          	sw	a5,8(s0)
    34d4:	00904863          	bgtz	s1,34e4 <__sflush_r+0x17c>
    34d8:	fadff06f          	j	3484 <__sflush_r+0x11c>
    34dc:	00a90933          	add	s2,s2,a0
    34e0:	fa9052e3          	blez	s1,3484 <__sflush_r+0x11c>
    34e4:	02442783          	lw	a5,36(s0)
    34e8:	01c42583          	lw	a1,28(s0)
    34ec:	00048693          	mv	a3,s1
    34f0:	00090613          	mv	a2,s2
    34f4:	00098513          	mv	a0,s3
    34f8:	000780e7          	jalr	a5
    34fc:	40a484b3          	sub	s1,s1,a0
    3500:	fca04ee3          	bgtz	a0,34dc <__sflush_r+0x174>
    3504:	00c45783          	lhu	a5,12(s0)
    3508:	fff00513          	li	a0,-1
    350c:	0407e793          	ori	a5,a5,64
    3510:	01c12083          	lw	ra,28(sp)
    3514:	00f41623          	sh	a5,12(s0)
    3518:	01812403          	lw	s0,24(sp)
    351c:	01412483          	lw	s1,20(sp)
    3520:	01012903          	lw	s2,16(sp)
    3524:	00c12983          	lw	s3,12(sp)
    3528:	02010113          	addi	sp,sp,32
    352c:	00008067          	ret
    3530:	03c5a703          	lw	a4,60(a1)
    3534:	e6e04ce3          	bgtz	a4,33ac <__sflush_r+0x44>
    3538:	f4dff06f          	j	3484 <__sflush_r+0x11c>
    353c:	05042503          	lw	a0,80(s0)
    3540:	eb5ff06f          	j	33f4 <__sflush_r+0x8c>
    3544:	00c45783          	lhu	a5,12(s0)
    3548:	fffff737          	lui	a4,0xfffff
    354c:	7ff70713          	addi	a4,a4,2047 # fffff7ff <//.+0xfffe9887>
    3550:	00e7f7b3          	and	a5,a5,a4
    3554:	01042683          	lw	a3,16(s0)
    3558:	01079793          	slli	a5,a5,0x10
    355c:	4107d793          	srai	a5,a5,0x10
    3560:	00f41623          	sh	a5,12(s0)
    3564:	00042223          	sw	zero,4(s0)
    3568:	00d42023          	sw	a3,0(s0)
    356c:	01379713          	slli	a4,a5,0x13
    3570:	ee075ae3          	bgez	a4,3464 <__sflush_r+0xfc>
    3574:	04a42823          	sw	a0,80(s0)
    3578:	eedff06f          	j	3464 <__sflush_r+0xfc>
    357c:	0009a783          	lw	a5,0(s3)
    3580:	e60784e3          	beqz	a5,33e8 <__sflush_r+0x80>
    3584:	01d00713          	li	a4,29
    3588:	02e78863          	beq	a5,a4,35b8 <__sflush_r+0x250>
    358c:	01600713          	li	a4,22
    3590:	02e78463          	beq	a5,a4,35b8 <__sflush_r+0x250>
    3594:	00c45783          	lhu	a5,12(s0)
    3598:	0407e793          	ori	a5,a5,64
    359c:	00f41623          	sh	a5,12(s0)
    35a0:	ee9ff06f          	j	3488 <__sflush_r+0x120>
    35a4:	fffff737          	lui	a4,0xfffff
    35a8:	7ff70713          	addi	a4,a4,2047 # fffff7ff <//.+0xfffe9887>
    35ac:	01042683          	lw	a3,16(s0)
    35b0:	00e7f7b3          	and	a5,a5,a4
    35b4:	fadff06f          	j	3560 <__sflush_r+0x1f8>
    35b8:	0099a023          	sw	s1,0(s3)
    35bc:	00000513          	li	a0,0
    35c0:	ec9ff06f          	j	3488 <__sflush_r+0x120>

000035c4 <_fflush_r>:
    35c4:	fe010113          	addi	sp,sp,-32
    35c8:	00812c23          	sw	s0,24(sp)
    35cc:	00112e23          	sw	ra,28(sp)
    35d0:	00050413          	mv	s0,a0
    35d4:	00050663          	beqz	a0,35e0 <_fflush_r+0x1c>
    35d8:	03852783          	lw	a5,56(a0)
    35dc:	02078063          	beqz	a5,35fc <_fflush_r+0x38>
    35e0:	00c59783          	lh	a5,12(a1)
    35e4:	02079663          	bnez	a5,3610 <_fflush_r+0x4c>
    35e8:	01c12083          	lw	ra,28(sp)
    35ec:	01812403          	lw	s0,24(sp)
    35f0:	00000513          	li	a0,0
    35f4:	02010113          	addi	sp,sp,32
    35f8:	00008067          	ret
    35fc:	00b12623          	sw	a1,12(sp)
    3600:	360000ef          	jal	ra,3960 <__sinit>
    3604:	00c12583          	lw	a1,12(sp)
    3608:	00c59783          	lh	a5,12(a1)
    360c:	fc078ee3          	beqz	a5,35e8 <_fflush_r+0x24>
    3610:	00040513          	mv	a0,s0
    3614:	01812403          	lw	s0,24(sp)
    3618:	01c12083          	lw	ra,28(sp)
    361c:	02010113          	addi	sp,sp,32
    3620:	d49ff06f          	j	3368 <__sflush_r>

00003624 <fflush>:
    3624:	00050593          	mv	a1,a0
    3628:	00050663          	beqz	a0,3634 <fflush+0x10>
    362c:	1d81a503          	lw	a0,472(gp) # 15a90 <_impure_ptr>
    3630:	f95ff06f          	j	35c4 <_fflush_r>
    3634:	1d01a503          	lw	a0,464(gp) # 15a88 <_global_impure_ptr>
    3638:	000035b7          	lui	a1,0x3
    363c:	5c458593          	addi	a1,a1,1476 # 35c4 <_fflush_r>
    3640:	0910006f          	j	3ed0 <_fwalk_reent>

00003644 <__fp_lock>:
    3644:	00000513          	li	a0,0
    3648:	00008067          	ret

0000364c <_cleanup_r>:
    364c:	0000d5b7          	lui	a1,0xd
    3650:	e0458593          	addi	a1,a1,-508 # ce04 <_fclose_r>
    3654:	07d0006f          	j	3ed0 <_fwalk_reent>

00003658 <__sinit.part.0>:
    3658:	fe010113          	addi	sp,sp,-32
    365c:	000037b7          	lui	a5,0x3
    3660:	00112e23          	sw	ra,28(sp)
    3664:	00812c23          	sw	s0,24(sp)
    3668:	00912a23          	sw	s1,20(sp)
    366c:	01212823          	sw	s2,16(sp)
    3670:	01312623          	sw	s3,12(sp)
    3674:	01412423          	sw	s4,8(sp)
    3678:	01512223          	sw	s5,4(sp)
    367c:	01612023          	sw	s6,0(sp)
    3680:	00452403          	lw	s0,4(a0)
    3684:	64c78793          	addi	a5,a5,1612 # 364c <_cleanup_r>
    3688:	02f52e23          	sw	a5,60(a0)
    368c:	2ec50713          	addi	a4,a0,748
    3690:	00300793          	li	a5,3
    3694:	2ee52423          	sw	a4,744(a0)
    3698:	2ef52223          	sw	a5,740(a0)
    369c:	2e052023          	sw	zero,736(a0)
    36a0:	00400793          	li	a5,4
    36a4:	00050913          	mv	s2,a0
    36a8:	00f42623          	sw	a5,12(s0)
    36ac:	00800613          	li	a2,8
    36b0:	00000593          	li	a1,0
    36b4:	06042223          	sw	zero,100(s0)
    36b8:	00042023          	sw	zero,0(s0)
    36bc:	00042223          	sw	zero,4(s0)
    36c0:	00042423          	sw	zero,8(s0)
    36c4:	00042823          	sw	zero,16(s0)
    36c8:	00042a23          	sw	zero,20(s0)
    36cc:	00042c23          	sw	zero,24(s0)
    36d0:	05c40513          	addi	a0,s0,92
    36d4:	e01fc0ef          	jal	ra,4d4 <memset>
    36d8:	00009b37          	lui	s6,0x9
    36dc:	00892483          	lw	s1,8(s2)
    36e0:	00009ab7          	lui	s5,0x9
    36e4:	00009a37          	lui	s4,0x9
    36e8:	000099b7          	lui	s3,0x9
    36ec:	968b0b13          	addi	s6,s6,-1688 # 8968 <__sread>
    36f0:	9cca8a93          	addi	s5,s5,-1588 # 89cc <__swrite>
    36f4:	a54a0a13          	addi	s4,s4,-1452 # 8a54 <__sseek>
    36f8:	abc98993          	addi	s3,s3,-1348 # 8abc <__sclose>
    36fc:	000107b7          	lui	a5,0x10
    3700:	03642023          	sw	s6,32(s0)
    3704:	03542223          	sw	s5,36(s0)
    3708:	03442423          	sw	s4,40(s0)
    370c:	03342623          	sw	s3,44(s0)
    3710:	00842e23          	sw	s0,28(s0)
    3714:	00978793          	addi	a5,a5,9 # 10009 <__udivdi3+0x2d1>
    3718:	00f4a623          	sw	a5,12(s1)
    371c:	00800613          	li	a2,8
    3720:	00000593          	li	a1,0
    3724:	0604a223          	sw	zero,100(s1)
    3728:	0004a023          	sw	zero,0(s1)
    372c:	0004a223          	sw	zero,4(s1)
    3730:	0004a423          	sw	zero,8(s1)
    3734:	0004a823          	sw	zero,16(s1)
    3738:	0004aa23          	sw	zero,20(s1)
    373c:	0004ac23          	sw	zero,24(s1)
    3740:	05c48513          	addi	a0,s1,92
    3744:	d91fc0ef          	jal	ra,4d4 <memset>
    3748:	00c92403          	lw	s0,12(s2)
    374c:	000207b7          	lui	a5,0x20
    3750:	0364a023          	sw	s6,32(s1)
    3754:	0354a223          	sw	s5,36(s1)
    3758:	0344a423          	sw	s4,40(s1)
    375c:	0334a623          	sw	s3,44(s1)
    3760:	0094ae23          	sw	s1,28(s1)
    3764:	01278793          	addi	a5,a5,18 # 20012 <//.+0xa09a>
    3768:	00f42623          	sw	a5,12(s0)
    376c:	06042223          	sw	zero,100(s0)
    3770:	00042023          	sw	zero,0(s0)
    3774:	00042223          	sw	zero,4(s0)
    3778:	00042423          	sw	zero,8(s0)
    377c:	00042823          	sw	zero,16(s0)
    3780:	00042a23          	sw	zero,20(s0)
    3784:	00042c23          	sw	zero,24(s0)
    3788:	05c40513          	addi	a0,s0,92
    378c:	00800613          	li	a2,8
    3790:	00000593          	li	a1,0
    3794:	d41fc0ef          	jal	ra,4d4 <memset>
    3798:	01c12083          	lw	ra,28(sp)
    379c:	03642023          	sw	s6,32(s0)
    37a0:	03542223          	sw	s5,36(s0)
    37a4:	03442423          	sw	s4,40(s0)
    37a8:	03342623          	sw	s3,44(s0)
    37ac:	00842e23          	sw	s0,28(s0)
    37b0:	01812403          	lw	s0,24(sp)
    37b4:	00100793          	li	a5,1
    37b8:	02f92c23          	sw	a5,56(s2)
    37bc:	01412483          	lw	s1,20(sp)
    37c0:	01012903          	lw	s2,16(sp)
    37c4:	00c12983          	lw	s3,12(sp)
    37c8:	00812a03          	lw	s4,8(sp)
    37cc:	00412a83          	lw	s5,4(sp)
    37d0:	00012b03          	lw	s6,0(sp)
    37d4:	02010113          	addi	sp,sp,32
    37d8:	00008067          	ret

000037dc <__fp_unlock>:
    37dc:	00000513          	li	a0,0
    37e0:	00008067          	ret

000037e4 <__sfmoreglue>:
    37e4:	ff010113          	addi	sp,sp,-16
    37e8:	00912223          	sw	s1,4(sp)
    37ec:	06800613          	li	a2,104
    37f0:	fff58493          	addi	s1,a1,-1
    37f4:	02c484b3          	mul	s1,s1,a2
    37f8:	01212023          	sw	s2,0(sp)
    37fc:	00058913          	mv	s2,a1
    3800:	00812423          	sw	s0,8(sp)
    3804:	00112623          	sw	ra,12(sp)
    3808:	07448593          	addi	a1,s1,116
    380c:	518030ef          	jal	ra,6d24 <_malloc_r>
    3810:	00050413          	mv	s0,a0
    3814:	02050063          	beqz	a0,3834 <__sfmoreglue+0x50>
    3818:	00c50513          	addi	a0,a0,12
    381c:	00042023          	sw	zero,0(s0)
    3820:	01242223          	sw	s2,4(s0)
    3824:	00a42423          	sw	a0,8(s0)
    3828:	06848613          	addi	a2,s1,104
    382c:	00000593          	li	a1,0
    3830:	ca5fc0ef          	jal	ra,4d4 <memset>
    3834:	00c12083          	lw	ra,12(sp)
    3838:	00040513          	mv	a0,s0
    383c:	00812403          	lw	s0,8(sp)
    3840:	00412483          	lw	s1,4(sp)
    3844:	00012903          	lw	s2,0(sp)
    3848:	01010113          	addi	sp,sp,16
    384c:	00008067          	ret

00003850 <__sfp>:
    3850:	fe010113          	addi	sp,sp,-32
    3854:	01212823          	sw	s2,16(sp)
    3858:	1d01a903          	lw	s2,464(gp) # 15a88 <_global_impure_ptr>
    385c:	01312623          	sw	s3,12(sp)
    3860:	00112e23          	sw	ra,28(sp)
    3864:	03892783          	lw	a5,56(s2)
    3868:	00812c23          	sw	s0,24(sp)
    386c:	00912a23          	sw	s1,20(sp)
    3870:	00050993          	mv	s3,a0
    3874:	0a078663          	beqz	a5,3920 <__sfp+0xd0>
    3878:	2e090913          	addi	s2,s2,736
    387c:	fff00493          	li	s1,-1
    3880:	00492783          	lw	a5,4(s2)
    3884:	00892403          	lw	s0,8(s2)
    3888:	fff78793          	addi	a5,a5,-1
    388c:	0007d863          	bgez	a5,389c <__sfp+0x4c>
    3890:	0800006f          	j	3910 <__sfp+0xc0>
    3894:	06840413          	addi	s0,s0,104
    3898:	06978c63          	beq	a5,s1,3910 <__sfp+0xc0>
    389c:	00c41703          	lh	a4,12(s0)
    38a0:	fff78793          	addi	a5,a5,-1
    38a4:	fe0718e3          	bnez	a4,3894 <__sfp+0x44>
    38a8:	ffff07b7          	lui	a5,0xffff0
    38ac:	00178793          	addi	a5,a5,1 # ffff0001 <//.+0xfffda089>
    38b0:	06042223          	sw	zero,100(s0)
    38b4:	00042023          	sw	zero,0(s0)
    38b8:	00042223          	sw	zero,4(s0)
    38bc:	00042423          	sw	zero,8(s0)
    38c0:	00f42623          	sw	a5,12(s0)
    38c4:	00042823          	sw	zero,16(s0)
    38c8:	00042a23          	sw	zero,20(s0)
    38cc:	00042c23          	sw	zero,24(s0)
    38d0:	00800613          	li	a2,8
    38d4:	00000593          	li	a1,0
    38d8:	05c40513          	addi	a0,s0,92
    38dc:	bf9fc0ef          	jal	ra,4d4 <memset>
    38e0:	02042823          	sw	zero,48(s0)
    38e4:	02042a23          	sw	zero,52(s0)
    38e8:	04042223          	sw	zero,68(s0)
    38ec:	04042423          	sw	zero,72(s0)
    38f0:	01c12083          	lw	ra,28(sp)
    38f4:	00040513          	mv	a0,s0
    38f8:	01812403          	lw	s0,24(sp)
    38fc:	01412483          	lw	s1,20(sp)
    3900:	01012903          	lw	s2,16(sp)
    3904:	00c12983          	lw	s3,12(sp)
    3908:	02010113          	addi	sp,sp,32
    390c:	00008067          	ret
    3910:	00092403          	lw	s0,0(s2)
    3914:	00040c63          	beqz	s0,392c <__sfp+0xdc>
    3918:	00040913          	mv	s2,s0
    391c:	f65ff06f          	j	3880 <__sfp+0x30>
    3920:	00090513          	mv	a0,s2
    3924:	d35ff0ef          	jal	ra,3658 <__sinit.part.0>
    3928:	f51ff06f          	j	3878 <__sfp+0x28>
    392c:	00400593          	li	a1,4
    3930:	00098513          	mv	a0,s3
    3934:	eb1ff0ef          	jal	ra,37e4 <__sfmoreglue>
    3938:	00a92023          	sw	a0,0(s2)
    393c:	00050413          	mv	s0,a0
    3940:	fc051ce3          	bnez	a0,3918 <__sfp+0xc8>
    3944:	00c00793          	li	a5,12
    3948:	00f9a023          	sw	a5,0(s3)
    394c:	fa5ff06f          	j	38f0 <__sfp+0xa0>

00003950 <_cleanup>:
    3950:	1d01a503          	lw	a0,464(gp) # 15a88 <_global_impure_ptr>
    3954:	0000d5b7          	lui	a1,0xd
    3958:	e0458593          	addi	a1,a1,-508 # ce04 <_fclose_r>
    395c:	5740006f          	j	3ed0 <_fwalk_reent>

00003960 <__sinit>:
    3960:	03852783          	lw	a5,56(a0)
    3964:	00078463          	beqz	a5,396c <__sinit+0xc>
    3968:	00008067          	ret
    396c:	cedff06f          	j	3658 <__sinit.part.0>

00003970 <__sfp_lock_acquire>:
    3970:	00008067          	ret

00003974 <__sfp_lock_release>:
    3974:	00008067          	ret

00003978 <__sinit_lock_acquire>:
    3978:	00008067          	ret

0000397c <__sinit_lock_release>:
    397c:	00008067          	ret

00003980 <__fp_lock_all>:
    3980:	1d81a503          	lw	a0,472(gp) # 15a90 <_impure_ptr>
    3984:	000035b7          	lui	a1,0x3
    3988:	64458593          	addi	a1,a1,1604 # 3644 <__fp_lock>
    398c:	4a00006f          	j	3e2c <_fwalk>

00003990 <__fp_unlock_all>:
    3990:	1d81a503          	lw	a0,472(gp) # 15a90 <_impure_ptr>
    3994:	000035b7          	lui	a1,0x3
    3998:	7dc58593          	addi	a1,a1,2012 # 37dc <__fp_unlock>
    399c:	4900006f          	j	3e2c <_fwalk>

000039a0 <__libc_fini_array>:
    39a0:	ff010113          	addi	sp,sp,-16
    39a4:	00812423          	sw	s0,8(sp)
    39a8:	000157b7          	lui	a5,0x15
    39ac:	00015437          	lui	s0,0x15
    39b0:	0b440413          	addi	s0,s0,180 # 150b4 <__init_array_end>
    39b4:	0b878793          	addi	a5,a5,184 # 150b8 <__fini_array_end>
    39b8:	408787b3          	sub	a5,a5,s0
    39bc:	00912223          	sw	s1,4(sp)
    39c0:	00112623          	sw	ra,12(sp)
    39c4:	4027d493          	srai	s1,a5,0x2
    39c8:	02048063          	beqz	s1,39e8 <__libc_fini_array+0x48>
    39cc:	ffc78793          	addi	a5,a5,-4
    39d0:	00878433          	add	s0,a5,s0
    39d4:	00042783          	lw	a5,0(s0)
    39d8:	fff48493          	addi	s1,s1,-1
    39dc:	ffc40413          	addi	s0,s0,-4
    39e0:	000780e7          	jalr	a5
    39e4:	fe0498e3          	bnez	s1,39d4 <__libc_fini_array+0x34>
    39e8:	00c12083          	lw	ra,12(sp)
    39ec:	00812403          	lw	s0,8(sp)
    39f0:	00412483          	lw	s1,4(sp)
    39f4:	01010113          	addi	sp,sp,16
    39f8:	00008067          	ret

000039fc <_malloc_trim_r>:
    39fc:	fe010113          	addi	sp,sp,-32
    3a00:	01312623          	sw	s3,12(sp)
    3a04:	00812c23          	sw	s0,24(sp)
    3a08:	00912a23          	sw	s1,20(sp)
    3a0c:	01212823          	sw	s2,16(sp)
    3a10:	01412423          	sw	s4,8(sp)
    3a14:	00112e23          	sw	ra,28(sp)
    3a18:	00058a13          	mv	s4,a1
    3a1c:	00050913          	mv	s2,a0
    3a20:	dac18993          	addi	s3,gp,-596 # 15664 <__malloc_av_>
    3a24:	3dd030ef          	jal	ra,7600 <__malloc_lock>
    3a28:	0089a703          	lw	a4,8(s3)
    3a2c:	000017b7          	lui	a5,0x1
    3a30:	fef78413          	addi	s0,a5,-17 # fef <_vfprintf_r+0x9b3>
    3a34:	00472483          	lw	s1,4(a4)
    3a38:	41440433          	sub	s0,s0,s4
    3a3c:	ffc4f493          	andi	s1,s1,-4
    3a40:	00940433          	add	s0,s0,s1
    3a44:	00c45413          	srli	s0,s0,0xc
    3a48:	fff40413          	addi	s0,s0,-1
    3a4c:	00c41413          	slli	s0,s0,0xc
    3a50:	00f44e63          	blt	s0,a5,3a6c <_malloc_trim_r+0x70>
    3a54:	00000593          	li	a1,0
    3a58:	00090513          	mv	a0,s2
    3a5c:	525040ef          	jal	ra,8780 <_sbrk_r>
    3a60:	0089a783          	lw	a5,8(s3)
    3a64:	009787b3          	add	a5,a5,s1
    3a68:	02f50863          	beq	a0,a5,3a98 <_malloc_trim_r+0x9c>
    3a6c:	00090513          	mv	a0,s2
    3a70:	395030ef          	jal	ra,7604 <__malloc_unlock>
    3a74:	01c12083          	lw	ra,28(sp)
    3a78:	01812403          	lw	s0,24(sp)
    3a7c:	01412483          	lw	s1,20(sp)
    3a80:	01012903          	lw	s2,16(sp)
    3a84:	00c12983          	lw	s3,12(sp)
    3a88:	00812a03          	lw	s4,8(sp)
    3a8c:	00000513          	li	a0,0
    3a90:	02010113          	addi	sp,sp,32
    3a94:	00008067          	ret
    3a98:	408005b3          	neg	a1,s0
    3a9c:	00090513          	mv	a0,s2
    3aa0:	4e1040ef          	jal	ra,8780 <_sbrk_r>
    3aa4:	fff00793          	li	a5,-1
    3aa8:	04f50863          	beq	a0,a5,3af8 <_malloc_trim_r+0xfc>
    3aac:	21418793          	addi	a5,gp,532 # 15acc <__malloc_current_mallinfo>
    3ab0:	0007a703          	lw	a4,0(a5)
    3ab4:	0089a683          	lw	a3,8(s3)
    3ab8:	408484b3          	sub	s1,s1,s0
    3abc:	0014e493          	ori	s1,s1,1
    3ac0:	40870433          	sub	s0,a4,s0
    3ac4:	00090513          	mv	a0,s2
    3ac8:	0096a223          	sw	s1,4(a3)
    3acc:	0087a023          	sw	s0,0(a5)
    3ad0:	335030ef          	jal	ra,7604 <__malloc_unlock>
    3ad4:	01c12083          	lw	ra,28(sp)
    3ad8:	01812403          	lw	s0,24(sp)
    3adc:	01412483          	lw	s1,20(sp)
    3ae0:	01012903          	lw	s2,16(sp)
    3ae4:	00c12983          	lw	s3,12(sp)
    3ae8:	00812a03          	lw	s4,8(sp)
    3aec:	00100513          	li	a0,1
    3af0:	02010113          	addi	sp,sp,32
    3af4:	00008067          	ret
    3af8:	00000593          	li	a1,0
    3afc:	00090513          	mv	a0,s2
    3b00:	481040ef          	jal	ra,8780 <_sbrk_r>
    3b04:	0089a703          	lw	a4,8(s3)
    3b08:	00f00693          	li	a3,15
    3b0c:	40e507b3          	sub	a5,a0,a4
    3b10:	f4f6dee3          	bge	a3,a5,3a6c <_malloc_trim_r+0x70>
    3b14:	1dc1a683          	lw	a3,476(gp) # 15a94 <__malloc_sbrk_base>
    3b18:	0017e793          	ori	a5,a5,1
    3b1c:	00f72223          	sw	a5,4(a4)
    3b20:	40d50533          	sub	a0,a0,a3
    3b24:	20a1aa23          	sw	a0,532(gp) # 15acc <__malloc_current_mallinfo>
    3b28:	f45ff06f          	j	3a6c <_malloc_trim_r+0x70>

00003b2c <_free_r>:
    3b2c:	12058463          	beqz	a1,3c54 <_free_r+0x128>
    3b30:	ff010113          	addi	sp,sp,-16
    3b34:	00812423          	sw	s0,8(sp)
    3b38:	00912223          	sw	s1,4(sp)
    3b3c:	00058413          	mv	s0,a1
    3b40:	00050493          	mv	s1,a0
    3b44:	00112623          	sw	ra,12(sp)
    3b48:	2b9030ef          	jal	ra,7600 <__malloc_lock>
    3b4c:	ffc42803          	lw	a6,-4(s0)
    3b50:	ff840713          	addi	a4,s0,-8
    3b54:	ffe87793          	andi	a5,a6,-2
    3b58:	00f70633          	add	a2,a4,a5
    3b5c:	dac18593          	addi	a1,gp,-596 # 15664 <__malloc_av_>
    3b60:	00462683          	lw	a3,4(a2)
    3b64:	0085a503          	lw	a0,8(a1)
    3b68:	ffc6f693          	andi	a3,a3,-4
    3b6c:	1ac50663          	beq	a0,a2,3d18 <_free_r+0x1ec>
    3b70:	00d62223          	sw	a3,4(a2)
    3b74:	00187813          	andi	a6,a6,1
    3b78:	00d60533          	add	a0,a2,a3
    3b7c:	08081e63          	bnez	a6,3c18 <_free_r+0xec>
    3b80:	ff842303          	lw	t1,-8(s0)
    3b84:	00452803          	lw	a6,4(a0)
    3b88:	40670733          	sub	a4,a4,t1
    3b8c:	00872883          	lw	a7,8(a4)
    3b90:	db418513          	addi	a0,gp,-588 # 1566c <__malloc_av_+0x8>
    3b94:	006787b3          	add	a5,a5,t1
    3b98:	00187813          	andi	a6,a6,1
    3b9c:	12a88e63          	beq	a7,a0,3cd8 <_free_r+0x1ac>
    3ba0:	00c72303          	lw	t1,12(a4)
    3ba4:	0068a623          	sw	t1,12(a7)
    3ba8:	01132423          	sw	a7,8(t1)
    3bac:	1c080e63          	beqz	a6,3d88 <_free_r+0x25c>
    3bb0:	0017e693          	ori	a3,a5,1
    3bb4:	00d72223          	sw	a3,4(a4)
    3bb8:	00f62023          	sw	a5,0(a2)
    3bbc:	1ff00693          	li	a3,511
    3bc0:	0af6e663          	bltu	a3,a5,3c6c <_free_r+0x140>
    3bc4:	ff87f693          	andi	a3,a5,-8
    3bc8:	00868693          	addi	a3,a3,8
    3bcc:	0045a503          	lw	a0,4(a1)
    3bd0:	00d586b3          	add	a3,a1,a3
    3bd4:	0006a603          	lw	a2,0(a3)
    3bd8:	0057d813          	srli	a6,a5,0x5
    3bdc:	00100793          	li	a5,1
    3be0:	010797b3          	sll	a5,a5,a6
    3be4:	00a7e7b3          	or	a5,a5,a0
    3be8:	ff868513          	addi	a0,a3,-8
    3bec:	00a72623          	sw	a0,12(a4)
    3bf0:	00c72423          	sw	a2,8(a4)
    3bf4:	00f5a223          	sw	a5,4(a1)
    3bf8:	00e6a023          	sw	a4,0(a3)
    3bfc:	00e62623          	sw	a4,12(a2)
    3c00:	00812403          	lw	s0,8(sp)
    3c04:	00c12083          	lw	ra,12(sp)
    3c08:	00048513          	mv	a0,s1
    3c0c:	00412483          	lw	s1,4(sp)
    3c10:	01010113          	addi	sp,sp,16
    3c14:	1f10306f          	j	7604 <__malloc_unlock>
    3c18:	00452503          	lw	a0,4(a0)
    3c1c:	00157513          	andi	a0,a0,1
    3c20:	02051c63          	bnez	a0,3c58 <_free_r+0x12c>
    3c24:	00d787b3          	add	a5,a5,a3
    3c28:	db418513          	addi	a0,gp,-588 # 1566c <__malloc_av_+0x8>
    3c2c:	00862683          	lw	a3,8(a2)
    3c30:	0017e893          	ori	a7,a5,1
    3c34:	00f70833          	add	a6,a4,a5
    3c38:	16a68463          	beq	a3,a0,3da0 <_free_r+0x274>
    3c3c:	00c62603          	lw	a2,12(a2)
    3c40:	00c6a623          	sw	a2,12(a3)
    3c44:	00d62423          	sw	a3,8(a2)
    3c48:	01172223          	sw	a7,4(a4)
    3c4c:	00f82023          	sw	a5,0(a6)
    3c50:	f6dff06f          	j	3bbc <_free_r+0x90>
    3c54:	00008067          	ret
    3c58:	0017e693          	ori	a3,a5,1
    3c5c:	fed42e23          	sw	a3,-4(s0)
    3c60:	00f62023          	sw	a5,0(a2)
    3c64:	1ff00693          	li	a3,511
    3c68:	f4f6fee3          	bgeu	a3,a5,3bc4 <_free_r+0x98>
    3c6c:	0097d693          	srli	a3,a5,0x9
    3c70:	00400613          	li	a2,4
    3c74:	0ed66863          	bltu	a2,a3,3d64 <_free_r+0x238>
    3c78:	0067d693          	srli	a3,a5,0x6
    3c7c:	03968813          	addi	a6,a3,57
    3c80:	03868613          	addi	a2,a3,56
    3c84:	00381813          	slli	a6,a6,0x3
    3c88:	01058833          	add	a6,a1,a6
    3c8c:	00082683          	lw	a3,0(a6)
    3c90:	ff880813          	addi	a6,a6,-8
    3c94:	12d80463          	beq	a6,a3,3dbc <_free_r+0x290>
    3c98:	0046a603          	lw	a2,4(a3)
    3c9c:	ffc67613          	andi	a2,a2,-4
    3ca0:	00c7f663          	bgeu	a5,a2,3cac <_free_r+0x180>
    3ca4:	0086a683          	lw	a3,8(a3)
    3ca8:	fed818e3          	bne	a6,a3,3c98 <_free_r+0x16c>
    3cac:	00c6a803          	lw	a6,12(a3)
    3cb0:	01072623          	sw	a6,12(a4)
    3cb4:	00d72423          	sw	a3,8(a4)
    3cb8:	00812403          	lw	s0,8(sp)
    3cbc:	00c12083          	lw	ra,12(sp)
    3cc0:	00e82423          	sw	a4,8(a6)
    3cc4:	00048513          	mv	a0,s1
    3cc8:	00412483          	lw	s1,4(sp)
    3ccc:	00e6a623          	sw	a4,12(a3)
    3cd0:	01010113          	addi	sp,sp,16
    3cd4:	1310306f          	j	7604 <__malloc_unlock>
    3cd8:	14081263          	bnez	a6,3e1c <_free_r+0x2f0>
    3cdc:	00c62583          	lw	a1,12(a2)
    3ce0:	00862603          	lw	a2,8(a2)
    3ce4:	00f687b3          	add	a5,a3,a5
    3ce8:	00812403          	lw	s0,8(sp)
    3cec:	00b62623          	sw	a1,12(a2)
    3cf0:	00c5a423          	sw	a2,8(a1)
    3cf4:	0017e693          	ori	a3,a5,1
    3cf8:	00c12083          	lw	ra,12(sp)
    3cfc:	00d72223          	sw	a3,4(a4)
    3d00:	00048513          	mv	a0,s1
    3d04:	00f70733          	add	a4,a4,a5
    3d08:	00412483          	lw	s1,4(sp)
    3d0c:	00f72023          	sw	a5,0(a4)
    3d10:	01010113          	addi	sp,sp,16
    3d14:	0f10306f          	j	7604 <__malloc_unlock>
    3d18:	00187813          	andi	a6,a6,1
    3d1c:	00d787b3          	add	a5,a5,a3
    3d20:	02081063          	bnez	a6,3d40 <_free_r+0x214>
    3d24:	ff842503          	lw	a0,-8(s0)
    3d28:	40a70733          	sub	a4,a4,a0
    3d2c:	00c72683          	lw	a3,12(a4)
    3d30:	00872603          	lw	a2,8(a4)
    3d34:	00a787b3          	add	a5,a5,a0
    3d38:	00d62623          	sw	a3,12(a2)
    3d3c:	00c6a423          	sw	a2,8(a3)
    3d40:	0017e613          	ori	a2,a5,1
    3d44:	1e01a683          	lw	a3,480(gp) # 15a98 <__malloc_trim_threshold>
    3d48:	00c72223          	sw	a2,4(a4)
    3d4c:	00e5a423          	sw	a4,8(a1)
    3d50:	ead7e8e3          	bltu	a5,a3,3c00 <_free_r+0xd4>
    3d54:	1f01a583          	lw	a1,496(gp) # 15aa8 <__malloc_top_pad>
    3d58:	00048513          	mv	a0,s1
    3d5c:	ca1ff0ef          	jal	ra,39fc <_malloc_trim_r>
    3d60:	ea1ff06f          	j	3c00 <_free_r+0xd4>
    3d64:	01400613          	li	a2,20
    3d68:	02d67463          	bgeu	a2,a3,3d90 <_free_r+0x264>
    3d6c:	05400613          	li	a2,84
    3d70:	06d66463          	bltu	a2,a3,3dd8 <_free_r+0x2ac>
    3d74:	00c7d693          	srli	a3,a5,0xc
    3d78:	06f68813          	addi	a6,a3,111
    3d7c:	06e68613          	addi	a2,a3,110
    3d80:	00381813          	slli	a6,a6,0x3
    3d84:	f05ff06f          	j	3c88 <_free_r+0x15c>
    3d88:	00d787b3          	add	a5,a5,a3
    3d8c:	ea1ff06f          	j	3c2c <_free_r+0x100>
    3d90:	05c68813          	addi	a6,a3,92
    3d94:	05b68613          	addi	a2,a3,91
    3d98:	00381813          	slli	a6,a6,0x3
    3d9c:	eedff06f          	j	3c88 <_free_r+0x15c>
    3da0:	00e5aa23          	sw	a4,20(a1)
    3da4:	00e5a823          	sw	a4,16(a1)
    3da8:	00a72623          	sw	a0,12(a4)
    3dac:	00a72423          	sw	a0,8(a4)
    3db0:	01172223          	sw	a7,4(a4)
    3db4:	00f82023          	sw	a5,0(a6)
    3db8:	e49ff06f          	j	3c00 <_free_r+0xd4>
    3dbc:	0045a503          	lw	a0,4(a1)
    3dc0:	40265613          	srai	a2,a2,0x2
    3dc4:	00100793          	li	a5,1
    3dc8:	00c79633          	sll	a2,a5,a2
    3dcc:	00a66633          	or	a2,a2,a0
    3dd0:	00c5a223          	sw	a2,4(a1)
    3dd4:	eddff06f          	j	3cb0 <_free_r+0x184>
    3dd8:	15400613          	li	a2,340
    3ddc:	00d66c63          	bltu	a2,a3,3df4 <_free_r+0x2c8>
    3de0:	00f7d693          	srli	a3,a5,0xf
    3de4:	07868813          	addi	a6,a3,120
    3de8:	07768613          	addi	a2,a3,119
    3dec:	00381813          	slli	a6,a6,0x3
    3df0:	e99ff06f          	j	3c88 <_free_r+0x15c>
    3df4:	55400613          	li	a2,1364
    3df8:	00d66c63          	bltu	a2,a3,3e10 <_free_r+0x2e4>
    3dfc:	0127d693          	srli	a3,a5,0x12
    3e00:	07d68813          	addi	a6,a3,125
    3e04:	07c68613          	addi	a2,a3,124
    3e08:	00381813          	slli	a6,a6,0x3
    3e0c:	e7dff06f          	j	3c88 <_free_r+0x15c>
    3e10:	3f800813          	li	a6,1016
    3e14:	07e00613          	li	a2,126
    3e18:	e71ff06f          	j	3c88 <_free_r+0x15c>
    3e1c:	0017e693          	ori	a3,a5,1
    3e20:	00d72223          	sw	a3,4(a4)
    3e24:	00f62023          	sw	a5,0(a2)
    3e28:	dd9ff06f          	j	3c00 <_free_r+0xd4>

00003e2c <_fwalk>:
    3e2c:	fe010113          	addi	sp,sp,-32
    3e30:	01212823          	sw	s2,16(sp)
    3e34:	01312623          	sw	s3,12(sp)
    3e38:	01412423          	sw	s4,8(sp)
    3e3c:	01512223          	sw	s5,4(sp)
    3e40:	01612023          	sw	s6,0(sp)
    3e44:	00112e23          	sw	ra,28(sp)
    3e48:	00812c23          	sw	s0,24(sp)
    3e4c:	00912a23          	sw	s1,20(sp)
    3e50:	00058b13          	mv	s6,a1
    3e54:	2e050a93          	addi	s5,a0,736
    3e58:	00000a13          	li	s4,0
    3e5c:	00100993          	li	s3,1
    3e60:	fff00913          	li	s2,-1
    3e64:	004aa483          	lw	s1,4(s5)
    3e68:	008aa403          	lw	s0,8(s5)
    3e6c:	fff48493          	addi	s1,s1,-1
    3e70:	0204c663          	bltz	s1,3e9c <_fwalk+0x70>
    3e74:	00c45783          	lhu	a5,12(s0)
    3e78:	fff48493          	addi	s1,s1,-1
    3e7c:	00f9fc63          	bgeu	s3,a5,3e94 <_fwalk+0x68>
    3e80:	00e41783          	lh	a5,14(s0)
    3e84:	00040513          	mv	a0,s0
    3e88:	01278663          	beq	a5,s2,3e94 <_fwalk+0x68>
    3e8c:	000b00e7          	jalr	s6
    3e90:	00aa6a33          	or	s4,s4,a0
    3e94:	06840413          	addi	s0,s0,104
    3e98:	fd249ee3          	bne	s1,s2,3e74 <_fwalk+0x48>
    3e9c:	000aaa83          	lw	s5,0(s5)
    3ea0:	fc0a92e3          	bnez	s5,3e64 <_fwalk+0x38>
    3ea4:	01c12083          	lw	ra,28(sp)
    3ea8:	01812403          	lw	s0,24(sp)
    3eac:	01412483          	lw	s1,20(sp)
    3eb0:	01012903          	lw	s2,16(sp)
    3eb4:	00c12983          	lw	s3,12(sp)
    3eb8:	00412a83          	lw	s5,4(sp)
    3ebc:	00012b03          	lw	s6,0(sp)
    3ec0:	000a0513          	mv	a0,s4
    3ec4:	00812a03          	lw	s4,8(sp)
    3ec8:	02010113          	addi	sp,sp,32
    3ecc:	00008067          	ret

00003ed0 <_fwalk_reent>:
    3ed0:	fd010113          	addi	sp,sp,-48
    3ed4:	03212023          	sw	s2,32(sp)
    3ed8:	01312e23          	sw	s3,28(sp)
    3edc:	01412c23          	sw	s4,24(sp)
    3ee0:	01512a23          	sw	s5,20(sp)
    3ee4:	01612823          	sw	s6,16(sp)
    3ee8:	01712623          	sw	s7,12(sp)
    3eec:	02112623          	sw	ra,44(sp)
    3ef0:	02812423          	sw	s0,40(sp)
    3ef4:	02912223          	sw	s1,36(sp)
    3ef8:	00050a93          	mv	s5,a0
    3efc:	00058b93          	mv	s7,a1
    3f00:	2e050b13          	addi	s6,a0,736
    3f04:	00000a13          	li	s4,0
    3f08:	00100993          	li	s3,1
    3f0c:	fff00913          	li	s2,-1
    3f10:	004b2483          	lw	s1,4(s6)
    3f14:	008b2403          	lw	s0,8(s6)
    3f18:	fff48493          	addi	s1,s1,-1
    3f1c:	0204c863          	bltz	s1,3f4c <_fwalk_reent+0x7c>
    3f20:	00c45783          	lhu	a5,12(s0)
    3f24:	fff48493          	addi	s1,s1,-1
    3f28:	00f9fe63          	bgeu	s3,a5,3f44 <_fwalk_reent+0x74>
    3f2c:	00e41783          	lh	a5,14(s0)
    3f30:	00040593          	mv	a1,s0
    3f34:	000a8513          	mv	a0,s5
    3f38:	01278663          	beq	a5,s2,3f44 <_fwalk_reent+0x74>
    3f3c:	000b80e7          	jalr	s7
    3f40:	00aa6a33          	or	s4,s4,a0
    3f44:	06840413          	addi	s0,s0,104
    3f48:	fd249ce3          	bne	s1,s2,3f20 <_fwalk_reent+0x50>
    3f4c:	000b2b03          	lw	s6,0(s6)
    3f50:	fc0b10e3          	bnez	s6,3f10 <_fwalk_reent+0x40>
    3f54:	02c12083          	lw	ra,44(sp)
    3f58:	02812403          	lw	s0,40(sp)
    3f5c:	02412483          	lw	s1,36(sp)
    3f60:	02012903          	lw	s2,32(sp)
    3f64:	01c12983          	lw	s3,28(sp)
    3f68:	01412a83          	lw	s5,20(sp)
    3f6c:	01012b03          	lw	s6,16(sp)
    3f70:	00c12b83          	lw	s7,12(sp)
    3f74:	000a0513          	mv	a0,s4
    3f78:	01812a03          	lw	s4,24(sp)
    3f7c:	03010113          	addi	sp,sp,48
    3f80:	00008067          	ret

00003f84 <eshdn1>:
    3f84:	00450693          	addi	a3,a0,4
    3f88:	00000793          	li	a5,0
    3f8c:	01a50513          	addi	a0,a0,26
    3f90:	ffff8837          	lui	a6,0xffff8
    3f94:	01c0006f          	j	3fb0 <eshdn1+0x2c>
    3f98:	00179793          	slli	a5,a5,0x1
    3f9c:	00e69023          	sh	a4,0(a3)
    3fa0:	01079793          	slli	a5,a5,0x10
    3fa4:	00268693          	addi	a3,a3,2
    3fa8:	0107d793          	srli	a5,a5,0x10
    3fac:	02d50e63          	beq	a0,a3,3fe8 <eshdn1+0x64>
    3fb0:	0006d703          	lhu	a4,0(a3)
    3fb4:	00177613          	andi	a2,a4,1
    3fb8:	00060463          	beqz	a2,3fc0 <eshdn1+0x3c>
    3fbc:	0017e793          	ori	a5,a5,1
    3fc0:	00175713          	srli	a4,a4,0x1
    3fc4:	0027f613          	andi	a2,a5,2
    3fc8:	010765b3          	or	a1,a4,a6
    3fcc:	fc0606e3          	beqz	a2,3f98 <eshdn1+0x14>
    3fd0:	00179793          	slli	a5,a5,0x1
    3fd4:	00b69023          	sh	a1,0(a3)
    3fd8:	01079793          	slli	a5,a5,0x10
    3fdc:	00268693          	addi	a3,a3,2
    3fe0:	0107d793          	srli	a5,a5,0x10
    3fe4:	fcd516e3          	bne	a0,a3,3fb0 <eshdn1+0x2c>
    3fe8:	00008067          	ret

00003fec <eshup1>:
    3fec:	01850693          	addi	a3,a0,24
    3ff0:	00000713          	li	a4,0
    3ff4:	00250513          	addi	a0,a0,2
    3ff8:	01c0006f          	j	4014 <eshup1+0x28>
    3ffc:	00171713          	slli	a4,a4,0x1
    4000:	00f69023          	sh	a5,0(a3)
    4004:	01071713          	slli	a4,a4,0x10
    4008:	ffe68693          	addi	a3,a3,-2
    400c:	01075713          	srli	a4,a4,0x10
    4010:	04d50463          	beq	a0,a3,4058 <eshup1+0x6c>
    4014:	0006d783          	lhu	a5,0(a3)
    4018:	01079613          	slli	a2,a5,0x10
    401c:	41065613          	srai	a2,a2,0x10
    4020:	00179793          	slli	a5,a5,0x1
    4024:	00065463          	bgez	a2,402c <eshup1+0x40>
    4028:	00176713          	ori	a4,a4,1
    402c:	01079793          	slli	a5,a5,0x10
    4030:	0107d793          	srli	a5,a5,0x10
    4034:	00277613          	andi	a2,a4,2
    4038:	0017e593          	ori	a1,a5,1
    403c:	fc0600e3          	beqz	a2,3ffc <eshup1+0x10>
    4040:	00171713          	slli	a4,a4,0x1
    4044:	00b69023          	sh	a1,0(a3)
    4048:	01071713          	slli	a4,a4,0x10
    404c:	ffe68693          	addi	a3,a3,-2
    4050:	01075713          	srli	a4,a4,0x10
    4054:	fcd510e3          	bne	a0,a3,4014 <eshup1+0x28>
    4058:	00008067          	ret

0000405c <m16m>:
    405c:	fe010113          	addi	sp,sp,-32
    4060:	00010e37          	lui	t3,0x10
    4064:	00011d23          	sh	zero,26(sp)
    4068:	00011e23          	sh	zero,28(sp)
    406c:	01858593          	addi	a1,a1,24
    4070:	01c10793          	addi	a5,sp,28
    4074:	00810813          	addi	a6,sp,8
    4078:	fffe0e13          	addi	t3,t3,-1 # ffff <__udivdi3+0x2c7>
    407c:	0005d703          	lhu	a4,0(a1)
    4080:	ffe78793          	addi	a5,a5,-2
    4084:	ffe58593          	addi	a1,a1,-2
    4088:	02071863          	bnez	a4,40b8 <m16m+0x5c>
    408c:	fe079f23          	sh	zero,-2(a5)
    4090:	ff0796e3          	bne	a5,a6,407c <m16m+0x20>
    4094:	00460613          	addi	a2,a2,4
    4098:	01e10693          	addi	a3,sp,30
    409c:	0007d703          	lhu	a4,0(a5)
    40a0:	00278793          	addi	a5,a5,2
    40a4:	00260613          	addi	a2,a2,2
    40a8:	fee61f23          	sh	a4,-2(a2)
    40ac:	fed798e3          	bne	a5,a3,409c <m16m+0x40>
    40b0:	02010113          	addi	sp,sp,32
    40b4:	00008067          	ret
    40b8:	02a70733          	mul	a4,a4,a0
    40bc:	0027d883          	lhu	a7,2(a5)
    40c0:	0007d303          	lhu	t1,0(a5)
    40c4:	01c776b3          	and	a3,a4,t3
    40c8:	011686b3          	add	a3,a3,a7
    40cc:	01075713          	srli	a4,a4,0x10
    40d0:	0106d893          	srli	a7,a3,0x10
    40d4:	00670733          	add	a4,a4,t1
    40d8:	01170733          	add	a4,a4,a7
    40dc:	01075893          	srli	a7,a4,0x10
    40e0:	00d79123          	sh	a3,2(a5)
    40e4:	00e79023          	sh	a4,0(a5)
    40e8:	ff179f23          	sh	a7,-2(a5)
    40ec:	f90798e3          	bne	a5,a6,407c <m16m+0x20>
    40f0:	fa5ff06f          	j	4094 <m16m+0x38>

000040f4 <eisnan.part.0>:
    40f4:	01250713          	addi	a4,a0,18
    40f8:	00055783          	lhu	a5,0(a0)
    40fc:	00250513          	addi	a0,a0,2
    4100:	00079863          	bnez	a5,4110 <eisnan.part.0+0x1c>
    4104:	fee51ae3          	bne	a0,a4,40f8 <eisnan.part.0+0x4>
    4108:	00000513          	li	a0,0
    410c:	00008067          	ret
    4110:	00100513          	li	a0,1
    4114:	00008067          	ret

00004118 <eneg>:
    4118:	ff010113          	addi	sp,sp,-16
    411c:	00912223          	sw	s1,4(sp)
    4120:	01255483          	lhu	s1,18(a0)
    4124:	00812423          	sw	s0,8(sp)
    4128:	00112623          	sw	ra,12(sp)
    412c:	fff4c793          	not	a5,s1
    4130:	01179713          	slli	a4,a5,0x11
    4134:	00050413          	mv	s0,a0
    4138:	00071663          	bnez	a4,4144 <eneg+0x2c>
    413c:	fb9ff0ef          	jal	ra,40f4 <eisnan.part.0>
    4140:	00051863          	bnez	a0,4150 <eneg+0x38>
    4144:	ffff87b7          	lui	a5,0xffff8
    4148:	00f4c4b3          	xor	s1,s1,a5
    414c:	00941923          	sh	s1,18(s0)
    4150:	00c12083          	lw	ra,12(sp)
    4154:	00812403          	lw	s0,8(sp)
    4158:	00412483          	lw	s1,4(sp)
    415c:	01010113          	addi	sp,sp,16
    4160:	00008067          	ret

00004164 <eisneg>:
    4164:	ff010113          	addi	sp,sp,-16
    4168:	00812423          	sw	s0,8(sp)
    416c:	01255403          	lhu	s0,18(a0)
    4170:	00112623          	sw	ra,12(sp)
    4174:	fff44793          	not	a5,s0
    4178:	01179713          	slli	a4,a5,0x11
    417c:	00071a63          	bnez	a4,4190 <eisneg+0x2c>
    4180:	f75ff0ef          	jal	ra,40f4 <eisnan.part.0>
    4184:	00050793          	mv	a5,a0
    4188:	00000513          	li	a0,0
    418c:	00079463          	bnez	a5,4194 <eisneg+0x30>
    4190:	00f45513          	srli	a0,s0,0xf
    4194:	00c12083          	lw	ra,12(sp)
    4198:	00812403          	lw	s0,8(sp)
    419c:	01010113          	addi	sp,sp,16
    41a0:	00008067          	ret

000041a4 <emovi>:
    41a4:	01255783          	lhu	a5,18(a0)
    41a8:	fd010113          	addi	sp,sp,-48
    41ac:	02812423          	sw	s0,40(sp)
    41b0:	00f7d793          	srli	a5,a5,0xf
    41b4:	02912223          	sw	s1,36(sp)
    41b8:	02112623          	sw	ra,44(sp)
    41bc:	03212023          	sw	s2,32(sp)
    41c0:	01312e23          	sw	s3,28(sp)
    41c4:	40f007b3          	neg	a5,a5
    41c8:	00f59023          	sh	a5,0(a1)
    41cc:	01255783          	lhu	a5,18(a0)
    41d0:	00008737          	lui	a4,0x8
    41d4:	fff70713          	addi	a4,a4,-1 # 7fff <__mcmp+0xb>
    41d8:	00f777b3          	and	a5,a4,a5
    41dc:	00f59123          	sh	a5,2(a1)
    41e0:	00050493          	mv	s1,a0
    41e4:	01050413          	addi	s0,a0,16
    41e8:	04e78263          	beq	a5,a4,422c <emovi+0x88>
    41ec:	00658793          	addi	a5,a1,6
    41f0:	00059223          	sh	zero,4(a1)
    41f4:	ffe50513          	addi	a0,a0,-2
    41f8:	00045703          	lhu	a4,0(s0)
    41fc:	ffe40413          	addi	s0,s0,-2
    4200:	00278793          	addi	a5,a5,2 # ffff8002 <//.+0xfffe208a>
    4204:	fee79f23          	sh	a4,-2(a5)
    4208:	fe8518e3          	bne	a0,s0,41f8 <emovi+0x54>
    420c:	00059c23          	sh	zero,24(a1)
    4210:	02c12083          	lw	ra,44(sp)
    4214:	02812403          	lw	s0,40(sp)
    4218:	02412483          	lw	s1,36(sp)
    421c:	02012903          	lw	s2,32(sp)
    4220:	01c12983          	lw	s3,28(sp)
    4224:	03010113          	addi	sp,sp,48
    4228:	00008067          	ret
    422c:	01255703          	lhu	a4,18(a0)
    4230:	00458913          	addi	s2,a1,4
    4234:	00e7f733          	and	a4,a5,a4
    4238:	02f71c63          	bne	a4,a5,4270 <emovi+0xcc>
    423c:	00b12623          	sw	a1,12(sp)
    4240:	eb5ff0ef          	jal	ra,40f4 <eisnan.part.0>
    4244:	00c12583          	lw	a1,12(sp)
    4248:	02050463          	beqz	a0,4270 <emovi+0xcc>
    424c:	00658793          	addi	a5,a1,6
    4250:	00059223          	sh	zero,4(a1)
    4254:	ffc48513          	addi	a0,s1,-4
    4258:	00045703          	lhu	a4,0(s0)
    425c:	ffe40413          	addi	s0,s0,-2
    4260:	00278793          	addi	a5,a5,2
    4264:	fee79f23          	sh	a4,-2(a5)
    4268:	fe8518e3          	bne	a0,s0,4258 <emovi+0xb4>
    426c:	fa5ff06f          	j	4210 <emovi+0x6c>
    4270:	01a58993          	addi	s3,a1,26
    4274:	00290913          	addi	s2,s2,2
    4278:	fe091f23          	sh	zero,-2(s2)
    427c:	ff299ce3          	bne	s3,s2,4274 <emovi+0xd0>
    4280:	02c12083          	lw	ra,44(sp)
    4284:	02812403          	lw	s0,40(sp)
    4288:	02412483          	lw	s1,36(sp)
    428c:	02012903          	lw	s2,32(sp)
    4290:	01c12983          	lw	s3,28(sp)
    4294:	03010113          	addi	sp,sp,48
    4298:	00008067          	ret

0000429c <ecmp>:
    429c:	01255783          	lhu	a5,18(a0)
    42a0:	fb010113          	addi	sp,sp,-80
    42a4:	04812423          	sw	s0,72(sp)
    42a8:	fff7c793          	not	a5,a5
    42ac:	04912223          	sw	s1,68(sp)
    42b0:	04112623          	sw	ra,76(sp)
    42b4:	01179713          	slli	a4,a5,0x11
    42b8:	00050493          	mv	s1,a0
    42bc:	00058413          	mv	s0,a1
    42c0:	00071663          	bnez	a4,42cc <ecmp+0x30>
    42c4:	e31ff0ef          	jal	ra,40f4 <eisnan.part.0>
    42c8:	08051263          	bnez	a0,434c <ecmp+0xb0>
    42cc:	01245783          	lhu	a5,18(s0)
    42d0:	fff7c793          	not	a5,a5
    42d4:	01179713          	slli	a4,a5,0x11
    42d8:	06070463          	beqz	a4,4340 <ecmp+0xa4>
    42dc:	00810593          	addi	a1,sp,8
    42e0:	00048513          	mv	a0,s1
    42e4:	ec1ff0ef          	jal	ra,41a4 <emovi>
    42e8:	02410593          	addi	a1,sp,36
    42ec:	00040513          	mv	a0,s0
    42f0:	eb5ff0ef          	jal	ra,41a4 <emovi>
    42f4:	00815583          	lhu	a1,8(sp)
    42f8:	02415503          	lhu	a0,36(sp)
    42fc:	04b50c63          	beq	a0,a1,4354 <ecmp+0xb8>
    4300:	00a10793          	addi	a5,sp,10
    4304:	02610713          	addi	a4,sp,38
    4308:	02010613          	addi	a2,sp,32
    430c:	0007d683          	lhu	a3,0(a5)
    4310:	00278793          	addi	a5,a5,2
    4314:	08069863          	bnez	a3,43a4 <ecmp+0x108>
    4318:	00075683          	lhu	a3,0(a4)
    431c:	00270713          	addi	a4,a4,2
    4320:	08069263          	bnez	a3,43a4 <ecmp+0x108>
    4324:	fec794e3          	bne	a5,a2,430c <ecmp+0x70>
    4328:	00000513          	li	a0,0
    432c:	04c12083          	lw	ra,76(sp)
    4330:	04812403          	lw	s0,72(sp)
    4334:	04412483          	lw	s1,68(sp)
    4338:	05010113          	addi	sp,sp,80
    433c:	00008067          	ret
    4340:	00040513          	mv	a0,s0
    4344:	db1ff0ef          	jal	ra,40f4 <eisnan.part.0>
    4348:	f8050ae3          	beqz	a0,42dc <ecmp+0x40>
    434c:	ffe00513          	li	a0,-2
    4350:	fddff06f          	j	432c <ecmp+0x90>
    4354:	00a15603          	lhu	a2,10(sp)
    4358:	02615683          	lhu	a3,38(sp)
    435c:	00153513          	seqz	a0,a0
    4360:	00a10713          	addi	a4,sp,10
    4364:	02610793          	addi	a5,sp,38
    4368:	00151513          	slli	a0,a0,0x1
    436c:	fff50513          	addi	a0,a0,-1
    4370:	03c10593          	addi	a1,sp,60
    4374:	00278793          	addi	a5,a5,2
    4378:	00270713          	addi	a4,a4,2
    437c:	00d61e63          	bne	a2,a3,4398 <ecmp+0xfc>
    4380:	fab784e3          	beq	a5,a1,4328 <ecmp+0x8c>
    4384:	00075603          	lhu	a2,0(a4)
    4388:	0007d683          	lhu	a3,0(a5)
    438c:	00270713          	addi	a4,a4,2
    4390:	00278793          	addi	a5,a5,2
    4394:	fed606e3          	beq	a2,a3,4380 <ecmp+0xe4>
    4398:	f8c6eae3          	bltu	a3,a2,432c <ecmp+0x90>
    439c:	40a00533          	neg	a0,a0
    43a0:	f8dff06f          	j	432c <ecmp+0x90>
    43a4:	00100513          	li	a0,1
    43a8:	f80582e3          	beqz	a1,432c <ecmp+0x90>
    43ac:	fff00513          	li	a0,-1
    43b0:	f7dff06f          	j	432c <ecmp+0x90>

000043b4 <eisinf.part.0>:
    43b4:	ff010113          	addi	sp,sp,-16
    43b8:	00112623          	sw	ra,12(sp)
    43bc:	d39ff0ef          	jal	ra,40f4 <eisnan.part.0>
    43c0:	00c12083          	lw	ra,12(sp)
    43c4:	00153513          	seqz	a0,a0
    43c8:	01010113          	addi	sp,sp,16
    43cc:	00008067          	ret

000043d0 <eshift.part.0>:
    43d0:	fe010113          	addi	sp,sp,-32
    43d4:	00812c23          	sw	s0,24(sp)
    43d8:	00912a23          	sw	s1,20(sp)
    43dc:	00112e23          	sw	ra,28(sp)
    43e0:	01212823          	sw	s2,16(sp)
    43e4:	01312623          	sw	s3,12(sp)
    43e8:	00058493          	mv	s1,a1
    43ec:	00050413          	mv	s0,a0
    43f0:	0a05c463          	bltz	a1,4498 <eshift.part.0+0xc8>
    43f4:	00f00793          	li	a5,15
    43f8:	00058613          	mv	a2,a1
    43fc:	00450513          	addi	a0,a0,4
    4400:	01840693          	addi	a3,s0,24
    4404:	00f00593          	li	a1,15
    4408:	0297d463          	bge	a5,s1,4430 <eshift.part.0+0x60>
    440c:	00050793          	mv	a5,a0
    4410:	0027d703          	lhu	a4,2(a5)
    4414:	00278793          	addi	a5,a5,2
    4418:	fee79f23          	sh	a4,-2(a5)
    441c:	fed79ae3          	bne	a5,a3,4410 <eshift.part.0+0x40>
    4420:	00041c23          	sh	zero,24(s0)
    4424:	ff060613          	addi	a2,a2,-16
    4428:	fec5c2e3          	blt	a1,a2,440c <eshift.part.0+0x3c>
    442c:	00f4f493          	andi	s1,s1,15
    4430:	00700793          	li	a5,7
    4434:	0297d863          	bge	a5,s1,4464 <eshift.part.0+0x94>
    4438:	01840713          	addi	a4,s0,24
    443c:	00240593          	addi	a1,s0,2
    4440:	00000793          	li	a5,0
    4444:	00075683          	lhu	a3,0(a4)
    4448:	ffe70713          	addi	a4,a4,-2
    444c:	00869613          	slli	a2,a3,0x8
    4450:	00c7e7b3          	or	a5,a5,a2
    4454:	00f71123          	sh	a5,2(a4)
    4458:	0086d793          	srli	a5,a3,0x8
    445c:	feb714e3          	bne	a4,a1,4444 <eshift.part.0+0x74>
    4460:	ff848493          	addi	s1,s1,-8
    4464:	00048a63          	beqz	s1,4478 <eshift.part.0+0xa8>
    4468:	fff48493          	addi	s1,s1,-1
    446c:	00040513          	mv	a0,s0
    4470:	b7dff0ef          	jal	ra,3fec <eshup1>
    4474:	fe049ae3          	bnez	s1,4468 <eshift.part.0+0x98>
    4478:	00000513          	li	a0,0
    447c:	01c12083          	lw	ra,28(sp)
    4480:	01812403          	lw	s0,24(sp)
    4484:	01412483          	lw	s1,20(sp)
    4488:	01012903          	lw	s2,16(sp)
    448c:	00c12983          	lw	s3,12(sp)
    4490:	02010113          	addi	sp,sp,32
    4494:	00008067          	ret
    4498:	ff100793          	li	a5,-15
    449c:	40b00933          	neg	s2,a1
    44a0:	12f5dc63          	bge	a1,a5,45d8 <eshift.part.0+0x208>
    44a4:	01850593          	addi	a1,a0,24
    44a8:	00000993          	li	s3,0
    44ac:	00450693          	addi	a3,a0,4
    44b0:	00f00613          	li	a2,15
    44b4:	01845703          	lhu	a4,24(s0)
    44b8:	00058793          	mv	a5,a1
    44bc:	00e9e9b3          	or	s3,s3,a4
    44c0:	ffe7d703          	lhu	a4,-2(a5)
    44c4:	ffe78793          	addi	a5,a5,-2
    44c8:	00e79123          	sh	a4,2(a5)
    44cc:	fed79ae3          	bne	a5,a3,44c0 <eshift.part.0+0xf0>
    44d0:	00041223          	sh	zero,4(s0)
    44d4:	ff090913          	addi	s2,s2,-16
    44d8:	fd264ee3          	blt	a2,s2,44b4 <eshift.part.0+0xe4>
    44dc:	ff000913          	li	s2,-16
    44e0:	ff100713          	li	a4,-15
    44e4:	40990933          	sub	s2,s2,s1
    44e8:	00000793          	li	a5,0
    44ec:	0ae4c463          	blt	s1,a4,4594 <eshift.part.0+0x1c4>
    44f0:	00f90933          	add	s2,s2,a5
    44f4:	00700793          	li	a5,7
    44f8:	0527d663          	bge	a5,s2,4544 <eshift.part.0+0x174>
    44fc:	01099993          	slli	s3,s3,0x10
    4500:	4109d993          	srai	s3,s3,0x10
    4504:	01844783          	lbu	a5,24(s0)
    4508:	01a40593          	addi	a1,s0,26
    450c:	00f9e9b3          	or	s3,s3,a5
    4510:	01099993          	slli	s3,s3,0x10
    4514:	0109d993          	srli	s3,s3,0x10
    4518:	00000793          	li	a5,0
    451c:	0006d603          	lhu	a2,0(a3)
    4520:	00268693          	addi	a3,a3,2
    4524:	00865713          	srli	a4,a2,0x8
    4528:	00e7e733          	or	a4,a5,a4
    452c:	00861793          	slli	a5,a2,0x8
    4530:	01079793          	slli	a5,a5,0x10
    4534:	fee69f23          	sh	a4,-2(a3)
    4538:	0107d793          	srli	a5,a5,0x10
    453c:	feb690e3          	bne	a3,a1,451c <eshift.part.0+0x14c>
    4540:	ff890913          	addi	s2,s2,-8
    4544:	06090c63          	beqz	s2,45bc <eshift.part.0+0x1ec>
    4548:	01845783          	lhu	a5,24(s0)
    454c:	fff90913          	addi	s2,s2,-1
    4550:	00040513          	mv	a0,s0
    4554:	0017f793          	andi	a5,a5,1
    4558:	0137e9b3          	or	s3,a5,s3
    455c:	a29ff0ef          	jal	ra,3f84 <eshdn1>
    4560:	fe0914e3          	bnez	s2,4548 <eshift.part.0+0x178>
    4564:	01099793          	slli	a5,s3,0x10
    4568:	4107d793          	srai	a5,a5,0x10
    456c:	04079063          	bnez	a5,45ac <eshift.part.0+0x1dc>
    4570:	01099513          	slli	a0,s3,0x10
    4574:	01055513          	srli	a0,a0,0x10
    4578:	01c12083          	lw	ra,28(sp)
    457c:	01812403          	lw	s0,24(sp)
    4580:	01412483          	lw	s1,20(sp)
    4584:	01012903          	lw	s2,16(sp)
    4588:	00c12983          	lw	s3,12(sp)
    458c:	02010113          	addi	sp,sp,32
    4590:	00008067          	ret
    4594:	ff097793          	andi	a5,s2,-16
    4598:	40f007b3          	neg	a5,a5
    459c:	00f90933          	add	s2,s2,a5
    45a0:	00700793          	li	a5,7
    45a4:	fb27d0e3          	bge	a5,s2,4544 <eshift.part.0+0x174>
    45a8:	f55ff06f          	j	44fc <eshift.part.0+0x12c>
    45ac:	00100993          	li	s3,1
    45b0:	01099513          	slli	a0,s3,0x10
    45b4:	01055513          	srli	a0,a0,0x10
    45b8:	fc1ff06f          	j	4578 <eshift.part.0+0x1a8>
    45bc:	00098513          	mv	a0,s3
    45c0:	00099863          	bnez	s3,45d0 <eshift.part.0+0x200>
    45c4:	01051513          	slli	a0,a0,0x10
    45c8:	01055513          	srli	a0,a0,0x10
    45cc:	eb1ff06f          	j	447c <eshift.part.0+0xac>
    45d0:	00100513          	li	a0,1
    45d4:	ff1ff06f          	j	45c4 <eshift.part.0+0x1f4>
    45d8:	ff900793          	li	a5,-7
    45dc:	00000993          	li	s3,0
    45e0:	f6f5d4e3          	bge	a1,a5,4548 <eshift.part.0+0x178>
    45e4:	00440693          	addi	a3,s0,4
    45e8:	f1dff06f          	j	4504 <eshift.part.0+0x134>

000045ec <enormlz>:
    45ec:	00455783          	lhu	a5,4(a0)
    45f0:	ff010113          	addi	sp,sp,-16
    45f4:	00912223          	sw	s1,4(sp)
    45f8:	00112623          	sw	ra,12(sp)
    45fc:	00812423          	sw	s0,8(sp)
    4600:	01212023          	sw	s2,0(sp)
    4604:	00050493          	mv	s1,a0
    4608:	0c079c63          	bnez	a5,46e0 <enormlz+0xf4>
    460c:	00655703          	lhu	a4,6(a0)
    4610:	00000413          	li	s0,0
    4614:	01071793          	slli	a5,a4,0x10
    4618:	4107d793          	srai	a5,a5,0x10
    461c:	0a07c463          	bltz	a5,46c4 <enormlz+0xd8>
    4620:	01a50693          	addi	a3,a0,26
    4624:	0a000613          	li	a2,160
    4628:	02071863          	bnez	a4,4658 <enormlz+0x6c>
    462c:	00648793          	addi	a5,s1,6
    4630:	0080006f          	j	4638 <enormlz+0x4c>
    4634:	0007d703          	lhu	a4,0(a5)
    4638:	00278793          	addi	a5,a5,2
    463c:	fee79e23          	sh	a4,-4(a5)
    4640:	fef69ae3          	bne	a3,a5,4634 <enormlz+0x48>
    4644:	00049c23          	sh	zero,24(s1)
    4648:	01040413          	addi	s0,s0,16
    464c:	06c40c63          	beq	s0,a2,46c4 <enormlz+0xd8>
    4650:	0064d703          	lhu	a4,6(s1)
    4654:	fc070ce3          	beqz	a4,462c <enormlz+0x40>
    4658:	f0077793          	andi	a5,a4,-256
    465c:	04079063          	bnez	a5,469c <enormlz+0xb0>
    4660:	01848513          	addi	a0,s1,24
    4664:	00248593          	addi	a1,s1,2
    4668:	00000793          	li	a5,0
    466c:	00050713          	mv	a4,a0
    4670:	00075683          	lhu	a3,0(a4)
    4674:	ffe70713          	addi	a4,a4,-2
    4678:	00869613          	slli	a2,a3,0x8
    467c:	00c7e7b3          	or	a5,a5,a2
    4680:	00f71123          	sh	a5,2(a4)
    4684:	0086d793          	srli	a5,a3,0x8
    4688:	fee594e3          	bne	a1,a4,4670 <enormlz+0x84>
    468c:	0064d703          	lhu	a4,6(s1)
    4690:	00840413          	addi	s0,s0,8
    4694:	f0077793          	andi	a5,a4,-256
    4698:	fc0788e3          	beqz	a5,4668 <enormlz+0x7c>
    469c:	0a000913          	li	s2,160
    46a0:	0140006f          	j	46b4 <enormlz+0xc8>
    46a4:	00140413          	addi	s0,s0,1
    46a8:	945ff0ef          	jal	ra,3fec <eshup1>
    46ac:	00894c63          	blt	s2,s0,46c4 <enormlz+0xd8>
    46b0:	0064d703          	lhu	a4,6(s1)
    46b4:	01071713          	slli	a4,a4,0x10
    46b8:	41075713          	srai	a4,a4,0x10
    46bc:	00048513          	mv	a0,s1
    46c0:	fe0752e3          	bgez	a4,46a4 <enormlz+0xb8>
    46c4:	00c12083          	lw	ra,12(sp)
    46c8:	00040513          	mv	a0,s0
    46cc:	00812403          	lw	s0,8(sp)
    46d0:	00412483          	lw	s1,4(sp)
    46d4:	00012903          	lw	s2,0(sp)
    46d8:	01010113          	addi	sp,sp,16
    46dc:	00008067          	ret
    46e0:	f007f713          	andi	a4,a5,-256
    46e4:	00000413          	li	s0,0
    46e8:	04071063          	bnez	a4,4728 <enormlz+0x13c>
    46ec:	f6f00913          	li	s2,-145
    46f0:	0140006f          	j	4704 <enormlz+0x118>
    46f4:	fff40413          	addi	s0,s0,-1
    46f8:	88dff0ef          	jal	ra,3f84 <eshdn1>
    46fc:	fd2404e3          	beq	s0,s2,46c4 <enormlz+0xd8>
    4700:	0044d783          	lhu	a5,4(s1)
    4704:	00048513          	mv	a0,s1
    4708:	fe0796e3          	bnez	a5,46f4 <enormlz+0x108>
    470c:	00c12083          	lw	ra,12(sp)
    4710:	00040513          	mv	a0,s0
    4714:	00812403          	lw	s0,8(sp)
    4718:	00412483          	lw	s1,4(sp)
    471c:	00012903          	lw	s2,0(sp)
    4720:	01010113          	addi	sp,sp,16
    4724:	00008067          	ret
    4728:	00450693          	addi	a3,a0,4
    472c:	01a50593          	addi	a1,a0,26
    4730:	00000713          	li	a4,0
    4734:	0080006f          	j	473c <enormlz+0x150>
    4738:	0006d783          	lhu	a5,0(a3)
    473c:	0087d613          	srli	a2,a5,0x8
    4740:	00c76733          	or	a4,a4,a2
    4744:	00879793          	slli	a5,a5,0x8
    4748:	00e69023          	sh	a4,0(a3)
    474c:	01079713          	slli	a4,a5,0x10
    4750:	00268693          	addi	a3,a3,2
    4754:	01075713          	srli	a4,a4,0x10
    4758:	feb690e3          	bne	a3,a1,4738 <enormlz+0x14c>
    475c:	0044d783          	lhu	a5,4(s1)
    4760:	ff800413          	li	s0,-8
    4764:	f89ff06f          	j	46ec <enormlz+0x100>

00004768 <emdnorm>:
    4768:	fe010113          	addi	sp,sp,-32
    476c:	00812c23          	sw	s0,24(sp)
    4770:	00912a23          	sw	s1,20(sp)
    4774:	01212823          	sw	s2,16(sp)
    4778:	01312623          	sw	s3,12(sp)
    477c:	01412423          	sw	s4,8(sp)
    4780:	01512223          	sw	s5,4(sp)
    4784:	00068913          	mv	s2,a3
    4788:	00078493          	mv	s1,a5
    478c:	00112e23          	sw	ra,28(sp)
    4790:	00050413          	mv	s0,a0
    4794:	00058993          	mv	s3,a1
    4798:	00060a13          	mv	s4,a2
    479c:	00070a93          	mv	s5,a4
    47a0:	e4dff0ef          	jal	ra,45ec <enormlz>
    47a4:	09000793          	li	a5,144
    47a8:	40a90933          	sub	s2,s2,a0
    47ac:	16a7dc63          	bge	a5,a0,4924 <emdnorm+0x1bc>
    47b0:	000087b7          	lui	a5,0x8
    47b4:	ffe78793          	addi	a5,a5,-2 # 7ffe <__mcmp+0xa>
    47b8:	1f27da63          	bge	a5,s2,49ac <emdnorm+0x244>
    47bc:	1c0a8463          	beqz	s5,4984 <emdnorm+0x21c>
    47c0:	0044a503          	lw	a0,4(s1)
    47c4:	0004a783          	lw	a5,0(s1)
    47c8:	06f50a63          	beq	a0,a5,483c <emdnorm+0xd4>
    47cc:	01a48713          	addi	a4,s1,26
    47d0:	03448793          	addi	a5,s1,52
    47d4:	00270713          	addi	a4,a4,2
    47d8:	fe071f23          	sh	zero,-2(a4)
    47dc:	fef71ce3          	bne	a4,a5,47d4 <emdnorm+0x6c>
    47e0:	03800793          	li	a5,56
    47e4:	32f50c63          	beq	a0,a5,4b1c <emdnorm+0x3b4>
    47e8:	16a7d063          	bge	a5,a0,4948 <emdnorm+0x1e0>
    47ec:	04000793          	li	a5,64
    47f0:	2ef50c63          	beq	a0,a5,4ae8 <emdnorm+0x380>
    47f4:	07100793          	li	a5,113
    47f8:	34f51863          	bne	a0,a5,4b48 <emdnorm+0x3e0>
    47fc:	400087b7          	lui	a5,0x40008
    4800:	fff78793          	addi	a5,a5,-1 # 40007fff <//.+0x3fff2087>
    4804:	00a00713          	li	a4,10
    4808:	00f4aa23          	sw	a5,20(s1)
    480c:	ffff87b7          	lui	a5,0xffff8
    4810:	00e4a423          	sw	a4,8(s1)
    4814:	00f49c23          	sh	a5,24(s1)
    4818:	00e4a623          	sw	a4,12(s1)
    481c:	00a00793          	li	a5,10
    4820:	00008737          	lui	a4,0x8
    4824:	00878793          	addi	a5,a5,8 # ffff8008 <//.+0xfffe2090>
    4828:	00179793          	slli	a5,a5,0x1
    482c:	00f487b3          	add	a5,s1,a5
    4830:	00e79523          	sh	a4,10(a5)
    4834:	00a4a023          	sw	a0,0(s1)
    4838:	1b205863          	blez	s2,49e8 <emdnorm+0x280>
    483c:	0084a583          	lw	a1,8(s1)
    4840:	0144d783          	lhu	a5,20(s1)
    4844:	08f00813          	li	a6,143
    4848:	00159613          	slli	a2,a1,0x1
    484c:	00c40633          	add	a2,s0,a2
    4850:	00065703          	lhu	a4,0(a2)
    4854:	00f776b3          	and	a3,a4,a5
    4858:	02a84a63          	blt	a6,a0,488c <emdnorm+0x124>
    485c:	00b00813          	li	a6,11
    4860:	02b84663          	blt	a6,a1,488c <emdnorm+0x124>
    4864:	00060793          	mv	a5,a2
    4868:	01840593          	addi	a1,s0,24
    486c:	0027d703          	lhu	a4,2(a5)
    4870:	00070463          	beqz	a4,4878 <emdnorm+0x110>
    4874:	0016e693          	ori	a3,a3,1
    4878:	00079123          	sh	zero,2(a5)
    487c:	00278793          	addi	a5,a5,2
    4880:	fef596e3          	bne	a1,a5,486c <emdnorm+0x104>
    4884:	00065703          	lhu	a4,0(a2)
    4888:	0144d783          	lhu	a5,20(s1)
    488c:	fff7c793          	not	a5,a5
    4890:	00e7f7b3          	and	a5,a5,a4
    4894:	00f61023          	sh	a5,0(a2)
    4898:	0164d783          	lhu	a5,22(s1)
    489c:	00d7f733          	and	a4,a5,a3
    48a0:	04070063          	beqz	a4,48e0 <emdnorm+0x178>
    48a4:	1ad78463          	beq	a5,a3,4a4c <emdnorm+0x2e4>
    48a8:	03248613          	addi	a2,s1,50
    48ac:	01840693          	addi	a3,s0,24
    48b0:	01c48493          	addi	s1,s1,28
    48b4:	00000713          	li	a4,0
    48b8:	00065783          	lhu	a5,0(a2)
    48bc:	0006d583          	lhu	a1,0(a3)
    48c0:	ffe68693          	addi	a3,a3,-2
    48c4:	ffe60613          	addi	a2,a2,-2
    48c8:	00b787b3          	add	a5,a5,a1
    48cc:	00e787b3          	add	a5,a5,a4
    48d0:	0107d713          	srli	a4,a5,0x10
    48d4:	00f69123          	sh	a5,2(a3)
    48d8:	00177713          	andi	a4,a4,1
    48dc:	fc961ee3          	bne	a2,s1,48b8 <emdnorm+0x150>
    48e0:	19205863          	blez	s2,4a70 <emdnorm+0x308>
    48e4:	00445783          	lhu	a5,4(s0)
    48e8:	12079e63          	bnez	a5,4a24 <emdnorm+0x2bc>
    48ec:	000087b7          	lui	a5,0x8
    48f0:	00041c23          	sh	zero,24(s0)
    48f4:	ffe78793          	addi	a5,a5,-2 # 7ffe <__mcmp+0xa>
    48f8:	0927c863          	blt	a5,s2,4988 <emdnorm+0x220>
    48fc:	01241123          	sh	s2,2(s0)
    4900:	01c12083          	lw	ra,28(sp)
    4904:	01812403          	lw	s0,24(sp)
    4908:	01412483          	lw	s1,20(sp)
    490c:	01012903          	lw	s2,16(sp)
    4910:	00c12983          	lw	s3,12(sp)
    4914:	00812a03          	lw	s4,8(sp)
    4918:	00412a83          	lw	s5,4(sp)
    491c:	02010113          	addi	sp,sp,32
    4920:	00008067          	ret
    4924:	0e095463          	bgez	s2,4a0c <emdnorm+0x2a4>
    4928:	f7000793          	li	a5,-144
    492c:	08f95c63          	bge	s2,a5,49c4 <emdnorm+0x25c>
    4930:	00240793          	addi	a5,s0,2
    4934:	01a40413          	addi	s0,s0,26
    4938:	00278793          	addi	a5,a5,2
    493c:	fe079f23          	sh	zero,-2(a5)
    4940:	fe879ce3          	bne	a5,s0,4938 <emdnorm+0x1d0>
    4944:	fbdff06f          	j	4900 <emdnorm+0x198>
    4948:	01800793          	li	a5,24
    494c:	16f50863          	beq	a0,a5,4abc <emdnorm+0x354>
    4950:	03500793          	li	a5,53
    4954:	1ef51a63          	bne	a0,a5,4b48 <emdnorm+0x3e0>
    4958:	00001737          	lui	a4,0x1
    495c:	040007b7          	lui	a5,0x4000
    4960:	00600693          	li	a3,6
    4964:	7ff78793          	addi	a5,a5,2047 # 40007ff <//.+0x3fea887>
    4968:	80070713          	addi	a4,a4,-2048 # 800 <_vfprintf_r+0x1c4>
    496c:	00f4aa23          	sw	a5,20(s1)
    4970:	00d4a423          	sw	a3,8(s1)
    4974:	00e49c23          	sh	a4,24(s1)
    4978:	00d4a623          	sw	a3,12(s1)
    497c:	00600793          	li	a5,6
    4980:	ea5ff06f          	j	4824 <emdnorm+0xbc>
    4984:	00041c23          	sh	zero,24(s0)
    4988:	ffff87b7          	lui	a5,0xffff8
    498c:	fff7c793          	not	a5,a5
    4990:	00f41123          	sh	a5,2(s0)
    4994:	00440793          	addi	a5,s0,4
    4998:	01840413          	addi	s0,s0,24
    499c:	00079023          	sh	zero,0(a5) # ffff8000 <//.+0xfffe2088>
    49a0:	00278793          	addi	a5,a5,2
    49a4:	fef41ce3          	bne	s0,a5,499c <emdnorm+0x234>
    49a8:	f59ff06f          	j	4900 <emdnorm+0x198>
    49ac:	00240793          	addi	a5,s0,2
    49b0:	01a40413          	addi	s0,s0,26
    49b4:	00278793          	addi	a5,a5,2
    49b8:	fe079f23          	sh	zero,-2(a5)
    49bc:	fe879ce3          	bne	a5,s0,49b4 <emdnorm+0x24c>
    49c0:	f41ff06f          	j	4900 <emdnorm+0x198>
    49c4:	00090593          	mv	a1,s2
    49c8:	00040513          	mv	a0,s0
    49cc:	a05ff0ef          	jal	ra,43d0 <eshift.part.0>
    49d0:	00050463          	beqz	a0,49d8 <emdnorm+0x270>
    49d4:	00100993          	li	s3,1
    49d8:	0c0a8c63          	beqz	s5,4ab0 <emdnorm+0x348>
    49dc:	0044a503          	lw	a0,4(s1)
    49e0:	0004a783          	lw	a5,0(s1)
    49e4:	def514e3          	bne	a0,a5,47cc <emdnorm+0x64>
    49e8:	09000793          	li	a5,144
    49ec:	0af50463          	beq	a0,a5,4a94 <emdnorm+0x32c>
    49f0:	01845783          	lhu	a5,24(s0)
    49f4:	00040513          	mv	a0,s0
    49f8:	0017f793          	andi	a5,a5,1
    49fc:	00f9e9b3          	or	s3,s3,a5
    4a00:	d84ff0ef          	jal	ra,3f84 <eshdn1>
    4a04:	0044a503          	lw	a0,4(s1)
    4a08:	e35ff06f          	j	483c <emdnorm+0xd4>
    4a0c:	ee0a80e3          	beqz	s5,48ec <emdnorm+0x184>
    4a10:	0044a503          	lw	a0,4(s1)
    4a14:	0004a783          	lw	a5,0(s1)
    4a18:	daf51ae3          	bne	a0,a5,47cc <emdnorm+0x64>
    4a1c:	e32040e3          	bgtz	s2,483c <emdnorm+0xd4>
    4a20:	fc9ff06f          	j	49e8 <emdnorm+0x280>
    4a24:	00040513          	mv	a0,s0
    4a28:	d5cff0ef          	jal	ra,3f84 <eshdn1>
    4a2c:	000087b7          	lui	a5,0x8
    4a30:	00190913          	addi	s2,s2,1
    4a34:	00041c23          	sh	zero,24(s0)
    4a38:	ffe78793          	addi	a5,a5,-2 # 7ffe <__mcmp+0xa>
    4a3c:	f527c6e3          	blt	a5,s2,4988 <emdnorm+0x220>
    4a40:	ea095ee3          	bgez	s2,48fc <emdnorm+0x194>
    4a44:	00041123          	sh	zero,2(s0)
    4a48:	eb9ff06f          	j	4900 <emdnorm+0x198>
    4a4c:	0c099463          	bnez	s3,4b14 <emdnorm+0x3ac>
    4a50:	00c4a783          	lw	a5,12(s1)
    4a54:	0184d703          	lhu	a4,24(s1)
    4a58:	00179793          	slli	a5,a5,0x1
    4a5c:	00f407b3          	add	a5,s0,a5
    4a60:	0007d783          	lhu	a5,0(a5)
    4a64:	00e7f7b3          	and	a5,a5,a4
    4a68:	e40790e3          	bnez	a5,48a8 <emdnorm+0x140>
    4a6c:	e7204ce3          	bgtz	s2,48e4 <emdnorm+0x17c>
    4a70:	09000793          	li	a5,144
    4a74:	00f50663          	beq	a0,a5,4a80 <emdnorm+0x318>
    4a78:	00040513          	mv	a0,s0
    4a7c:	d70ff0ef          	jal	ra,3fec <eshup1>
    4a80:	00445783          	lhu	a5,4(s0)
    4a84:	fa0790e3          	bnez	a5,4a24 <emdnorm+0x2bc>
    4a88:	00041c23          	sh	zero,24(s0)
    4a8c:	fa094ce3          	bltz	s2,4a44 <emdnorm+0x2dc>
    4a90:	e6dff06f          	j	48fc <emdnorm+0x194>
    4a94:	0084a603          	lw	a2,8(s1)
    4a98:	0144d783          	lhu	a5,20(s1)
    4a9c:	00161613          	slli	a2,a2,0x1
    4aa0:	00c40633          	add	a2,s0,a2
    4aa4:	00065703          	lhu	a4,0(a2)
    4aa8:	00e7f6b3          	and	a3,a5,a4
    4aac:	de1ff06f          	j	488c <emdnorm+0x124>
    4ab0:	00041c23          	sh	zero,24(s0)
    4ab4:	00041123          	sh	zero,2(s0)
    4ab8:	e49ff06f          	j	4900 <emdnorm+0x198>
    4abc:	008007b7          	lui	a5,0x800
    4ac0:	0ff78793          	addi	a5,a5,255 # 8000ff <//.+0x7ea187>
    4ac4:	00400713          	li	a4,4
    4ac8:	00f4aa23          	sw	a5,20(s1)
    4acc:	10000793          	li	a5,256
    4ad0:	00e4a423          	sw	a4,8(s1)
    4ad4:	00f49c23          	sh	a5,24(s1)
    4ad8:	00e4a623          	sw	a4,12(s1)
    4adc:	00400793          	li	a5,4
    4ae0:	10000713          	li	a4,256
    4ae4:	d41ff06f          	j	4824 <emdnorm+0xbc>
    4ae8:	00700793          	li	a5,7
    4aec:	00f4a423          	sw	a5,8(s1)
    4af0:	800107b7          	lui	a5,0x80010
    4af4:	fff78793          	addi	a5,a5,-1 # 8000ffff <//.+0x7fffa087>
    4af8:	00f4aa23          	sw	a5,20(s1)
    4afc:	00100793          	li	a5,1
    4b00:	00f49c23          	sh	a5,24(s1)
    4b04:	00600793          	li	a5,6
    4b08:	00f4a623          	sw	a5,12(s1)
    4b0c:	00100713          	li	a4,1
    4b10:	d15ff06f          	j	4824 <emdnorm+0xbc>
    4b14:	d80a0ae3          	beqz	s4,48a8 <emdnorm+0x140>
    4b18:	dc9ff06f          	j	48e0 <emdnorm+0x178>
    4b1c:	008007b7          	lui	a5,0x800
    4b20:	0ff78793          	addi	a5,a5,255 # 8000ff <//.+0x7ea187>
    4b24:	00600713          	li	a4,6
    4b28:	00f4aa23          	sw	a5,20(s1)
    4b2c:	10000793          	li	a5,256
    4b30:	00e4a423          	sw	a4,8(s1)
    4b34:	00f49c23          	sh	a5,24(s1)
    4b38:	00e4a623          	sw	a4,12(s1)
    4b3c:	00600793          	li	a5,6
    4b40:	10000713          	li	a4,256
    4b44:	ce1ff06f          	j	4824 <emdnorm+0xbc>
    4b48:	00c00793          	li	a5,12
    4b4c:	00f4a423          	sw	a5,8(s1)
    4b50:	800107b7          	lui	a5,0x80010
    4b54:	fff78793          	addi	a5,a5,-1 # 8000ffff <//.+0x7fffa087>
    4b58:	00f4aa23          	sw	a5,20(s1)
    4b5c:	00100793          	li	a5,1
    4b60:	00f49c23          	sh	a5,24(s1)
    4b64:	00b00793          	li	a5,11
    4b68:	00f4a623          	sw	a5,12(s1)
    4b6c:	00100713          	li	a4,1
    4b70:	cb5ff06f          	j	4824 <emdnorm+0xbc>

00004b74 <eiremain>:
    4b74:	fd010113          	addi	sp,sp,-48
    4b78:	02912223          	sw	s1,36(sp)
    4b7c:	01312e23          	sw	s3,28(sp)
    4b80:	00058493          	mv	s1,a1
    4b84:	00255983          	lhu	s3,2(a0)
    4b88:	02112623          	sw	ra,44(sp)
    4b8c:	02812423          	sw	s0,40(sp)
    4b90:	03212023          	sw	s2,32(sp)
    4b94:	01412c23          	sw	s4,24(sp)
    4b98:	00060913          	mv	s2,a2
    4b9c:	01512a23          	sw	s5,20(sp)
    4ba0:	01612823          	sw	s6,16(sp)
    4ba4:	01712623          	sw	s7,12(sp)
    4ba8:	01812423          	sw	s8,8(sp)
    4bac:	01912223          	sw	s9,4(sp)
    4bb0:	01a12023          	sw	s10,0(sp)
    4bb4:	00050a13          	mv	s4,a0
    4bb8:	a35ff0ef          	jal	ra,45ec <enormlz>
    4bbc:	0024d403          	lhu	s0,2(s1)
    4bc0:	00050793          	mv	a5,a0
    4bc4:	00048513          	mv	a0,s1
    4bc8:	40f989b3          	sub	s3,s3,a5
    4bcc:	03490a93          	addi	s5,s2,52
    4bd0:	a1dff0ef          	jal	ra,45ec <enormlz>
    4bd4:	40a40433          	sub	s0,s0,a0
    4bd8:	04e90713          	addi	a4,s2,78
    4bdc:	000a8793          	mv	a5,s5
    4be0:	00278793          	addi	a5,a5,2
    4be4:	fe079f23          	sh	zero,-2(a5)
    4be8:	fee79ce3          	bne	a5,a4,4be0 <eiremain+0x6c>
    4bec:	09344a63          	blt	s0,s3,4c80 <eiremain+0x10c>
    4bf0:	004a0b93          	addi	s7,s4,4
    4bf4:	00448b13          	addi	s6,s1,4
    4bf8:	fff98993          	addi	s3,s3,-1
    4bfc:	01aa0c93          	addi	s9,s4,26
    4c00:	00248c13          	addi	s8,s1,2
    4c04:	000b0713          	mv	a4,s6
    4c08:	000b8793          	mv	a5,s7
    4c0c:	0007d603          	lhu	a2,0(a5)
    4c10:	00075683          	lhu	a3,0(a4)
    4c14:	00278793          	addi	a5,a5,2
    4c18:	00270713          	addi	a4,a4,2
    4c1c:	0ad61a63          	bne	a2,a3,4cd0 <eiremain+0x15c>
    4c20:	ff9796e3          	bne	a5,s9,4c0c <eiremain+0x98>
    4c24:	018a0613          	addi	a2,s4,24
    4c28:	01848713          	addi	a4,s1,24
    4c2c:	00000693          	li	a3,0
    4c30:	00075783          	lhu	a5,0(a4)
    4c34:	00065583          	lhu	a1,0(a2)
    4c38:	ffe70713          	addi	a4,a4,-2
    4c3c:	40d787b3          	sub	a5,a5,a3
    4c40:	40b787b3          	sub	a5,a5,a1
    4c44:	0107d693          	srli	a3,a5,0x10
    4c48:	00f71123          	sh	a5,2(a4)
    4c4c:	0016f693          	andi	a3,a3,1
    4c50:	ffe60613          	addi	a2,a2,-2
    4c54:	fcec1ee3          	bne	s8,a4,4c30 <eiremain+0xbc>
    4c58:	00100d13          	li	s10,1
    4c5c:	000a8513          	mv	a0,s5
    4c60:	b8cff0ef          	jal	ra,3fec <eshup1>
    4c64:	04c95783          	lhu	a5,76(s2)
    4c68:	fff40413          	addi	s0,s0,-1
    4c6c:	00048513          	mv	a0,s1
    4c70:	00fd6d33          	or	s10,s10,a5
    4c74:	05a91623          	sh	s10,76(s2)
    4c78:	b74ff0ef          	jal	ra,3fec <eshup1>
    4c7c:	f93414e3          	bne	s0,s3,4c04 <eiremain+0x90>
    4c80:	00040693          	mv	a3,s0
    4c84:	02812403          	lw	s0,40(sp)
    4c88:	02c12083          	lw	ra,44(sp)
    4c8c:	01c12983          	lw	s3,28(sp)
    4c90:	01812a03          	lw	s4,24(sp)
    4c94:	01412a83          	lw	s5,20(sp)
    4c98:	01012b03          	lw	s6,16(sp)
    4c9c:	00c12b83          	lw	s7,12(sp)
    4ca0:	00812c03          	lw	s8,8(sp)
    4ca4:	00412c83          	lw	s9,4(sp)
    4ca8:	00012d03          	lw	s10,0(sp)
    4cac:	00090793          	mv	a5,s2
    4cb0:	00048513          	mv	a0,s1
    4cb4:	02012903          	lw	s2,32(sp)
    4cb8:	02412483          	lw	s1,36(sp)
    4cbc:	00000713          	li	a4,0
    4cc0:	00000613          	li	a2,0
    4cc4:	00000593          	li	a1,0
    4cc8:	03010113          	addi	sp,sp,48
    4ccc:	a9dff06f          	j	4768 <emdnorm>
    4cd0:	00000d13          	li	s10,0
    4cd4:	f8c6e4e3          	bltu	a3,a2,4c5c <eiremain+0xe8>
    4cd8:	f4dff06f          	j	4c24 <eiremain+0xb0>

00004cdc <emovo.isra.0>:
    4cdc:	00055703          	lhu	a4,0(a0)
    4ce0:	00255783          	lhu	a5,2(a0)
    4ce4:	00070663          	beqz	a4,4cf0 <emovo.isra.0+0x14>
    4ce8:	00008737          	lui	a4,0x8
    4cec:	00e7e7b3          	or	a5,a5,a4
    4cf0:	00f59923          	sh	a5,18(a1)
    4cf4:	00255703          	lhu	a4,2(a0)
    4cf8:	000087b7          	lui	a5,0x8
    4cfc:	fff78793          	addi	a5,a5,-1 # 7fff <__mcmp+0xb>
    4d00:	02f70463          	beq	a4,a5,4d28 <emovo.isra.0+0x4c>
    4d04:	00650793          	addi	a5,a0,6
    4d08:	01058593          	addi	a1,a1,16
    4d0c:	01850513          	addi	a0,a0,24
    4d10:	0007d703          	lhu	a4,0(a5)
    4d14:	00278793          	addi	a5,a5,2
    4d18:	ffe58593          	addi	a1,a1,-2
    4d1c:	00e59123          	sh	a4,2(a1)
    4d20:	fea798e3          	bne	a5,a0,4d10 <emovo.isra.0+0x34>
    4d24:	00008067          	ret
    4d28:	00650793          	addi	a5,a0,6
    4d2c:	01a50513          	addi	a0,a0,26
    4d30:	0007d703          	lhu	a4,0(a5)
    4d34:	00278793          	addi	a5,a5,2
    4d38:	02071a63          	bnez	a4,4d6c <emovo.isra.0+0x90>
    4d3c:	fea79ae3          	bne	a5,a0,4d30 <emovo.isra.0+0x54>
    4d40:	01258713          	addi	a4,a1,18
    4d44:	00058793          	mv	a5,a1
    4d48:	00278793          	addi	a5,a5,2
    4d4c:	fe079f23          	sh	zero,-2(a5)
    4d50:	fef71ce3          	bne	a4,a5,4d48 <emovo.isra.0+0x6c>
    4d54:	0125d783          	lhu	a5,18(a1)
    4d58:	00008737          	lui	a4,0x8
    4d5c:	fff70713          	addi	a4,a4,-1 # 7fff <__mcmp+0xb>
    4d60:	00e7e7b3          	or	a5,a5,a4
    4d64:	00f59923          	sh	a5,18(a1)
    4d68:	00008067          	ret
    4d6c:	01058713          	addi	a4,a1,16
    4d70:	00058793          	mv	a5,a1
    4d74:	00278793          	addi	a5,a5,2
    4d78:	fe079f23          	sh	zero,-2(a5)
    4d7c:	fef71ce3          	bne	a4,a5,4d74 <emovo.isra.0+0x98>
    4d80:	ffffc7b7          	lui	a5,0xffffc
    4d84:	00f59823          	sh	a5,16(a1)
    4d88:	ffff87b7          	lui	a5,0xffff8
    4d8c:	fff7c793          	not	a5,a5
    4d90:	00f59923          	sh	a5,18(a1)
    4d94:	00008067          	ret

00004d98 <emul>:
    4d98:	f7010113          	addi	sp,sp,-144
    4d9c:	07512a23          	sw	s5,116(sp)
    4da0:	01255a83          	lhu	s5,18(a0)
    4da4:	000087b7          	lui	a5,0x8
    4da8:	fff78793          	addi	a5,a5,-1 # 7fff <__mcmp+0xb>
    4dac:	08812423          	sw	s0,136(sp)
    4db0:	08912223          	sw	s1,132(sp)
    4db4:	09212023          	sw	s2,128(sp)
    4db8:	07312e23          	sw	s3,124(sp)
    4dbc:	07612823          	sw	s6,112(sp)
    4dc0:	08112623          	sw	ra,140(sp)
    4dc4:	07412c23          	sw	s4,120(sp)
    4dc8:	07712623          	sw	s7,108(sp)
    4dcc:	07812423          	sw	s8,104(sp)
    4dd0:	07912223          	sw	s9,100(sp)
    4dd4:	0157fb33          	and	s6,a5,s5
    4dd8:	00050493          	mv	s1,a0
    4ddc:	00058913          	mv	s2,a1
    4de0:	00060413          	mv	s0,a2
    4de4:	00068993          	mv	s3,a3
    4de8:	10fb1263          	bne	s6,a5,4eec <emul+0x154>
    4dec:	b08ff0ef          	jal	ra,40f4 <eisnan.part.0>
    4df0:	28051663          	bnez	a0,507c <emul+0x2e4>
    4df4:	01295a03          	lhu	s4,18(s2)
    4df8:	014b77b3          	and	a5,s6,s4
    4dfc:	29678e63          	beq	a5,s6,5098 <emul+0x300>
    4e00:	00048513          	mv	a0,s1
    4e04:	db0ff0ef          	jal	ra,43b4 <eisinf.part.0>
    4e08:	2e050a63          	beqz	a0,50fc <emul+0x364>
    4e0c:	000145b7          	lui	a1,0x14
    4e10:	4f858593          	addi	a1,a1,1272 # 144f8 <ezero>
    4e14:	00090513          	mv	a0,s2
    4e18:	c84ff0ef          	jal	ra,429c <ecmp>
    4e1c:	36050263          	beqz	a0,5180 <emul+0x3e8>
    4e20:	01295a03          	lhu	s4,18(s2)
    4e24:	000087b7          	lui	a5,0x8
    4e28:	fff78793          	addi	a5,a5,-1 # 7fff <__mcmp+0xb>
    4e2c:	0147fa33          	and	s4,a5,s4
    4e30:	010a1a13          	slli	s4,s4,0x10
    4e34:	010a5a13          	srli	s4,s4,0x10
    4e38:	2cfa1063          	bne	s4,a5,50f8 <emul+0x360>
    4e3c:	00090513          	mv	a0,s2
    4e40:	d74ff0ef          	jal	ra,43b4 <eisinf.part.0>
    4e44:	30051c63          	bnez	a0,515c <emul+0x3c4>
    4e48:	0124d783          	lhu	a5,18(s1)
    4e4c:	00fa77b3          	and	a5,s4,a5
    4e50:	0b479463          	bne	a5,s4,4ef8 <emul+0x160>
    4e54:	00048513          	mv	a0,s1
    4e58:	d5cff0ef          	jal	ra,43b4 <eisinf.part.0>
    4e5c:	00051863          	bnez	a0,4e6c <emul+0xd4>
    4e60:	00090513          	mv	a0,s2
    4e64:	d50ff0ef          	jal	ra,43b4 <eisinf.part.0>
    4e68:	08050863          	beqz	a0,4ef8 <emul+0x160>
    4e6c:	00048513          	mv	a0,s1
    4e70:	af4ff0ef          	jal	ra,4164 <eisneg>
    4e74:	00050493          	mv	s1,a0
    4e78:	00090513          	mv	a0,s2
    4e7c:	ae8ff0ef          	jal	ra,4164 <eisneg>
    4e80:	40a484b3          	sub	s1,s1,a0
    4e84:	009034b3          	snez	s1,s1
    4e88:	00f49493          	slli	s1,s1,0xf
    4e8c:	00941923          	sh	s1,18(s0)
    4e90:	01240713          	addi	a4,s0,18
    4e94:	00040793          	mv	a5,s0
    4e98:	00278793          	addi	a5,a5,2
    4e9c:	fe079f23          	sh	zero,-2(a5)
    4ea0:	fef71ce3          	bne	a4,a5,4e98 <emul+0x100>
    4ea4:	01245783          	lhu	a5,18(s0)
    4ea8:	00008737          	lui	a4,0x8
    4eac:	fff70713          	addi	a4,a4,-1 # 7fff <__mcmp+0xb>
    4eb0:	00e7e7b3          	or	a5,a5,a4
    4eb4:	00f41923          	sh	a5,18(s0)
    4eb8:	08c12083          	lw	ra,140(sp)
    4ebc:	08812403          	lw	s0,136(sp)
    4ec0:	08412483          	lw	s1,132(sp)
    4ec4:	08012903          	lw	s2,128(sp)
    4ec8:	07c12983          	lw	s3,124(sp)
    4ecc:	07812a03          	lw	s4,120(sp)
    4ed0:	07412a83          	lw	s5,116(sp)
    4ed4:	07012b03          	lw	s6,112(sp)
    4ed8:	06c12b83          	lw	s7,108(sp)
    4edc:	06812c03          	lw	s8,104(sp)
    4ee0:	06412c83          	lw	s9,100(sp)
    4ee4:	09010113          	addi	sp,sp,144
    4ee8:	00008067          	ret
    4eec:	0125da03          	lhu	s4,18(a1)
    4ef0:	0147f733          	and	a4,a5,s4
    4ef4:	04f70a63          	beq	a4,a5,4f48 <emul+0x1b0>
    4ef8:	00048513          	mv	a0,s1
    4efc:	00c10593          	addi	a1,sp,12
    4f00:	aa4ff0ef          	jal	ra,41a4 <emovi>
    4f04:	00090513          	mv	a0,s2
    4f08:	02810593          	addi	a1,sp,40
    4f0c:	a98ff0ef          	jal	ra,41a4 <emovi>
    4f10:	00e15483          	lhu	s1,14(sp)
    4f14:	02a15903          	lhu	s2,42(sp)
    4f18:	04049c63          	bnez	s1,4f70 <emul+0x1d8>
    4f1c:	01010793          	addi	a5,sp,16
    4f20:	02410693          	addi	a3,sp,36
    4f24:	20d78863          	beq	a5,a3,5134 <emul+0x39c>
    4f28:	0007d703          	lhu	a4,0(a5)
    4f2c:	00278793          	addi	a5,a5,2
    4f30:	fe070ae3          	beqz	a4,4f24 <emul+0x18c>
    4f34:	00c10513          	addi	a0,sp,12
    4f38:	eb4ff0ef          	jal	ra,45ec <enormlz>
    4f3c:	02a15703          	lhu	a4,42(sp)
    4f40:	40a004b3          	neg	s1,a0
    4f44:	0300006f          	j	4f74 <emul+0x1dc>
    4f48:	00058513          	mv	a0,a1
    4f4c:	9a8ff0ef          	jal	ra,40f4 <eisnan.part.0>
    4f50:	ec050ae3          	beqz	a0,4e24 <emul+0x8c>
    4f54:	01490713          	addi	a4,s2,20
    4f58:	00095783          	lhu	a5,0(s2)
    4f5c:	00290913          	addi	s2,s2,2
    4f60:	00240413          	addi	s0,s0,2
    4f64:	fef41f23          	sh	a5,-2(s0)
    4f68:	fee918e3          	bne	s2,a4,4f58 <emul+0x1c0>
    4f6c:	f4dff06f          	j	4eb8 <emul+0x120>
    4f70:	00090713          	mv	a4,s2
    4f74:	00090a93          	mv	s5,s2
    4f78:	02c10793          	addi	a5,sp,44
    4f7c:	04010693          	addi	a3,sp,64
    4f80:	02071263          	bnez	a4,4fa4 <emul+0x20c>
    4f84:	1cf68263          	beq	a3,a5,5148 <emul+0x3b0>
    4f88:	0007d703          	lhu	a4,0(a5)
    4f8c:	00278793          	addi	a5,a5,2
    4f90:	fe070ae3          	beqz	a4,4f84 <emul+0x1ec>
    4f94:	02810513          	addi	a0,sp,40
    4f98:	e54ff0ef          	jal	ra,45ec <enormlz>
    4f9c:	02a15703          	lhu	a4,42(sp)
    4fa0:	40a90ab3          	sub	s5,s2,a0
    4fa4:	02815783          	lhu	a5,40(sp)
    4fa8:	03898c13          	addi	s8,s3,56
    4fac:	02e99b23          	sh	a4,54(s3)
    4fb0:	02f99a23          	sh	a5,52(s3)
    4fb4:	04e98713          	addi	a4,s3,78
    4fb8:	000c0793          	mv	a5,s8
    4fbc:	00079023          	sh	zero,0(a5)
    4fc0:	00278793          	addi	a5,a5,2
    4fc4:	fef71ce3          	bne	a4,a5,4fbc <emul+0x224>
    4fc8:	04c98a13          	addi	s4,s3,76
    4fcc:	00000b93          	li	s7,0
    4fd0:	02410913          	addi	s2,sp,36
    4fd4:	01010c93          	addi	s9,sp,16
    4fd8:	04610b13          	addi	s6,sp,70
    4fdc:	00095503          	lhu	a0,0(s2)
    4fe0:	ffe90913          	addi	s2,s2,-2
    4fe4:	0c051863          	bnez	a0,50b4 <emul+0x31c>
    4fe8:	04c9d703          	lhu	a4,76(s3)
    4fec:	000a0793          	mv	a5,s4
    4ff0:	00ebebb3          	or	s7,s7,a4
    4ff4:	ffe7d703          	lhu	a4,-2(a5)
    4ff8:	ffe78793          	addi	a5,a5,-2
    4ffc:	00e79123          	sh	a4,2(a5)
    5000:	ff879ae3          	bne	a5,s8,4ff4 <emul+0x25c>
    5004:	02099c23          	sh	zero,56(s3)
    5008:	fd991ae3          	bne	s2,s9,4fdc <emul+0x244>
    500c:	03498713          	addi	a4,s3,52
    5010:	02810793          	addi	a5,sp,40
    5014:	04210593          	addi	a1,sp,66
    5018:	00075603          	lhu	a2,0(a4)
    501c:	00278793          	addi	a5,a5,2
    5020:	00270713          	addi	a4,a4,2
    5024:	fec79f23          	sh	a2,-2(a5)
    5028:	fef598e3          	bne	a1,a5,5018 <emul+0x280>
    502c:	ffffc6b7          	lui	a3,0xffffc
    5030:	015484b3          	add	s1,s1,s5
    5034:	00268693          	addi	a3,a3,2 # ffffc002 <//.+0xfffe608a>
    5038:	000b8593          	mv	a1,s7
    503c:	02810513          	addi	a0,sp,40
    5040:	00098793          	mv	a5,s3
    5044:	04000713          	li	a4,64
    5048:	00d486b3          	add	a3,s1,a3
    504c:	00000613          	li	a2,0
    5050:	f18ff0ef          	jal	ra,4768 <emdnorm>
    5054:	02815703          	lhu	a4,40(sp)
    5058:	00c15783          	lhu	a5,12(sp)
    505c:	00040593          	mv	a1,s0
    5060:	02810513          	addi	a0,sp,40
    5064:	40e787b3          	sub	a5,a5,a4
    5068:	00f037b3          	snez	a5,a5
    506c:	40f007b3          	neg	a5,a5
    5070:	02f11423          	sh	a5,40(sp)
    5074:	c69ff0ef          	jal	ra,4cdc <emovo.isra.0>
    5078:	e41ff06f          	j	4eb8 <emul+0x120>
    507c:	01448713          	addi	a4,s1,20
    5080:	0004d783          	lhu	a5,0(s1)
    5084:	00248493          	addi	s1,s1,2
    5088:	00240413          	addi	s0,s0,2
    508c:	fef41f23          	sh	a5,-2(s0)
    5090:	fee498e3          	bne	s1,a4,5080 <emul+0x2e8>
    5094:	e25ff06f          	j	4eb8 <emul+0x120>
    5098:	00090513          	mv	a0,s2
    509c:	858ff0ef          	jal	ra,40f4 <eisnan.part.0>
    50a0:	ea051ae3          	bnez	a0,4f54 <emul+0x1bc>
    50a4:	00048513          	mv	a0,s1
    50a8:	b0cff0ef          	jal	ra,43b4 <eisinf.part.0>
    50ac:	d6050ce3          	beqz	a0,4e24 <emul+0x8c>
    50b0:	d5dff06f          	j	4e0c <emul+0x74>
    50b4:	04410613          	addi	a2,sp,68
    50b8:	02810593          	addi	a1,sp,40
    50bc:	fa1fe0ef          	jal	ra,405c <m16m>
    50c0:	000a0593          	mv	a1,s4
    50c4:	00000613          	li	a2,0
    50c8:	05c10713          	addi	a4,sp,92
    50cc:	0005d803          	lhu	a6,0(a1)
    50d0:	00075783          	lhu	a5,0(a4)
    50d4:	ffe58593          	addi	a1,a1,-2
    50d8:	ffe70713          	addi	a4,a4,-2
    50dc:	010787b3          	add	a5,a5,a6
    50e0:	00c787b3          	add	a5,a5,a2
    50e4:	0107d613          	srli	a2,a5,0x10
    50e8:	00f59123          	sh	a5,2(a1)
    50ec:	00167613          	andi	a2,a2,1
    50f0:	fd671ee3          	bne	a4,s6,50cc <emul+0x334>
    50f4:	ef5ff06f          	j	4fe8 <emul+0x250>
    50f8:	0124da83          	lhu	s5,18(s1)
    50fc:	000087b7          	lui	a5,0x8
    5100:	fff78793          	addi	a5,a5,-1 # 7fff <__mcmp+0xb>
    5104:	0157fab3          	and	s5,a5,s5
    5108:	010a9a93          	slli	s5,s5,0x10
    510c:	010ada93          	srli	s5,s5,0x10
    5110:	defa94e3          	bne	s5,a5,4ef8 <emul+0x160>
    5114:	00048513          	mv	a0,s1
    5118:	a9cff0ef          	jal	ra,43b4 <eisinf.part.0>
    511c:	d40518e3          	bnez	a0,4e6c <emul+0xd4>
    5120:	01295783          	lhu	a5,18(s2)
    5124:	fff7c793          	not	a5,a5
    5128:	01179713          	slli	a4,a5,0x11
    512c:	dc0716e3          	bnez	a4,4ef8 <emul+0x160>
    5130:	d31ff06f          	j	4e60 <emul+0xc8>
    5134:	01440793          	addi	a5,s0,20
    5138:	00240413          	addi	s0,s0,2
    513c:	fe041f23          	sh	zero,-2(s0)
    5140:	fe879ce3          	bne	a5,s0,5138 <emul+0x3a0>
    5144:	d75ff06f          	j	4eb8 <emul+0x120>
    5148:	01440793          	addi	a5,s0,20
    514c:	00240413          	addi	s0,s0,2
    5150:	fe041f23          	sh	zero,-2(s0)
    5154:	fef41ce3          	bne	s0,a5,514c <emul+0x3b4>
    5158:	d61ff06f          	j	4eb8 <emul+0x120>
    515c:	000145b7          	lui	a1,0x14
    5160:	4f858593          	addi	a1,a1,1272 # 144f8 <ezero>
    5164:	00048513          	mv	a0,s1
    5168:	934ff0ef          	jal	ra,429c <ecmp>
    516c:	00050a63          	beqz	a0,5180 <emul+0x3e8>
    5170:	0124d783          	lhu	a5,18(s1)
    5174:	00fa77b3          	and	a5,s4,a5
    5178:	f9478ee3          	beq	a5,s4,5114 <emul+0x37c>
    517c:	fa5ff06f          	j	5120 <emul+0x388>
    5180:	01040713          	addi	a4,s0,16
    5184:	00040793          	mv	a5,s0
    5188:	00278793          	addi	a5,a5,2
    518c:	fe079f23          	sh	zero,-2(a5)
    5190:	fee79ce3          	bne	a5,a4,5188 <emul+0x3f0>
    5194:	ffffc7b7          	lui	a5,0xffffc
    5198:	00f41823          	sh	a5,16(s0)
    519c:	ffff87b7          	lui	a5,0xffff8
    51a0:	fff7c793          	not	a5,a5
    51a4:	00f41923          	sh	a5,18(s0)
    51a8:	d11ff06f          	j	4eb8 <emul+0x120>

000051ac <ediv>:
    51ac:	01255783          	lhu	a5,18(a0)
    51b0:	f5010113          	addi	sp,sp,-176
    51b4:	0a812423          	sw	s0,168(sp)
    51b8:	fff7c793          	not	a5,a5
    51bc:	0a912223          	sw	s1,164(sp)
    51c0:	0b212023          	sw	s2,160(sp)
    51c4:	09312e23          	sw	s3,156(sp)
    51c8:	0a112623          	sw	ra,172(sp)
    51cc:	09412c23          	sw	s4,152(sp)
    51d0:	09512a23          	sw	s5,148(sp)
    51d4:	09612823          	sw	s6,144(sp)
    51d8:	09712623          	sw	s7,140(sp)
    51dc:	09812423          	sw	s8,136(sp)
    51e0:	09912223          	sw	s9,132(sp)
    51e4:	09a12023          	sw	s10,128(sp)
    51e8:	07b12e23          	sw	s11,124(sp)
    51ec:	01179713          	slli	a4,a5,0x11
    51f0:	00050913          	mv	s2,a0
    51f4:	00058993          	mv	s3,a1
    51f8:	00060413          	mv	s0,a2
    51fc:	00068493          	mv	s1,a3
    5200:	00071663          	bnez	a4,520c <ediv+0x60>
    5204:	ef1fe0ef          	jal	ra,40f4 <eisnan.part.0>
    5208:	3a051263          	bnez	a0,55ac <ediv+0x400>
    520c:	0129d783          	lhu	a5,18(s3)
    5210:	fff7c793          	not	a5,a5
    5214:	01179713          	slli	a4,a5,0x11
    5218:	08070e63          	beqz	a4,52b4 <ediv+0x108>
    521c:	00014a37          	lui	s4,0x14
    5220:	4f8a0593          	addi	a1,s4,1272 # 144f8 <ezero>
    5224:	00090513          	mv	a0,s2
    5228:	874ff0ef          	jal	ra,429c <ecmp>
    522c:	10050463          	beqz	a0,5334 <ediv+0x188>
    5230:	01295a03          	lhu	s4,18(s2)
    5234:	0129d703          	lhu	a4,18(s3)
    5238:	000087b7          	lui	a5,0x8
    523c:	fff78793          	addi	a5,a5,-1 # 7fff <__mcmp+0xb>
    5240:	0147fa33          	and	s4,a5,s4
    5244:	00e7fab3          	and	s5,a5,a4
    5248:	08fa1a63          	bne	s4,a5,52dc <ediv+0x130>
    524c:	00090513          	mv	a0,s2
    5250:	964ff0ef          	jal	ra,43b4 <eisinf.part.0>
    5254:	10050e63          	beqz	a0,5370 <ediv+0x1c4>
    5258:	014a9863          	bne	s5,s4,5268 <ediv+0xbc>
    525c:	00098513          	mv	a0,s3
    5260:	954ff0ef          	jal	ra,43b4 <eisinf.part.0>
    5264:	0e051063          	bnez	a0,5344 <ediv+0x198>
    5268:	01440793          	addi	a5,s0,20
    526c:	00240413          	addi	s0,s0,2
    5270:	fe041f23          	sh	zero,-2(s0)
    5274:	fef41ce3          	bne	s0,a5,526c <ediv+0xc0>
    5278:	0ac12083          	lw	ra,172(sp)
    527c:	0a812403          	lw	s0,168(sp)
    5280:	0a412483          	lw	s1,164(sp)
    5284:	0a012903          	lw	s2,160(sp)
    5288:	09c12983          	lw	s3,156(sp)
    528c:	09812a03          	lw	s4,152(sp)
    5290:	09412a83          	lw	s5,148(sp)
    5294:	09012b03          	lw	s6,144(sp)
    5298:	08c12b83          	lw	s7,140(sp)
    529c:	08812c03          	lw	s8,136(sp)
    52a0:	08412c83          	lw	s9,132(sp)
    52a4:	08012d03          	lw	s10,128(sp)
    52a8:	07c12d83          	lw	s11,124(sp)
    52ac:	0b010113          	addi	sp,sp,176
    52b0:	00008067          	ret
    52b4:	00098513          	mv	a0,s3
    52b8:	e3dfe0ef          	jal	ra,40f4 <eisnan.part.0>
    52bc:	f60500e3          	beqz	a0,521c <ediv+0x70>
    52c0:	01498713          	addi	a4,s3,20
    52c4:	0009d783          	lhu	a5,0(s3)
    52c8:	00298993          	addi	s3,s3,2
    52cc:	00240413          	addi	s0,s0,2
    52d0:	fef41f23          	sh	a5,-2(s0)
    52d4:	fee998e3          	bne	s3,a4,52c4 <ediv+0x118>
    52d8:	fa1ff06f          	j	5278 <ediv+0xcc>
    52dc:	08fa8c63          	beq	s5,a5,5374 <ediv+0x1c8>
    52e0:	00090513          	mv	a0,s2
    52e4:	01c10593          	addi	a1,sp,28
    52e8:	ebdfe0ef          	jal	ra,41a4 <emovi>
    52ec:	03810593          	addi	a1,sp,56
    52f0:	00098513          	mv	a0,s3
    52f4:	eb1fe0ef          	jal	ra,41a4 <emovi>
    52f8:	03a15b83          	lhu	s7,58(sp)
    52fc:	01e15903          	lhu	s2,30(sp)
    5300:	0c0b9863          	bnez	s7,53d0 <ediv+0x224>
    5304:	03c10793          	addi	a5,sp,60
    5308:	05010d93          	addi	s11,sp,80
    530c:	36fd8863          	beq	s11,a5,567c <ediv+0x4d0>
